ARM GAS  C:\Users\Melody\AppData\Local\Temp\ccJcybLC.s 			page 1


   1              		.syntax unified
   2              		.cpu cortex-m0
   3              		.fpu softvfp
   4              		.eabi_attribute 20, 1
   5              		.eabi_attribute 21, 1
   6              		.eabi_attribute 23, 3
   7              		.eabi_attribute 24, 1
   8              		.eabi_attribute 25, 1
   9              		.eabi_attribute 26, 1
  10              		.eabi_attribute 30, 1
  11              		.eabi_attribute 34, 0
  12              		.eabi_attribute 18, 4
  13              		.thumb
  14              		.syntax unified
  15              		.file	"can_manga.c"
  16              		.text
  17              	.Ltext0:
  18              		.cfi_sections	.debug_frame
  19              		.section	.text.getCapacitorVoltage,"ax",%progbits
  20              		.align	2
  21              		.global	getCapacitorVoltage
  22              		.code	16
  23              		.thumb_func
  24              		.type	getCapacitorVoltage, %function
  25              	getCapacitorVoltage:
  26              	.LFB34:
  27              		.file 1 "can_manga.c"
   1:can_manga.c   **** /* ========================================
   2:can_manga.c   ****  * Can API for FRUCD
   3:can_manga.c   ****  * Schuyler Alschuler 2016 - 2017
   4:can_manga.c   ****  * ========================================
   5:can_manga.c   **** */
   6:can_manga.c   **** 
   7:can_manga.c   **** /*******************************************
   8:can_manga.c   ****  * Used to interface dashboard with CAN bus
   9:can_manga.c   ****  * some functinality can be found in CAN_TX_RX_func.c
  10:can_manga.c   ****  * which is a generated source file
  11:can_manga.c   ****  * see the can component of the top design for specific mailboxes
  12:can_manga.c   ****  ******************************************/
  13:can_manga.c   **** 
  14:can_manga.c   **** #include "CAN_0.h"
  15:can_manga.c   **** #include "can_manga.h"
  16:can_manga.c   **** #include "cytypes.h"
  17:can_manga.c   **** #include "data.h"
  18:can_manga.c   **** 
  19:can_manga.c   **** extern volatile uint32_t pedalOK;
  20:can_manga.c   **** extern volatile double THROTTLE_MULTIPLIER;
  21:can_manga.c   **** extern const double THROTTLE_MAP[8];
  22:can_manga.c   **** extern volatile uint8_t PACK_TEMP;
  23:can_manga.c   **** extern volatile int32 CURRENT;
  24:can_manga.c   **** extern volatile int ERROR_NODE;
  25:can_manga.c   **** extern volatile int ERROR_IDX;
  26:can_manga.c   **** 
  27:can_manga.c   **** volatile uint8_t CAPACITOR_VOLT = 0;
  28:can_manga.c   **** volatile uint8_t CURTIS_FAULT_CHECK = 0;
  29:can_manga.c   **** volatile uint8_t CURTIS_HEART_BEAT_CHECK = 0;
  30:can_manga.c   **** volatile uint8_t ACK_RX = 0;
ARM GAS  C:\Users\Melody\AppData\Local\Temp\ccJcybLC.s 			page 2


  31:can_manga.c   **** volatile uint8_t ERROR_TOLERANCE = 0;
  32:can_manga.c   **** volatile uint8_t ABS_MOTOR_RPM = 0;
  33:can_manga.c   **** volatile uint8_t THROTTLE_HIGH = 0;
  34:can_manga.c   **** volatile uint8_t THROTTLE_LOW = 0;
  35:can_manga.c   **** 
  36:can_manga.c   **** volatile uint8_t VOLT_B1;
  37:can_manga.c   **** volatile uint8_t VOLT_B2;
  38:can_manga.c   **** volatile uint8_t VOLT_B3;
  39:can_manga.c   **** volatile uint8_t VOLT_B4;
  40:can_manga.c   **** extern volatile uint32_t voltage;
  41:can_manga.c   **** extern volatile BMS_STATUS bms_status;
  42:can_manga.c   **** 
  43:can_manga.c   **** 
  44:can_manga.c   **** uint8 current_bytes[4] = {0};
  45:can_manga.c   **** 
  46:can_manga.c   **** // returns voltage of capacitor from motor controller
  47:can_manga.c   **** uint8_t getCapacitorVoltage()
  48:can_manga.c   **** {
  28              		.loc 1 48 0
  29              		.cfi_startproc
  30              		@ args = 0, pretend = 0, frame = 0
  31              		@ frame_needed = 0, uses_anonymous_args = 0
  32              		@ link register save eliminated.
  49:can_manga.c   ****     return CAPACITOR_VOLT;
  33              		.loc 1 49 0
  34 0000 014B     		ldr	r3, .L2
  35 0002 1878     		ldrb	r0, [r3]
  36 0004 C0B2     		uxtb	r0, r0
  50:can_manga.c   **** }
  37              		.loc 1 50 0
  38              		@ sp needed
  39 0006 7047     		bx	lr
  40              	.L3:
  41              		.align	2
  42              	.L2:
  43 0008 00000000 		.word	.LANCHOR0
  44              		.cfi_endproc
  45              	.LFE34:
  46              		.size	getCapacitorVoltage, .-getCapacitorVoltage
  47              		.section	.text.getCurtisFaultCheck,"ax",%progbits
  48              		.align	2
  49              		.global	getCurtisFaultCheck
  50              		.code	16
  51              		.thumb_func
  52              		.type	getCurtisFaultCheck, %function
  53              	getCurtisFaultCheck:
  54              	.LFB35:
  51:can_manga.c   **** 
  52:can_manga.c   **** // returns true if there is a fault in motor controller
  53:can_manga.c   **** uint8_t getCurtisFaultCheck()
  54:can_manga.c   **** {
  55              		.loc 1 54 0
  56              		.cfi_startproc
  57              		@ args = 0, pretend = 0, frame = 0
  58              		@ frame_needed = 0, uses_anonymous_args = 0
  59              		@ link register save eliminated.
  55:can_manga.c   ****     return CURTIS_FAULT_CHECK;
ARM GAS  C:\Users\Melody\AppData\Local\Temp\ccJcybLC.s 			page 3


  60              		.loc 1 55 0
  61 0000 014B     		ldr	r3, .L5
  62 0002 5878     		ldrb	r0, [r3, #1]
  63 0004 C0B2     		uxtb	r0, r0
  56:can_manga.c   **** }
  64              		.loc 1 56 0
  65              		@ sp needed
  66 0006 7047     		bx	lr
  67              	.L6:
  68              		.align	2
  69              	.L5:
  70 0008 00000000 		.word	.LANCHOR0
  71              		.cfi_endproc
  72              	.LFE35:
  73              		.size	getCurtisFaultCheck, .-getCurtisFaultCheck
  74              		.section	.text.getCurtisHeartBeatCheck,"ax",%progbits
  75              		.align	2
  76              		.global	getCurtisHeartBeatCheck
  77              		.code	16
  78              		.thumb_func
  79              		.type	getCurtisHeartBeatCheck, %function
  80              	getCurtisHeartBeatCheck:
  81              	.LFB36:
  57:can_manga.c   **** 
  58:can_manga.c   **** // returns true if motor controller node is still active
  59:can_manga.c   **** // if node is in active check the fault code using 1314
  60:can_manga.c   **** uint8_t getCurtisHeartBeatCheck()
  61:can_manga.c   **** {
  82              		.loc 1 61 0
  83              		.cfi_startproc
  84              		@ args = 0, pretend = 0, frame = 0
  85              		@ frame_needed = 0, uses_anonymous_args = 0
  86              		@ link register save eliminated.
  62:can_manga.c   ****     return CURTIS_HEART_BEAT_CHECK;
  87              		.loc 1 62 0
  88 0000 014B     		ldr	r3, .L8
  89 0002 9878     		ldrb	r0, [r3, #2]
  90 0004 C0B2     		uxtb	r0, r0
  63:can_manga.c   **** }
  91              		.loc 1 63 0
  92              		@ sp needed
  93 0006 7047     		bx	lr
  94              	.L9:
  95              		.align	2
  96              	.L8:
  97 0008 00000000 		.word	.LANCHOR0
  98              		.cfi_endproc
  99              	.LFE36:
 100              		.size	getCurtisHeartBeatCheck, .-getCurtisHeartBeatCheck
 101              		.section	.text.getAckRx,"ax",%progbits
 102              		.align	2
 103              		.global	getAckRx
 104              		.code	16
 105              		.thumb_func
 106              		.type	getAckRx, %function
 107              	getAckRx:
 108              	.LFB37:
ARM GAS  C:\Users\Melody\AppData\Local\Temp\ccJcybLC.s 			page 4


  64:can_manga.c   **** 
  65:can_manga.c   **** // returns 1 always... not sure whats up in the motor controller
  66:can_manga.c   **** uint8_t getAckRx()
  67:can_manga.c   **** {
 109              		.loc 1 67 0
 110              		.cfi_startproc
 111              		@ args = 0, pretend = 0, frame = 0
 112              		@ frame_needed = 0, uses_anonymous_args = 0
 113              		@ link register save eliminated.
  68:can_manga.c   ****     return ACK_RX;
 114              		.loc 1 68 0
 115 0000 014B     		ldr	r3, .L11
 116 0002 D878     		ldrb	r0, [r3, #3]
 117 0004 C0B2     		uxtb	r0, r0
  69:can_manga.c   **** }
 118              		.loc 1 69 0
 119              		@ sp needed
 120 0006 7047     		bx	lr
 121              	.L12:
 122              		.align	2
 123              	.L11:
 124 0008 00000000 		.word	.LANCHOR0
 125              		.cfi_endproc
 126              	.LFE37:
 127              		.size	getAckRx, .-getAckRx
 128              		.section	.text.getErrorTolerance,"ax",%progbits
 129              		.align	2
 130              		.global	getErrorTolerance
 131              		.code	16
 132              		.thumb_func
 133              		.type	getErrorTolerance, %function
 134              	getErrorTolerance:
 135              	.LFB38:
  70:can_manga.c   **** 
  71:can_manga.c   **** // true if break depressed more than 10%
  72:can_manga.c   **** // this value typically used for drive request
  73:can_manga.c   **** uint8_t getErrorTolerance()
  74:can_manga.c   **** {
 136              		.loc 1 74 0
 137              		.cfi_startproc
 138              		@ args = 0, pretend = 0, frame = 0
 139              		@ frame_needed = 0, uses_anonymous_args = 0
 140              		@ link register save eliminated.
  75:can_manga.c   ****     return ERROR_TOLERANCE;
 141              		.loc 1 75 0
 142 0000 014B     		ldr	r3, .L14
 143 0002 1879     		ldrb	r0, [r3, #4]
 144 0004 C0B2     		uxtb	r0, r0
  76:can_manga.c   **** }
 145              		.loc 1 76 0
 146              		@ sp needed
 147 0006 7047     		bx	lr
 148              	.L15:
 149              		.align	2
 150              	.L14:
 151 0008 00000000 		.word	.LANCHOR0
 152              		.cfi_endproc
ARM GAS  C:\Users\Melody\AppData\Local\Temp\ccJcybLC.s 			page 5


 153              	.LFE38:
 154              		.size	getErrorTolerance, .-getErrorTolerance
 155              		.section	.text.getABSMotorRPM,"ax",%progbits
 156              		.align	2
 157              		.global	getABSMotorRPM
 158              		.code	16
 159              		.thumb_func
 160              		.type	getABSMotorRPM, %function
 161              	getABSMotorRPM:
 162              	.LFB39:
  77:can_manga.c   **** 
  78:can_manga.c   **** // from motor controller
  79:can_manga.c   **** // look this one up in 1239E manual, im not super sure
  80:can_manga.c   **** uint8_t getABSMotorRPM()
  81:can_manga.c   **** {
 163              		.loc 1 81 0
 164              		.cfi_startproc
 165              		@ args = 0, pretend = 0, frame = 0
 166              		@ frame_needed = 0, uses_anonymous_args = 0
 167              		@ link register save eliminated.
  82:can_manga.c   ****     return ABS_MOTOR_RPM;
 168              		.loc 1 82 0
 169 0000 014B     		ldr	r3, .L17
 170 0002 5879     		ldrb	r0, [r3, #5]
 171 0004 C0B2     		uxtb	r0, r0
  83:can_manga.c   **** }
 172              		.loc 1 83 0
 173              		@ sp needed
 174 0006 7047     		bx	lr
 175              	.L18:
 176              		.align	2
 177              	.L17:
 178 0008 00000000 		.word	.LANCHOR0
 179              		.cfi_endproc
 180              	.LFE39:
 181              		.size	getABSMotorRPM, .-getABSMotorRPM
 182              		.section	.text.getPedalLow,"ax",%progbits
 183              		.align	2
 184              		.global	getPedalLow
 185              		.code	16
 186              		.thumb_func
 187              		.type	getPedalLow, %function
 188              	getPedalLow:
 189              	.LFB40:
  84:can_manga.c   **** 
  85:can_manga.c   **** // throttle is sent in two 8 bit values to create one 16 bit value
  86:can_manga.c   **** // hight and low refer to high and low bit sequences of the whole value
  87:can_manga.c   **** uint8_t getPedalLow()
  88:can_manga.c   **** {
 190              		.loc 1 88 0
 191              		.cfi_startproc
 192              		@ args = 0, pretend = 0, frame = 0
 193              		@ frame_needed = 0, uses_anonymous_args = 0
 194              		@ link register save eliminated.
  89:can_manga.c   ****     return THROTTLE_LOW;
 195              		.loc 1 89 0
 196 0000 014B     		ldr	r3, .L20
ARM GAS  C:\Users\Melody\AppData\Local\Temp\ccJcybLC.s 			page 6


 197 0002 9879     		ldrb	r0, [r3, #6]
 198 0004 C0B2     		uxtb	r0, r0
  90:can_manga.c   **** }
 199              		.loc 1 90 0
 200              		@ sp needed
 201 0006 7047     		bx	lr
 202              	.L21:
 203              		.align	2
 204              	.L20:
 205 0008 00000000 		.word	.LANCHOR0
 206              		.cfi_endproc
 207              	.LFE40:
 208              		.size	getPedalLow, .-getPedalLow
 209              		.section	.text.getPedalHigh,"ax",%progbits
 210              		.align	2
 211              		.global	getPedalHigh
 212              		.code	16
 213              		.thumb_func
 214              		.type	getPedalHigh, %function
 215              	getPedalHigh:
 216              	.LFB41:
  91:can_manga.c   **** 
  92:can_manga.c   **** uint8_t getPedalHigh()
  93:can_manga.c   **** {
 217              		.loc 1 93 0
 218              		.cfi_startproc
 219              		@ args = 0, pretend = 0, frame = 0
 220              		@ frame_needed = 0, uses_anonymous_args = 0
 221              		@ link register save eliminated.
  94:can_manga.c   ****     return THROTTLE_HIGH;
 222              		.loc 1 94 0
 223 0000 014B     		ldr	r3, .L23
 224 0002 D879     		ldrb	r0, [r3, #7]
 225 0004 C0B2     		uxtb	r0, r0
  95:can_manga.c   **** }
 226              		.loc 1 95 0
 227              		@ sp needed
 228 0006 7047     		bx	lr
 229              	.L24:
 230              		.align	2
 231              	.L23:
 232 0008 00000000 		.word	.LANCHOR0
 233              		.cfi_endproc
 234              	.LFE41:
 235              		.size	getPedalHigh, .-getPedalHigh
 236              		.section	.text.can_test_send,"ax",%progbits
 237              		.align	2
 238              		.global	can_test_send
 239              		.code	16
 240              		.thumb_func
 241              		.type	can_test_send, %function
 242              	can_test_send:
 243              	.LFB43:
  96:can_manga.c   **** 
  97:can_manga.c   **** // called from CAN_TX_RX_func.c in the generic RX func
  98:can_manga.c   **** // tldr: part of an interrupt service routine
  99:can_manga.c   **** 
ARM GAS  C:\Users\Melody\AppData\Local\Temp\ccJcybLC.s 			page 7


 100:can_manga.c   **** void can_receive(uint8_t *msg, int ID)
 101:can_manga.c   **** {
 102:can_manga.c   ****     uint8 InterruptState = CyEnterCriticalSection();
 103:can_manga.c   ****     
 104:can_manga.c   ****     
 105:can_manga.c   ****     uint8_t data[8];
 106:can_manga.c   ****     int i = 0;
 107:can_manga.c   ****     for (i = 0; i < 8; i++)
 108:can_manga.c   ****         data[i] = msg[i];
 109:can_manga.c   ****         
 110:can_manga.c   ****     switch (ID) 
 111:can_manga.c   ****     {
 112:can_manga.c   ****         case 0x0566: // Curtis Status
 113:can_manga.c   ****             CAPACITOR_VOLT = msg[CAN_0_RX_DATA_BYTE1(ID)];
 114:can_manga.c   ****             ABS_MOTOR_RPM = msg[CAN_0_RX_DATA_BYTE5(ID)];
 115:can_manga.c   ****             break;
 116:can_manga.c   ****         case 0xA6:  // errors sent from MC node
 117:can_manga.c   ****             CURTIS_FAULT_CHECK = 0x1;
 118:can_manga.c   ****             break;
 119:can_manga.c   ****         case 0x726:     // from motor controller to confirm that node is still active
 120:can_manga.c   ****             CURTIS_HEART_BEAT_CHECK = 0x1;
 121:can_manga.c   ****             break;
 122:can_manga.c   ****         case 0x0666:    // pdoAwk from motor controller
 123:can_manga.c   ****             ACK_RX = msg[CAN_0_RX_DATA_BYTE1(ID)];
 124:can_manga.c   ****             break;
 125:can_manga.c   ****         case 0x0201:    // BSPD (brake position from pedal node)
 126:can_manga.c   ****             ERROR_TOLERANCE = msg[CAN_0_RX_DATA_BYTE1(ID)];
 127:can_manga.c   ****             break;
 128:can_manga.c   ****         case 0x0200:    // throttle
 129:can_manga.c   ****             pedalOK = 0x0;
 130:can_manga.c   ****             THROTTLE_HIGH = data[CAN_0_RX_DATA_BYTE2(ID)];
 131:can_manga.c   ****             THROTTLE_LOW = data[CAN_0_RX_DATA_BYTE3(ID)];
 132:can_manga.c   ****             break;
 133:can_manga.c   ****         case 0x388:    // BMS voltage data 
 134:can_manga.c   ****             VOLT_B4 = data[CAN_0_RX_DATA_BYTE5(ID)];
 135:can_manga.c   ****             VOLT_B3 = data[CAN_0_RX_DATA_BYTE6(ID)];
 136:can_manga.c   ****             VOLT_B2 = data[CAN_0_RX_DATA_BYTE7(ID)];
 137:can_manga.c   ****             VOLT_B1 = data[CAN_0_RX_DATA_BYTE8(ID)];
 138:can_manga.c   ****             voltage = (VOLT_B4 << 24) | (VOLT_B3 << 16) | (VOLT_B2 << 8) | VOLT_B1; 
 139:can_manga.c   ****             break;
 140:can_manga.c   ****         case 0x0488:   // BMS Temp data
 141:can_manga.c   ****             ERROR_IDX = data[CAN_0_RX_DATA_BYTE6(ID)];
 142:can_manga.c   ****             ERROR_NODE = data[CAN_0_RX_DATA_BYTE7(ID)];
 143:can_manga.c   ****             PACK_TEMP = data[CAN_0_RX_DATA_BYTE8(ID)];
 144:can_manga.c   ****             tempAttenuate();
 145:can_manga.c   ****             break;
 146:can_manga.c   ****         case 0x521: // current data from IVT
 147:can_manga.c   ****             current_bytes[0] = data[CAN_0_RX_DATA_BYTE3(ID)];
 148:can_manga.c   ****             current_bytes[1] = data[CAN_0_RX_DATA_BYTE4(ID)];
 149:can_manga.c   ****             current_bytes[2] = data[CAN_0_RX_DATA_BYTE5(ID)];
 150:can_manga.c   ****             current_bytes[3] = data[CAN_0_RX_DATA_BYTE6(ID)];
 151:can_manga.c   ****             CURRENT = (current_bytes[0] << 24) + (current_bytes[1] << 16) + (current_bytes[2] << 8)
 152:can_manga.c   ****             break;
 153:can_manga.c   ****         case 0x188:
 154:can_manga.c   ****             bms_status = (data[CAN_0_RX_DATA_BYTE3(ID)] << 8) | data[CAN_0_RX_DATA_BYTE4(ID)];  
 155:can_manga.c   ****             break;
 156:can_manga.c   ****     }
ARM GAS  C:\Users\Melody\AppData\Local\Temp\ccJcybLC.s 			page 8


 157:can_manga.c   ****     
 158:can_manga.c   ****     CyExitCriticalSection(InterruptState);
 159:can_manga.c   **** }
 160:can_manga.c   **** 
 161:can_manga.c   **** 
 162:can_manga.c   **** void can_test_send()
 163:can_manga.c   **** {
 244              		.loc 1 163 0
 245              		.cfi_startproc
 246              		@ args = 0, pretend = 0, frame = 24
 247              		@ frame_needed = 0, uses_anonymous_args = 0
 248 0000 00B5     		push	{lr}
 249              		.cfi_def_cfa_offset 4
 250              		.cfi_offset 14, -4
 251 0002 87B0     		sub	sp, sp, #28
 252              		.cfi_def_cfa_offset 32
 164:can_manga.c   ****     //CAN_1_DATA_BYTES_MSG msg;
 165:can_manga.c   ****     CAN_0_TX_MSG HeartB;
 166:can_manga.c   ****     
 167:can_manga.c   ****     HeartB.id = 0x300;
 253              		.loc 1 167 0
 254 0004 C023     		movs	r3, #192
 255 0006 9B00     		lsls	r3, r3, #2
 256 0008 0293     		str	r3, [sp, #8]
 168:can_manga.c   ****     HeartB.rtr = 0;
 257              		.loc 1 168 0
 258 000a 0022     		movs	r2, #0
 259 000c 02AB     		add	r3, sp, #8
 260 000e 1A71     		strb	r2, [r3, #4]
 169:can_manga.c   ****     HeartB.ide = 0;
 261              		.loc 1 169 0
 262 0010 5A71     		strb	r2, [r3, #5]
 170:can_manga.c   ****     HeartB.dlc = 1;
 263              		.loc 1 170 0
 264 0012 0123     		movs	r3, #1
 265 0014 02A9     		add	r1, sp, #8
 266 0016 8B71     		strb	r3, [r1, #6]
 171:can_manga.c   ****     
 172:can_manga.c   ****     HeartB.irq = 0;
 267              		.loc 1 172 0
 268 0018 CA71     		strb	r2, [r1, #7]
 173:can_manga.c   ****     
 174:can_manga.c   ****     HeartB.msg->byte[0] = (uint8) 1;
 269              		.loc 1 174 0
 270 001a 059A     		ldr	r2, [sp, #20]
 271 001c 1370     		strb	r3, [r2]
 175:can_manga.c   ****     HeartB.msg->byte[1] = (uint8) 1;
 272              		.loc 1 175 0
 273 001e 059A     		ldr	r2, [sp, #20]
 274 0020 5370     		strb	r3, [r2, #1]
 176:can_manga.c   ****     HeartB.msg->byte[2] = (uint8) 1;
 275              		.loc 1 176 0
 276 0022 059A     		ldr	r2, [sp, #20]
 277 0024 9370     		strb	r3, [r2, #2]
 177:can_manga.c   ****     HeartB.msg->byte[3] = (uint8) 1;
 278              		.loc 1 177 0
 279 0026 059A     		ldr	r2, [sp, #20]
ARM GAS  C:\Users\Melody\AppData\Local\Temp\ccJcybLC.s 			page 9


 280 0028 D370     		strb	r3, [r2, #3]
 178:can_manga.c   ****     HeartB.msg->byte[4] = (uint8) 1;
 281              		.loc 1 178 0
 282 002a 059A     		ldr	r2, [sp, #20]
 283 002c 1371     		strb	r3, [r2, #4]
 179:can_manga.c   ****     HeartB.msg->byte[5] = (uint8) 1;
 284              		.loc 1 179 0
 285 002e 059A     		ldr	r2, [sp, #20]
 286 0030 5371     		strb	r3, [r2, #5]
 180:can_manga.c   ****     HeartB.msg->byte[6] = (uint8) 1;
 287              		.loc 1 180 0
 288 0032 059A     		ldr	r2, [sp, #20]
 289 0034 9371     		strb	r3, [r2, #6]
 181:can_manga.c   ****     HeartB.msg->byte[7] = (uint8) 1;
 290              		.loc 1 181 0
 291 0036 059A     		ldr	r2, [sp, #20]
 292 0038 0192     		str	r2, [sp, #4]
 293 003a D371     		strb	r3, [r2, #7]
 182:can_manga.c   ****     
 183:can_manga.c   ****     CAN_0_SendMsg(&HeartB);
 294              		.loc 1 183 0
 295 003c 0800     		movs	r0, r1
 296 003e FFF7FEFF 		bl	CAN_0_SendMsg
 297              	.LVL0:
 184:can_manga.c   **** }
 298              		.loc 1 184 0
 299 0042 07B0     		add	sp, sp, #28
 300              		@ sp needed
 301 0044 00BD     		pop	{pc}
 302              		.cfi_endproc
 303              	.LFE43:
 304              		.size	can_test_send, .-can_test_send
 305 0046 C046     		.section	.text.can_send,"ax",%progbits
 306              		.align	2
 307              		.global	can_send
 308              		.code	16
 309              		.thumb_func
 310              		.type	can_send, %function
 311              	can_send:
 312              	.LFB44:
 185:can_manga.c   **** 
 186:can_manga.c   **** void can_send(uint8_t data[8], uint32_t ID)
 187:can_manga.c   **** {
 313              		.loc 1 187 0
 314              		.cfi_startproc
 315              		@ args = 0, pretend = 0, frame = 24
 316              		@ frame_needed = 0, uses_anonymous_args = 0
 317              	.LVL1:
 318 0000 00B5     		push	{lr}
 319              		.cfi_def_cfa_offset 4
 320              		.cfi_offset 14, -4
 321 0002 87B0     		sub	sp, sp, #28
 322              		.cfi_def_cfa_offset 32
 188:can_manga.c   ****     uint8_t i;
 189:can_manga.c   **** 	CAN_0_TX_MSG message;
 190:can_manga.c   **** 	CAN_0_DATA_BYTES_MSG payload;
 191:can_manga.c   **** 	message.id = ID; 
ARM GAS  C:\Users\Melody\AppData\Local\Temp\ccJcybLC.s 			page 10


 323              		.loc 1 191 0
 324 0004 02AB     		add	r3, sp, #8
 325 0006 0291     		str	r1, [sp, #8]
 192:can_manga.c   **** 	message.rtr = 0;
 326              		.loc 1 192 0
 327 0008 0022     		movs	r2, #0
 328 000a 1A71     		strb	r2, [r3, #4]
 193:can_manga.c   **** 	message.ide = 0;
 329              		.loc 1 193 0
 330 000c 5A71     		strb	r2, [r3, #5]
 194:can_manga.c   **** 	message.dlc = 0x08;
 331              		.loc 1 194 0
 332 000e 0821     		movs	r1, #8
 333              	.LVL2:
 334 0010 9971     		strb	r1, [r3, #6]
 195:can_manga.c   **** 	message.irq = 0;
 335              		.loc 1 195 0
 336 0012 DA71     		strb	r2, [r3, #7]
 196:can_manga.c   **** 	message.msg = &payload;
 337              		.loc 1 196 0
 338 0014 6A46     		mov	r2, sp
 339 0016 0592     		str	r2, [sp, #20]
 340              	.LVL3:
 197:can_manga.c   **** 	for(i=0;i<8;i++)
 341              		.loc 1 197 0
 342 0018 0023     		movs	r3, #0
 343              	.LVL4:
 344 001a 04E0     		b	.L27
 345              	.LVL5:
 346              	.L28:
 198:can_manga.c   **** 		payload.byte[i] = data[i];
 347              		.loc 1 198 0 discriminator 3
 348 001c C25C     		ldrb	r2, [r0, r3]
 349 001e 6946     		mov	r1, sp
 350 0020 CA54     		strb	r2, [r1, r3]
 197:can_manga.c   **** 	for(i=0;i<8;i++)
 351              		.loc 1 197 0 discriminator 3
 352 0022 0133     		adds	r3, r3, #1
 353              	.LVL6:
 354 0024 DBB2     		uxtb	r3, r3
 355              	.LVL7:
 356              	.L27:
 197:can_manga.c   **** 	for(i=0;i<8;i++)
 357              		.loc 1 197 0 is_stmt 0 discriminator 1
 358 0026 072B     		cmp	r3, #7
 359 0028 F8D9     		bls	.L28
 199:can_manga.c   **** 	CAN_0_SendMsg(&message); 
 360              		.loc 1 199 0 is_stmt 1
 361 002a 02A8     		add	r0, sp, #8
 362              	.LVL8:
 363 002c FFF7FEFF 		bl	CAN_0_SendMsg
 364              	.LVL9:
 200:can_manga.c   **** }
 365              		.loc 1 200 0
 366 0030 07B0     		add	sp, sp, #28
 367              		@ sp needed
 368 0032 00BD     		pop	{pc}
ARM GAS  C:\Users\Melody\AppData\Local\Temp\ccJcybLC.s 			page 11


 369              		.cfi_endproc
 370              	.LFE44:
 371              		.size	can_send, .-can_send
 372              		.section	.text.can_send_status,"ax",%progbits
 373              		.align	2
 374              		.global	can_send_status
 375              		.code	16
 376              		.thumb_func
 377              		.type	can_send_status, %function
 378              	can_send_status:
 379              	.LFB45:
 201:can_manga.c   **** 
 202:can_manga.c   **** void can_send_status(
 203:can_manga.c   ****     uint8_t state,
 204:can_manga.c   ****     uint8_t errorState)
 205:can_manga.c   **** {
 380              		.loc 1 205 0
 381              		.cfi_startproc
 382              		@ args = 0, pretend = 0, frame = 8
 383              		@ frame_needed = 0, uses_anonymous_args = 0
 384              	.LVL10:
 385 0000 00B5     		push	{lr}
 386              		.cfi_def_cfa_offset 4
 387              		.cfi_offset 14, -4
 388 0002 83B0     		sub	sp, sp, #12
 389              		.cfi_def_cfa_offset 16
 206:can_manga.c   ****     //max and min voltage means the voltage of single cell
 207:can_manga.c   ****         uint8_t data[8];
 208:can_manga.c   ****         
 209:can_manga.c   ****         data[0] = state;
 390              		.loc 1 209 0
 391 0004 6B46     		mov	r3, sp
 392 0006 1870     		strb	r0, [r3]
 210:can_manga.c   ****         data[1] = errorState;
 393              		.loc 1 210 0
 394 0008 5970     		strb	r1, [r3, #1]
 211:can_manga.c   ****         
 212:can_manga.c   ****         data[2] = 0;
 395              		.loc 1 212 0
 396 000a 0023     		movs	r3, #0
 397 000c 6A46     		mov	r2, sp
 398 000e 9370     		strb	r3, [r2, #2]
 213:can_manga.c   ****         data[3] = 0;
 399              		.loc 1 213 0
 400 0010 D370     		strb	r3, [r2, #3]
 214:can_manga.c   ****         
 215:can_manga.c   ****         data[4] = 0;
 401              		.loc 1 215 0
 402 0012 1371     		strb	r3, [r2, #4]
 216:can_manga.c   ****         data[5] = 0;
 403              		.loc 1 216 0
 404 0014 5371     		strb	r3, [r2, #5]
 217:can_manga.c   ****         data[6] = 0;
 405              		.loc 1 217 0
 406 0016 9371     		strb	r3, [r2, #6]
 218:can_manga.c   ****         data[7] = 0;
 407              		.loc 1 218 0
ARM GAS  C:\Users\Melody\AppData\Local\Temp\ccJcybLC.s 			page 12


 408 0018 D371     		strb	r3, [r2, #7]
 219:can_manga.c   **** 
 220:can_manga.c   ****         can_send(data, 0x626);
 409              		.loc 1 220 0
 410 001a 0349     		ldr	r1, .L30
 411              	.LVL11:
 412 001c 6846     		mov	r0, sp
 413              	.LVL12:
 414 001e FFF7FEFF 		bl	can_send
 415              	.LVL13:
 221:can_manga.c   **** 
 222:can_manga.c   ****         
 223:can_manga.c   **** } // can_send_status()
 416              		.loc 1 223 0
 417 0022 03B0     		add	sp, sp, #12
 418              		@ sp needed
 419 0024 00BD     		pop	{pc}
 420              	.L31:
 421 0026 C046     		.align	2
 422              	.L30:
 423 0028 26060000 		.word	1574
 424              		.cfi_endproc
 425              	.LFE45:
 426              		.size	can_send_status, .-can_send_status
 427              		.section	.text.can_send_cmd,"ax",%progbits
 428              		.align	2
 429              		.global	can_send_cmd
 430              		.code	16
 431              		.thumb_func
 432              		.type	can_send_cmd, %function
 433              	can_send_cmd:
 434              	.LFB46:
 224:can_manga.c   **** 
 225:can_manga.c   **** void can_send_cmd(
 226:can_manga.c   ****     uint8_t SetInterlock,
 227:can_manga.c   ****     uint16_t VCL_Throttle_High,
 228:can_manga.c   ****     uint16_t VCL_Throttle_Low
 229:can_manga.c   **** )
 230:can_manga.c   **** {
 435              		.loc 1 230 0
 436              		.cfi_startproc
 437              		@ args = 0, pretend = 0, frame = 8
 438              		@ frame_needed = 0, uses_anonymous_args = 0
 439              	.LVL14:
 440 0000 00B5     		push	{lr}
 441              		.cfi_def_cfa_offset 4
 442              		.cfi_offset 14, -4
 443 0002 83B0     		sub	sp, sp, #12
 444              		.cfi_def_cfa_offset 16
 231:can_manga.c   ****     //max and min voltage means the voltage of single cell
 232:can_manga.c   ****         
 233:can_manga.c   ****         uint8_t data[8];
 234:can_manga.c   ****         
 235:can_manga.c   ****         data[0] = SetInterlock;
 445              		.loc 1 235 0
 446 0004 6B46     		mov	r3, sp
 447 0006 1870     		strb	r0, [r3]
ARM GAS  C:\Users\Melody\AppData\Local\Temp\ccJcybLC.s 			page 13


 236:can_manga.c   ****         
 237:can_manga.c   ****         data[1] = VCL_Throttle_High;
 448              		.loc 1 237 0
 449 0008 5970     		strb	r1, [r3, #1]
 238:can_manga.c   ****         data[2] = VCL_Throttle_Low;
 450              		.loc 1 238 0
 451 000a 9A70     		strb	r2, [r3, #2]
 239:can_manga.c   ****         
 240:can_manga.c   ****         data[3] = 0;
 452              		.loc 1 240 0
 453 000c 0023     		movs	r3, #0
 454 000e 6A46     		mov	r2, sp
 455              	.LVL15:
 456 0010 D370     		strb	r3, [r2, #3]
 241:can_manga.c   ****         data[4] = 0;
 457              		.loc 1 241 0
 458 0012 1371     		strb	r3, [r2, #4]
 242:can_manga.c   ****         
 243:can_manga.c   ****         data[5] = 0;
 459              		.loc 1 243 0
 460 0014 5371     		strb	r3, [r2, #5]
 244:can_manga.c   ****         data[6] = 0;
 461              		.loc 1 244 0
 462 0016 9371     		strb	r3, [r2, #6]
 245:can_manga.c   ****         data[7] = 0;
 463              		.loc 1 245 0
 464 0018 D371     		strb	r3, [r2, #7]
 246:can_manga.c   **** 
 247:can_manga.c   ****         can_send(data, 0x766);
 465              		.loc 1 247 0
 466 001a 0449     		ldr	r1, .L33
 467              	.LVL16:
 468 001c 6846     		mov	r0, sp
 469              	.LVL17:
 470 001e FFF7FEFF 		bl	can_send
 471              	.LVL18:
 248:can_manga.c   ****         CyDelay(1); // Wtf is this shit?
 472              		.loc 1 248 0
 473 0022 0120     		movs	r0, #1
 474 0024 FFF7FEFF 		bl	CyDelay
 475              	.LVL19:
 249:can_manga.c   **** 
 250:can_manga.c   **** } // can_send_cmd()
 476              		.loc 1 250 0
 477 0028 03B0     		add	sp, sp, #12
 478              		@ sp needed
 479 002a 00BD     		pop	{pc}
 480              	.L34:
 481              		.align	2
 482              	.L33:
 483 002c 66070000 		.word	1894
 484              		.cfi_endproc
 485              	.LFE46:
 486              		.size	can_send_cmd, .-can_send_cmd
 487              		.section	.text.can_send_charge,"ax",%progbits
 488              		.align	2
 489              		.global	can_send_charge
ARM GAS  C:\Users\Melody\AppData\Local\Temp\ccJcybLC.s 			page 14


 490              		.code	16
 491              		.thumb_func
 492              		.type	can_send_charge, %function
 493              	can_send_charge:
 494              	.LFB47:
 251:can_manga.c   **** 
 252:can_manga.c   **** void can_send_charge(uint8_t charge, uint8_t save_soc) {
 495              		.loc 1 252 0
 496              		.cfi_startproc
 497              		@ args = 0, pretend = 0, frame = 8
 498              		@ frame_needed = 0, uses_anonymous_args = 0
 499              	.LVL20:
 500 0000 30B5     		push	{r4, r5, lr}
 501              		.cfi_def_cfa_offset 12
 502              		.cfi_offset 4, -12
 503              		.cfi_offset 5, -8
 504              		.cfi_offset 14, -4
 505 0002 83B0     		sub	sp, sp, #12
 506              		.cfi_def_cfa_offset 24
 507 0004 0500     		movs	r5, r0
 508 0006 0C00     		movs	r4, r1
 253:can_manga.c   ****     uint8_t data[8] = {0};
 509              		.loc 1 253 0
 510 0008 0822     		movs	r2, #8
 511 000a 0021     		movs	r1, #0
 512              	.LVL21:
 513 000c 6846     		mov	r0, sp
 514              	.LVL22:
 515 000e FFF7FEFF 		bl	memset
 516              	.LVL23:
 254:can_manga.c   ****     data[0] = charge;
 517              		.loc 1 254 0
 518 0012 6B46     		mov	r3, sp
 519 0014 1D70     		strb	r5, [r3]
 255:can_manga.c   ****     data[1] = save_soc;
 520              		.loc 1 255 0
 521 0016 5C70     		strb	r4, [r3, #1]
 256:can_manga.c   ****     
 257:can_manga.c   ****     can_send(data, 0x389);
 522              		.loc 1 257 0
 523 0018 0249     		ldr	r1, .L36
 524 001a 6846     		mov	r0, sp
 525 001c FFF7FEFF 		bl	can_send
 526              	.LVL24:
 258:can_manga.c   **** }
 527              		.loc 1 258 0
 528 0020 03B0     		add	sp, sp, #12
 529              		@ sp needed
 530 0022 30BD     		pop	{r4, r5, pc}
 531              	.L37:
 532              		.align	2
 533              	.L36:
 534 0024 89030000 		.word	905
 535              		.cfi_endproc
 536              	.LFE47:
 537              		.size	can_send_charge, .-can_send_charge
 538              		.global	__aeabi_ddiv
ARM GAS  C:\Users\Melody\AppData\Local\Temp\ccJcybLC.s 			page 15


 539              		.section	.text.tempAttenuate,"ax",%progbits
 540              		.align	2
 541              		.global	tempAttenuate
 542              		.code	16
 543              		.thumb_func
 544              		.type	tempAttenuate, %function
 545              	tempAttenuate:
 546              	.LFB48:
 259:can_manga.c   **** 
 260:can_manga.c   **** void tempAttenuate() {
 547              		.loc 1 260 0
 548              		.cfi_startproc
 549              		@ args = 0, pretend = 0, frame = 0
 550              		@ frame_needed = 0, uses_anonymous_args = 0
 551 0000 10B5     		push	{r4, lr}
 552              		.cfi_def_cfa_offset 8
 553              		.cfi_offset 4, -8
 554              		.cfi_offset 14, -4
 261:can_manga.c   ****     int t = PACK_TEMP - 50;
 555              		.loc 1 261 0
 556 0002 134B     		ldr	r3, .L42
 557 0004 1B78     		ldrb	r3, [r3]
 558              	.LVL25:
 262:can_manga.c   ****     if (t < 0) {
 559              		.loc 1 262 0
 560 0006 323B     		subs	r3, r3, #50
 561 0008 05D5     		bpl	.L39
 562              	.LVL26:
 263:can_manga.c   ****         THROTTLE_MULTIPLIER = 1;   
 563              		.loc 1 263 0
 564 000a 0020     		movs	r0, #0
 565 000c 1149     		ldr	r1, .L42+4
 566 000e 124B     		ldr	r3, .L42+8
 567              	.LVL27:
 568 0010 1860     		str	r0, [r3]
 569 0012 5960     		str	r1, [r3, #4]
 570 0014 1AE0     		b	.L38
 571              	.LVL28:
 572              	.L39:
 264:can_manga.c   ****     } else if (t < 8) {
 573              		.loc 1 264 0
 574 0016 072B     		cmp	r3, #7
 575 0018 0CDC     		bgt	.L41
 265:can_manga.c   ****         THROTTLE_MULTIPLIER = THROTTLE_MAP[t] / 100.0; 
 576              		.loc 1 265 0
 577 001a DB00     		lsls	r3, r3, #3
 578              	.LVL29:
 579 001c 0F4A     		ldr	r2, .L42+12
 580 001e D318     		adds	r3, r2, r3
 581 0020 1868     		ldr	r0, [r3]
 582 0022 5968     		ldr	r1, [r3, #4]
 583 0024 0022     		movs	r2, #0
 584 0026 0E4B     		ldr	r3, .L42+16
 585 0028 FFF7FEFF 		bl	__aeabi_ddiv
 586              	.LVL30:
 587 002c 0A4B     		ldr	r3, .L42+8
 588 002e 1860     		str	r0, [r3]
ARM GAS  C:\Users\Melody\AppData\Local\Temp\ccJcybLC.s 			page 16


 589 0030 5960     		str	r1, [r3, #4]
 590 0032 0BE0     		b	.L38
 591              	.LVL31:
 592              	.L41:
 266:can_manga.c   ****     } else if (t >= 8) {
 593              		.loc 1 266 0
 594 0034 072B     		cmp	r3, #7
 595 0036 09DD     		ble	.L38
 267:can_manga.c   ****         THROTTLE_MULTIPLIER = THROTTLE_MAP[7] / 100.0; 
 596              		.loc 1 267 0
 597 0038 084B     		ldr	r3, .L42+12
 598              	.LVL32:
 599 003a 986B     		ldr	r0, [r3, #56]
 600 003c D96B     		ldr	r1, [r3, #60]
 601 003e 0022     		movs	r2, #0
 602 0040 074B     		ldr	r3, .L42+16
 603 0042 FFF7FEFF 		bl	__aeabi_ddiv
 604              	.LVL33:
 605 0046 044B     		ldr	r3, .L42+8
 606 0048 1860     		str	r0, [r3]
 607 004a 5960     		str	r1, [r3, #4]
 608              	.L38:
 268:can_manga.c   ****     }
 269:can_manga.c   **** }...
 609              		.loc 1 269 0
 610              		@ sp needed
 611 004c 10BD     		pop	{r4, pc}
 612              	.L43:
 613 004e C046     		.align	2
 614              	.L42:
 615 0050 00000000 		.word	PACK_TEMP
 616 0054 0000F03F 		.word	1072693248
 617 0058 00000000 		.word	THROTTLE_MULTIPLIER
 618 005c 00000000 		.word	THROTTLE_MAP
 619 0060 00005940 		.word	1079574528
 620              		.cfi_endproc
 621              	.LFE48:
 622              		.size	tempAttenuate, .-tempAttenuate
 623              		.section	.text.can_receive,"ax",%progbits
 624              		.align	2
 625              		.global	can_receive
 626              		.code	16
 627              		.thumb_func
 628              		.type	can_receive, %function
 629              	can_receive:
 630              	.LFB42:
 101:can_manga.c   **** {
 631              		.loc 1 101 0
 632              		.cfi_startproc
 633              		@ args = 0, pretend = 0, frame = 8
 634              		@ frame_needed = 0, uses_anonymous_args = 0
 635              	.LVL34:
 636 0000 F0B5     		push	{r4, r5, r6, r7, lr}
 637              		.cfi_def_cfa_offset 20
 638              		.cfi_offset 4, -20
 639              		.cfi_offset 5, -16
 640              		.cfi_offset 6, -12
ARM GAS  C:\Users\Melody\AppData\Local\Temp\ccJcybLC.s 			page 17


 641              		.cfi_offset 7, -8
 642              		.cfi_offset 14, -4
 643 0002 83B0     		sub	sp, sp, #12
 644              		.cfi_def_cfa_offset 32
 645 0004 0600     		movs	r6, r0
 646 0006 0C00     		movs	r4, r1
 102:can_manga.c   ****     uint8 InterruptState = CyEnterCriticalSection();
 647              		.loc 1 102 0
 648 0008 FFF7FEFF 		bl	CyEnterCriticalSection
 649              	.LVL35:
 650 000c 0500     		movs	r5, r0
 651              	.LVL36:
 107:can_manga.c   ****     for (i = 0; i < 8; i++)
 652              		.loc 1 107 0
 653 000e 0023     		movs	r3, #0
 654 0010 03E0     		b	.L45
 655              	.LVL37:
 656              	.L46:
 108:can_manga.c   ****         data[i] = msg[i];
 657              		.loc 1 108 0 discriminator 3
 658 0012 F25C     		ldrb	r2, [r6, r3]
 659 0014 6946     		mov	r1, sp
 660 0016 CA54     		strb	r2, [r1, r3]
 107:can_manga.c   ****     for (i = 0; i < 8; i++)
 661              		.loc 1 107 0 discriminator 3
 662 0018 0133     		adds	r3, r3, #1
 663              	.LVL38:
 664              	.L45:
 107:can_manga.c   ****     for (i = 0; i < 8; i++)
 665              		.loc 1 107 0 is_stmt 0 discriminator 1
 666 001a 072B     		cmp	r3, #7
 667 001c F9DD     		ble	.L46
 110:can_manga.c   ****     switch (ID) 
 668              		.loc 1 110 0 is_stmt 1
 669 001e E223     		movs	r3, #226
 670              	.LVL39:
 671 0020 9B00     		lsls	r3, r3, #2
 672 0022 9C42     		cmp	r4, r3
 673 0024 66D0     		beq	.L48
 674 0026 10DC     		bgt	.L49
 675 0028 C423     		movs	r3, #196
 676 002a 5B00     		lsls	r3, r3, #1
 677 002c 9C42     		cmp	r4, r3
 678 002e 00D1     		bne	.LCB531
 679 0030 CCE0     		b	.L50	@long jump
 680              	.LCB531:
 681 0032 02DC     		bgt	.L51
 682 0034 A62C     		cmp	r4, #166
 683 0036 2BD0     		beq	.L52
 684 0038 DAE0     		b	.L47
 685              	.L51:
 686 003a 8023     		movs	r3, #128
 687 003c 9B00     		lsls	r3, r3, #2
 688 003e 9C42     		cmp	r4, r3
 689 0040 42D0     		beq	.L53
 690 0042 6E4B     		ldr	r3, .L61
 691 0044 9C42     		cmp	r4, r3
ARM GAS  C:\Users\Melody\AppData\Local\Temp\ccJcybLC.s 			page 18


 692 0046 35D0     		beq	.L54
 693 0048 D2E0     		b	.L47
 694              	.L49:
 695 004a 6D4B     		ldr	r3, .L61+4
 696 004c 9C42     		cmp	r4, r3
 697 004e 0FD0     		beq	.L55
 698 0050 07DC     		bgt	.L56
 699 0052 DE3B     		subs	r3, r3, #222
 700 0054 9C42     		cmp	r4, r3
 701 0056 78D0     		beq	.L57
 702 0058 6A4B     		ldr	r3, .L61+8
 703 005a 9C42     		cmp	r4, r3
 704 005c 00D1     		bne	.LCB561
 705 005e 90E0     		b	.L58	@long jump
 706              	.LCB561:
 707 0060 C6E0     		b	.L47
 708              	.L56:
 709 0062 694B     		ldr	r3, .L61+12
 710 0064 9C42     		cmp	r4, r3
 711 0066 1BD0     		beq	.L59
 712 0068 684B     		ldr	r3, .L61+16
 713 006a 9C42     		cmp	r4, r3
 714 006c 14D0     		beq	.L60
 715 006e BFE0     		b	.L47
 716              	.L55:
 113:can_manga.c   ****             CAPACITOR_VOLT = msg[CAN_0_RX_DATA_BYTE1(ID)];
 717              		.loc 1 113 0
 718 0070 6401     		lsls	r4, r4, #5
 719              	.LVL40:
 720 0072 674B     		ldr	r3, .L61+20
 721 0074 E318     		adds	r3, r4, r3
 722 0076 9B68     		ldr	r3, [r3, #8]
 723 0078 1B0E     		lsrs	r3, r3, #24
 724 007a F35C     		ldrb	r3, [r6, r3]
 725 007c 654A     		ldr	r2, .L61+24
 726 007e 1370     		strb	r3, [r2]
 114:can_manga.c   ****             ABS_MOTOR_RPM = msg[CAN_0_RX_DATA_BYTE5(ID)];
 727              		.loc 1 114 0
 728 0080 654B     		ldr	r3, .L61+28
 729 0082 9C46     		mov	ip, r3
 730 0084 6444     		add	r4, r4, ip
 731 0086 2368     		ldr	r3, [r4]
 732 0088 1B0E     		lsrs	r3, r3, #24
 733 008a F35C     		ldrb	r3, [r6, r3]
 734 008c 5371     		strb	r3, [r2, #5]
 115:can_manga.c   ****             break;
 735              		.loc 1 115 0
 736 008e AFE0     		b	.L47
 737              	.LVL41:
 738              	.L52:
 117:can_manga.c   ****             CURTIS_FAULT_CHECK = 0x1;
 739              		.loc 1 117 0
 740 0090 0122     		movs	r2, #1
 741 0092 604B     		ldr	r3, .L61+24
 742 0094 5A70     		strb	r2, [r3, #1]
 118:can_manga.c   ****             break;
 743              		.loc 1 118 0
ARM GAS  C:\Users\Melody\AppData\Local\Temp\ccJcybLC.s 			page 19


 744 0096 ABE0     		b	.L47
 745              	.L60:
 120:can_manga.c   ****             CURTIS_HEART_BEAT_CHECK = 0x1;
 746              		.loc 1 120 0
 747 0098 0122     		movs	r2, #1
 748 009a 5E4B     		ldr	r3, .L61+24
 749 009c 9A70     		strb	r2, [r3, #2]
 121:can_manga.c   ****             break;
 750              		.loc 1 121 0
 751 009e A7E0     		b	.L47
 752              	.L59:
 123:can_manga.c   ****             ACK_RX = msg[CAN_0_RX_DATA_BYTE1(ID)];
 753              		.loc 1 123 0
 754 00a0 6401     		lsls	r4, r4, #5
 755              	.LVL42:
 756 00a2 5B4B     		ldr	r3, .L61+20
 757 00a4 9C46     		mov	ip, r3
 758 00a6 6444     		add	r4, r4, ip
 759 00a8 A368     		ldr	r3, [r4, #8]
 760 00aa 1B0E     		lsrs	r3, r3, #24
 761 00ac F25C     		ldrb	r2, [r6, r3]
 762 00ae 594B     		ldr	r3, .L61+24
 763 00b0 DA70     		strb	r2, [r3, #3]
 124:can_manga.c   ****             break;
 764              		.loc 1 124 0
 765 00b2 9DE0     		b	.L47
 766              	.LVL43:
 767              	.L54:
 126:can_manga.c   ****             ERROR_TOLERANCE = msg[CAN_0_RX_DATA_BYTE1(ID)];
 768              		.loc 1 126 0
 769 00b4 6401     		lsls	r4, r4, #5
 770              	.LVL44:
 771 00b6 564B     		ldr	r3, .L61+20
 772 00b8 9C46     		mov	ip, r3
 773 00ba 6444     		add	r4, r4, ip
 774 00bc A368     		ldr	r3, [r4, #8]
 775 00be 1B0E     		lsrs	r3, r3, #24
 776 00c0 F25C     		ldrb	r2, [r6, r3]
 777 00c2 544B     		ldr	r3, .L61+24
 778 00c4 1A71     		strb	r2, [r3, #4]
 127:can_manga.c   ****             break;
 779              		.loc 1 127 0
 780 00c6 93E0     		b	.L47
 781              	.LVL45:
 782              	.L53:
 129:can_manga.c   ****             pedalOK = 0x0;
 783              		.loc 1 129 0
 784 00c8 0022     		movs	r2, #0
 785 00ca 544B     		ldr	r3, .L61+32
 786 00cc 1A60     		str	r2, [r3]
 130:can_manga.c   ****             THROTTLE_HIGH = data[CAN_0_RX_DATA_BYTE2(ID)];
 787              		.loc 1 130 0
 788 00ce 6401     		lsls	r4, r4, #5
 789              	.LVL46:
 790 00d0 4F4B     		ldr	r3, .L61+20
 791 00d2 9C46     		mov	ip, r3
 792 00d4 6444     		add	r4, r4, ip
ARM GAS  C:\Users\Melody\AppData\Local\Temp\ccJcybLC.s 			page 20


 793 00d6 A268     		ldr	r2, [r4, #8]
 794 00d8 120C     		lsrs	r2, r2, #16
 795 00da FF21     		movs	r1, #255
 796 00dc 0A40     		ands	r2, r1
 797 00de 6B46     		mov	r3, sp
 798 00e0 9B5C     		ldrb	r3, [r3, r2]
 799 00e2 4C4A     		ldr	r2, .L61+24
 800 00e4 D371     		strb	r3, [r2, #7]
 131:can_manga.c   ****             THROTTLE_LOW = data[CAN_0_RX_DATA_BYTE3(ID)];
 801              		.loc 1 131 0
 802 00e6 A368     		ldr	r3, [r4, #8]
 803 00e8 1B0A     		lsrs	r3, r3, #8
 804 00ea 0B40     		ands	r3, r1
 805 00ec 6946     		mov	r1, sp
 806 00ee CB5C     		ldrb	r3, [r1, r3]
 807 00f0 9371     		strb	r3, [r2, #6]
 132:can_manga.c   ****             break;
 808              		.loc 1 132 0
 809 00f2 7DE0     		b	.L47
 810              	.LVL47:
 811              	.L48:
 134:can_manga.c   ****             VOLT_B4 = data[CAN_0_RX_DATA_BYTE5(ID)];
 812              		.loc 1 134 0
 813 00f4 6401     		lsls	r4, r4, #5
 814              	.LVL48:
 815 00f6 484B     		ldr	r3, .L61+28
 816 00f8 9C46     		mov	ip, r3
 817 00fa 6444     		add	r4, r4, ip
 818 00fc 2368     		ldr	r3, [r4]
 819 00fe 1B0E     		lsrs	r3, r3, #24
 820 0100 6A46     		mov	r2, sp
 821 0102 D35C     		ldrb	r3, [r2, r3]
 822 0104 4648     		ldr	r0, .L61+36
 823 0106 0370     		strb	r3, [r0]
 135:can_manga.c   ****             VOLT_B3 = data[CAN_0_RX_DATA_BYTE6(ID)];
 824              		.loc 1 135 0
 825 0108 2368     		ldr	r3, [r4]
 826 010a 1B0C     		lsrs	r3, r3, #16
 827 010c FF22     		movs	r2, #255
 828 010e 1340     		ands	r3, r2
 829 0110 6946     		mov	r1, sp
 830 0112 CB5C     		ldrb	r3, [r1, r3]
 831 0114 434E     		ldr	r6, .L61+40
 832              	.LVL49:
 833 0116 3370     		strb	r3, [r6]
 136:can_manga.c   ****             VOLT_B2 = data[CAN_0_RX_DATA_BYTE7(ID)];
 834              		.loc 1 136 0
 835 0118 2368     		ldr	r3, [r4]
 836 011a 1B0A     		lsrs	r3, r3, #8
 837 011c 1340     		ands	r3, r2
 838 011e CB5C     		ldrb	r3, [r1, r3]
 839 0120 4149     		ldr	r1, .L61+44
 840 0122 0B70     		strb	r3, [r1]
 137:can_manga.c   ****             VOLT_B1 = data[CAN_0_RX_DATA_BYTE8(ID)];
 841              		.loc 1 137 0
 842 0124 2368     		ldr	r3, [r4]
 843 0126 1340     		ands	r3, r2
ARM GAS  C:\Users\Melody\AppData\Local\Temp\ccJcybLC.s 			page 21


 844 0128 6A46     		mov	r2, sp
 845 012a D35C     		ldrb	r3, [r2, r3]
 846 012c 3F4C     		ldr	r4, .L61+48
 847 012e 2370     		strb	r3, [r4]
 138:can_manga.c   ****             voltage = (VOLT_B4 << 24) | (VOLT_B3 << 16) | (VOLT_B2 << 8) | VOLT_B1; 
 848              		.loc 1 138 0
 849 0130 0378     		ldrb	r3, [r0]
 850 0132 1A06     		lsls	r2, r3, #24
 851 0134 3378     		ldrb	r3, [r6]
 852 0136 1B04     		lsls	r3, r3, #16
 853 0138 1343     		orrs	r3, r2
 854 013a 0A78     		ldrb	r2, [r1]
 855 013c 1202     		lsls	r2, r2, #8
 856 013e 1343     		orrs	r3, r2
 857 0140 2278     		ldrb	r2, [r4]
 858 0142 1343     		orrs	r3, r2
 859 0144 3A4A     		ldr	r2, .L61+52
 860 0146 1360     		str	r3, [r2]
 139:can_manga.c   ****             break;
 861              		.loc 1 139 0
 862 0148 52E0     		b	.L47
 863              	.LVL50:
 864              	.L57:
 141:can_manga.c   ****             ERROR_IDX = data[CAN_0_RX_DATA_BYTE6(ID)];
 865              		.loc 1 141 0
 866 014a 6401     		lsls	r4, r4, #5
 867              	.LVL51:
 868 014c 324B     		ldr	r3, .L61+28
 869 014e 9C46     		mov	ip, r3
 870 0150 6444     		add	r4, r4, ip
 871 0152 2368     		ldr	r3, [r4]
 872 0154 1B0C     		lsrs	r3, r3, #16
 873 0156 FF22     		movs	r2, #255
 874 0158 1340     		ands	r3, r2
 875 015a 6946     		mov	r1, sp
 876 015c C95C     		ldrb	r1, [r1, r3]
 877 015e 354B     		ldr	r3, .L61+56
 878 0160 1960     		str	r1, [r3]
 142:can_manga.c   ****             ERROR_NODE = data[CAN_0_RX_DATA_BYTE7(ID)];
 879              		.loc 1 142 0
 880 0162 2368     		ldr	r3, [r4]
 881 0164 1B0A     		lsrs	r3, r3, #8
 882 0166 1340     		ands	r3, r2
 883 0168 6946     		mov	r1, sp
 884 016a C95C     		ldrb	r1, [r1, r3]
 885 016c 324B     		ldr	r3, .L61+60
 886 016e 1960     		str	r1, [r3]
 143:can_manga.c   ****             PACK_TEMP = data[CAN_0_RX_DATA_BYTE8(ID)];
 887              		.loc 1 143 0
 888 0170 2368     		ldr	r3, [r4]
 889 0172 1340     		ands	r3, r2
 890 0174 6A46     		mov	r2, sp
 891 0176 D25C     		ldrb	r2, [r2, r3]
 892 0178 304B     		ldr	r3, .L61+64
 893 017a 1A70     		strb	r2, [r3]
 144:can_manga.c   ****             tempAttenuate();
 894              		.loc 1 144 0
ARM GAS  C:\Users\Melody\AppData\Local\Temp\ccJcybLC.s 			page 22


 895 017c FFF7FEFF 		bl	tempAttenuate
 896              	.LVL52:
 145:can_manga.c   ****             break;
 897              		.loc 1 145 0
 898 0180 36E0     		b	.L47
 899              	.LVL53:
 900              	.L58:
 147:can_manga.c   ****             current_bytes[0] = data[CAN_0_RX_DATA_BYTE3(ID)];
 901              		.loc 1 147 0
 902 0182 6401     		lsls	r4, r4, #5
 903              	.LVL54:
 904 0184 224B     		ldr	r3, .L61+20
 905 0186 E218     		adds	r2, r4, r3
 906 0188 9368     		ldr	r3, [r2, #8]
 907 018a 1B0A     		lsrs	r3, r3, #8
 908 018c FF27     		movs	r7, #255
 909 018e 3B40     		ands	r3, r7
 910 0190 6946     		mov	r1, sp
 911 0192 C85C     		ldrb	r0, [r1, r3]
 912 0194 1F4E     		ldr	r6, .L61+24
 913              	.LVL55:
 914 0196 3072     		strb	r0, [r6, #8]
 148:can_manga.c   ****             current_bytes[1] = data[CAN_0_RX_DATA_BYTE4(ID)];
 915              		.loc 1 148 0
 916 0198 9368     		ldr	r3, [r2, #8]
 917 019a 3B40     		ands	r3, r7
 918 019c CA5C     		ldrb	r2, [r1, r3]
 919 019e 7272     		strb	r2, [r6, #9]
 149:can_manga.c   ****             current_bytes[2] = data[CAN_0_RX_DATA_BYTE5(ID)];
 920              		.loc 1 149 0
 921 01a0 1D4B     		ldr	r3, .L61+28
 922 01a2 9C46     		mov	ip, r3
 923 01a4 6444     		add	r4, r4, ip
 924 01a6 2368     		ldr	r3, [r4]
 925 01a8 1B0E     		lsrs	r3, r3, #24
 926 01aa CB5C     		ldrb	r3, [r1, r3]
 927 01ac B372     		strb	r3, [r6, #10]
 150:can_manga.c   ****             current_bytes[3] = data[CAN_0_RX_DATA_BYTE6(ID)];
 928              		.loc 1 150 0
 929 01ae 2168     		ldr	r1, [r4]
 930 01b0 090C     		lsrs	r1, r1, #16
 931 01b2 3940     		ands	r1, r7
 932 01b4 6C46     		mov	r4, sp
 933 01b6 615C     		ldrb	r1, [r4, r1]
 934 01b8 F172     		strb	r1, [r6, #11]
 151:can_manga.c   ****             CURRENT = (current_bytes[0] << 24) + (current_bytes[1] << 16) + (current_bytes[2] << 8)
 935              		.loc 1 151 0
 936 01ba 0006     		lsls	r0, r0, #24
 937 01bc 1204     		lsls	r2, r2, #16
 938 01be 8218     		adds	r2, r0, r2
 939 01c0 1B02     		lsls	r3, r3, #8
 940 01c2 D318     		adds	r3, r2, r3
 941 01c4 5B18     		adds	r3, r3, r1
 942 01c6 1E4A     		ldr	r2, .L61+68
 943 01c8 1360     		str	r3, [r2]
 152:can_manga.c   ****             break;
 944              		.loc 1 152 0
ARM GAS  C:\Users\Melody\AppData\Local\Temp\ccJcybLC.s 			page 23


 945 01ca 11E0     		b	.L47
 946              	.LVL56:
 947              	.L50:
 154:can_manga.c   ****             bms_status = (data[CAN_0_RX_DATA_BYTE3(ID)] << 8) | data[CAN_0_RX_DATA_BYTE4(ID)];  
 948              		.loc 1 154 0
 949 01cc 6401     		lsls	r4, r4, #5
 950              	.LVL57:
 951 01ce 104B     		ldr	r3, .L61+20
 952 01d0 9C46     		mov	ip, r3
 953 01d2 6444     		add	r4, r4, ip
 954 01d4 A368     		ldr	r3, [r4, #8]
 955 01d6 1B0A     		lsrs	r3, r3, #8
 956 01d8 FF21     		movs	r1, #255
 957 01da 0B40     		ands	r3, r1
 958 01dc 6A46     		mov	r2, sp
 959 01de D35C     		ldrb	r3, [r2, r3]
 960 01e0 1B02     		lsls	r3, r3, #8
 961 01e2 A268     		ldr	r2, [r4, #8]
 962 01e4 0A40     		ands	r2, r1
 963 01e6 6946     		mov	r1, sp
 964 01e8 8A5C     		ldrb	r2, [r1, r2]
 965 01ea 1343     		orrs	r3, r2
 966 01ec 154A     		ldr	r2, .L61+72
 967 01ee 1380     		strh	r3, [r2]
 968              	.LVL58:
 969              	.L47:
 158:can_manga.c   ****     CyExitCriticalSection(InterruptState);
 970              		.loc 1 158 0
 971 01f0 2800     		movs	r0, r5
 972 01f2 FFF7FEFF 		bl	CyExitCriticalSection
 973              	.LVL59:
 159:can_manga.c   **** }
 974              		.loc 1 159 0
 975 01f6 03B0     		add	sp, sp, #12
 976              		@ sp needed
 977              	.LVL60:
 978 01f8 F0BD     		pop	{r4, r5, r6, r7, pc}
 979              	.L62:
 980 01fa C046     		.align	2
 981              	.L61:
 982 01fc 01020000 		.word	513
 983 0200 66050000 		.word	1382
 984 0204 21050000 		.word	1313
 985 0208 66060000 		.word	1638
 986 020c 26070000 		.word	1830
 987 0210 A0002E40 		.word	1076756640
 988 0214 00000000 		.word	.LANCHOR0
 989 0218 AC002E40 		.word	1076756652
 990 021c 00000000 		.word	pedalOK
 991 0220 00000000 		.word	VOLT_B4
 992 0224 00000000 		.word	VOLT_B3
 993 0228 00000000 		.word	VOLT_B2
 994 022c 00000000 		.word	VOLT_B1
 995 0230 00000000 		.word	voltage
 996 0234 00000000 		.word	ERROR_IDX
 997 0238 00000000 		.word	ERROR_NODE
 998 023c 00000000 		.word	PACK_TEMP
ARM GAS  C:\Users\Melody\AppData\Local\Temp\ccJcybLC.s 			page 24


 999 0240 00000000 		.word	CURRENT
 1000 0244 00000000 		.word	bms_status
 1001              		.cfi_endproc
 1002              	.LFE42:
 1003              		.size	can_receive, .-can_receive
 1004              		.global	current_bytes
 1005              		.comm	VOLT_B4,1,1
 1006              		.comm	VOLT_B3,1,1
 1007              		.comm	VOLT_B2,1,1
 1008              		.comm	VOLT_B1,1,1
 1009              		.global	THROTTLE_LOW
 1010              		.global	THROTTLE_HIGH
 1011              		.global	ABS_MOTOR_RPM
 1012              		.global	ERROR_TOLERANCE
 1013              		.global	ACK_RX
 1014              		.global	CURTIS_HEART_BEAT_CHECK
 1015              		.global	CURTIS_FAULT_CHECK
 1016              		.global	CAPACITOR_VOLT
 1017              		.bss
 1018              		.align	2
 1019              		.set	.LANCHOR0,. + 0
 1020              		.type	CAPACITOR_VOLT, %object
 1021              		.size	CAPACITOR_VOLT, 1
 1022              	CAPACITOR_VOLT:
 1023 0000 00       		.space	1
 1024              		.type	CURTIS_FAULT_CHECK, %object
 1025              		.size	CURTIS_FAULT_CHECK, 1
 1026              	CURTIS_FAULT_CHECK:
 1027 0001 00       		.space	1
 1028              		.type	CURTIS_HEART_BEAT_CHECK, %object
 1029              		.size	CURTIS_HEART_BEAT_CHECK, 1
 1030              	CURTIS_HEART_BEAT_CHECK:
 1031 0002 00       		.space	1
 1032              		.type	ACK_RX, %object
 1033              		.size	ACK_RX, 1
 1034              	ACK_RX:
 1035 0003 00       		.space	1
 1036              		.type	ERROR_TOLERANCE, %object
 1037              		.size	ERROR_TOLERANCE, 1
 1038              	ERROR_TOLERANCE:
 1039 0004 00       		.space	1
 1040              		.type	ABS_MOTOR_RPM, %object
 1041              		.size	ABS_MOTOR_RPM, 1
 1042              	ABS_MOTOR_RPM:
 1043 0005 00       		.space	1
 1044              		.type	THROTTLE_LOW, %object
 1045              		.size	THROTTLE_LOW, 1
 1046              	THROTTLE_LOW:
 1047 0006 00       		.space	1
 1048              		.type	THROTTLE_HIGH, %object
 1049              		.size	THROTTLE_HIGH, 1
 1050              	THROTTLE_HIGH:
 1051 0007 00       		.space	1
 1052              		.type	current_bytes, %object
 1053              		.size	current_bytes, 4
 1054              	current_bytes:
 1055 0008 00000000 		.space	4
ARM GAS  C:\Users\Melody\AppData\Local\Temp\ccJcybLC.s 			page 25


 1056              		.text
 1057              	.Letext0:
 1058              		.file 2 "c:\\program files (x86)\\cypress\\psoc creator\\4.4\\psoc creator\\import\\gnu\\arm\\5.4.
 1059              		.file 3 "c:\\program files (x86)\\cypress\\psoc creator\\4.4\\psoc creator\\import\\gnu\\arm\\5.4.
 1060              		.file 4 "Generated_Source\\PSoC4/cytypes.h"
 1061              		.file 5 "Generated_Source\\PSoC4/CAN_0.h"
 1062              		.file 6 "data.h"
 1063              		.file 7 "Generated_Source\\PSoC4/CyLib.h"