ARM GAS  C:\Users\leoja\AppData\Local\Temp\cce9YLC8.s 			page 1


   1              		.syntax unified
   2              		.cpu cortex-m0
   3              		.fpu softvfp
   4              		.eabi_attribute 20, 1
   5              		.eabi_attribute 21, 1
   6              		.eabi_attribute 23, 3
   7              		.eabi_attribute 24, 1
   8              		.eabi_attribute 25, 1
   9              		.eabi_attribute 26, 1
  10              		.eabi_attribute 30, 1
  11              		.eabi_attribute 34, 0
  12              		.eabi_attribute 18, 4
  13              		.thumb
  14              		.syntax unified
  15              		.file	"cyfitter_cfg.c"
  16              		.text
  17              	.Ltext0:
  18              		.cfi_sections	.debug_frame
  19              		.section	.text.cfg_write_bytes32,"ax",%progbits
  20              		.align	2
  21              		.code	16
  22              		.thumb_func
  23              		.type	cfg_write_bytes32, %function
  24              	cfg_write_bytes32:
  25              	.LFB4:
  26              		.file 1 "Generated_Source\\PSoC4\\cyfitter_cfg.c"
   1:Generated_Source\PSoC4/cyfitter_cfg.c **** 
   2:Generated_Source\PSoC4/cyfitter_cfg.c **** /*******************************************************************************
   3:Generated_Source\PSoC4/cyfitter_cfg.c **** * File Name: cyfitter_cfg.c
   4:Generated_Source\PSoC4/cyfitter_cfg.c **** * 
   5:Generated_Source\PSoC4/cyfitter_cfg.c **** * PSoC Creator  4.4
   6:Generated_Source\PSoC4/cyfitter_cfg.c **** *
   7:Generated_Source\PSoC4/cyfitter_cfg.c **** * Description:
   8:Generated_Source\PSoC4/cyfitter_cfg.c **** * This file contains device initialization code.
   9:Generated_Source\PSoC4/cyfitter_cfg.c **** * Except for the user defined sections in CyClockStartupError(), this file should not be modified.
  10:Generated_Source\PSoC4/cyfitter_cfg.c **** * This file is automatically generated by PSoC Creator.
  11:Generated_Source\PSoC4/cyfitter_cfg.c **** *
  12:Generated_Source\PSoC4/cyfitter_cfg.c **** ********************************************************************************
  13:Generated_Source\PSoC4/cyfitter_cfg.c **** * Copyright (c) 2007-2020 Cypress Semiconductor.  All rights reserved.
  14:Generated_Source\PSoC4/cyfitter_cfg.c **** * You may use this file only in accordance with the license, terms, conditions, 
  15:Generated_Source\PSoC4/cyfitter_cfg.c **** * disclaimers, and limitations in the end user license agreement accompanying 
  16:Generated_Source\PSoC4/cyfitter_cfg.c **** * the software package with which this file was provided.
  17:Generated_Source\PSoC4/cyfitter_cfg.c **** ********************************************************************************/
  18:Generated_Source\PSoC4/cyfitter_cfg.c **** 
  19:Generated_Source\PSoC4/cyfitter_cfg.c **** #include <string.h>
  20:Generated_Source\PSoC4/cyfitter_cfg.c **** #include "cytypes.h"
  21:Generated_Source\PSoC4/cyfitter_cfg.c **** #include "cydevice_trm.h"
  22:Generated_Source\PSoC4/cyfitter_cfg.c **** #include "cyfitter.h"
  23:Generated_Source\PSoC4/cyfitter_cfg.c **** #include "CyLib.h"
  24:Generated_Source\PSoC4/cyfitter_cfg.c **** #include "CyLFClk.h"
  25:Generated_Source\PSoC4/cyfitter_cfg.c **** #include "cyfitter_cfg.h"
  26:Generated_Source\PSoC4/cyfitter_cfg.c **** #include "cyapicallbacks.h"
  27:Generated_Source\PSoC4/cyfitter_cfg.c **** 
  28:Generated_Source\PSoC4/cyfitter_cfg.c **** 
  29:Generated_Source\PSoC4/cyfitter_cfg.c **** #if defined(__GNUC__) || defined(__ARMCC_VERSION)
  30:Generated_Source\PSoC4/cyfitter_cfg.c ****     #define CYPACKED 
  31:Generated_Source\PSoC4/cyfitter_cfg.c ****     #define CYPACKED_ATTR __attribute__ ((packed))
ARM GAS  C:\Users\leoja\AppData\Local\Temp\cce9YLC8.s 			page 2


  32:Generated_Source\PSoC4/cyfitter_cfg.c ****     #define CYALIGNED __attribute__ ((aligned))
  33:Generated_Source\PSoC4/cyfitter_cfg.c ****     #define CY_CFG_UNUSED __attribute__ ((unused))
  34:Generated_Source\PSoC4/cyfitter_cfg.c ****     #ifndef CY_CFG_SECTION
  35:Generated_Source\PSoC4/cyfitter_cfg.c ****         #define CY_CFG_SECTION __attribute__ ((section(".psocinit")))
  36:Generated_Source\PSoC4/cyfitter_cfg.c ****     #endif
  37:Generated_Source\PSoC4/cyfitter_cfg.c ****     
  38:Generated_Source\PSoC4/cyfitter_cfg.c ****     #if defined(__ARMCC_VERSION)
  39:Generated_Source\PSoC4/cyfitter_cfg.c ****         #define CY_CFG_MEMORY_BARRIER() __memory_changed()
  40:Generated_Source\PSoC4/cyfitter_cfg.c ****     #else
  41:Generated_Source\PSoC4/cyfitter_cfg.c ****         #define CY_CFG_MEMORY_BARRIER() __sync_synchronize()
  42:Generated_Source\PSoC4/cyfitter_cfg.c ****     #endif
  43:Generated_Source\PSoC4/cyfitter_cfg.c ****     
  44:Generated_Source\PSoC4/cyfitter_cfg.c **** #elif defined(__ICCARM__)
  45:Generated_Source\PSoC4/cyfitter_cfg.c ****     #include <intrinsics.h>
  46:Generated_Source\PSoC4/cyfitter_cfg.c **** 
  47:Generated_Source\PSoC4/cyfitter_cfg.c ****     #define CYPACKED __packed
  48:Generated_Source\PSoC4/cyfitter_cfg.c ****     #define CYPACKED_ATTR 
  49:Generated_Source\PSoC4/cyfitter_cfg.c ****     #define CYALIGNED _Pragma("data_alignment=4")
  50:Generated_Source\PSoC4/cyfitter_cfg.c ****     #define CY_CFG_UNUSED _Pragma("diag_suppress=Pe177")
  51:Generated_Source\PSoC4/cyfitter_cfg.c ****     #define CY_CFG_SECTION _Pragma("location=\".psocinit\"")
  52:Generated_Source\PSoC4/cyfitter_cfg.c ****     
  53:Generated_Source\PSoC4/cyfitter_cfg.c ****     #define CY_CFG_MEMORY_BARRIER() __DMB()
  54:Generated_Source\PSoC4/cyfitter_cfg.c ****     
  55:Generated_Source\PSoC4/cyfitter_cfg.c **** #else
  56:Generated_Source\PSoC4/cyfitter_cfg.c ****     #error Unsupported toolchain
  57:Generated_Source\PSoC4/cyfitter_cfg.c **** #endif
  58:Generated_Source\PSoC4/cyfitter_cfg.c **** 
  59:Generated_Source\PSoC4/cyfitter_cfg.c **** #ifndef CYCODE
  60:Generated_Source\PSoC4/cyfitter_cfg.c ****     #define CYCODE
  61:Generated_Source\PSoC4/cyfitter_cfg.c **** #endif
  62:Generated_Source\PSoC4/cyfitter_cfg.c **** #ifndef CYDATA
  63:Generated_Source\PSoC4/cyfitter_cfg.c ****     #define CYDATA
  64:Generated_Source\PSoC4/cyfitter_cfg.c **** #endif
  65:Generated_Source\PSoC4/cyfitter_cfg.c **** #ifndef CYFAR
  66:Generated_Source\PSoC4/cyfitter_cfg.c ****     #define CYFAR
  67:Generated_Source\PSoC4/cyfitter_cfg.c **** #endif
  68:Generated_Source\PSoC4/cyfitter_cfg.c **** #ifndef CYXDATA
  69:Generated_Source\PSoC4/cyfitter_cfg.c ****     #define CYXDATA
  70:Generated_Source\PSoC4/cyfitter_cfg.c **** #endif
  71:Generated_Source\PSoC4/cyfitter_cfg.c **** 
  72:Generated_Source\PSoC4/cyfitter_cfg.c **** 
  73:Generated_Source\PSoC4/cyfitter_cfg.c **** CY_CFG_UNUSED
  74:Generated_Source\PSoC4/cyfitter_cfg.c **** static void CYMEMZERO(void *s, size_t n);
  75:Generated_Source\PSoC4/cyfitter_cfg.c **** CY_CFG_UNUSED
  76:Generated_Source\PSoC4/cyfitter_cfg.c **** static void CYMEMZERO(void *s, size_t n)
  77:Generated_Source\PSoC4/cyfitter_cfg.c **** {
  78:Generated_Source\PSoC4/cyfitter_cfg.c **** 	(void)memset(s, 0, n);
  79:Generated_Source\PSoC4/cyfitter_cfg.c **** }
  80:Generated_Source\PSoC4/cyfitter_cfg.c **** CY_CFG_UNUSED
  81:Generated_Source\PSoC4/cyfitter_cfg.c **** static void CYCONFIGCPY(void *dest, const void *src, size_t n);
  82:Generated_Source\PSoC4/cyfitter_cfg.c **** CY_CFG_UNUSED
  83:Generated_Source\PSoC4/cyfitter_cfg.c **** static void CYCONFIGCPY(void *dest, const void *src, size_t n)
  84:Generated_Source\PSoC4/cyfitter_cfg.c **** {
  85:Generated_Source\PSoC4/cyfitter_cfg.c **** 	(void)memcpy(dest, src, n);
  86:Generated_Source\PSoC4/cyfitter_cfg.c **** }
  87:Generated_Source\PSoC4/cyfitter_cfg.c **** CY_CFG_UNUSED
  88:Generated_Source\PSoC4/cyfitter_cfg.c **** static void CYCONFIGCPYCODE(void *dest, const void *src, size_t n);
ARM GAS  C:\Users\leoja\AppData\Local\Temp\cce9YLC8.s 			page 3


  89:Generated_Source\PSoC4/cyfitter_cfg.c **** CY_CFG_UNUSED
  90:Generated_Source\PSoC4/cyfitter_cfg.c **** static void CYCONFIGCPYCODE(void *dest, const void *src, size_t n)
  91:Generated_Source\PSoC4/cyfitter_cfg.c **** {
  92:Generated_Source\PSoC4/cyfitter_cfg.c **** 	(void)memcpy(dest, src, n);
  93:Generated_Source\PSoC4/cyfitter_cfg.c **** }
  94:Generated_Source\PSoC4/cyfitter_cfg.c **** 
  95:Generated_Source\PSoC4/cyfitter_cfg.c **** 
  96:Generated_Source\PSoC4/cyfitter_cfg.c **** 
  97:Generated_Source\PSoC4/cyfitter_cfg.c **** 
  98:Generated_Source\PSoC4/cyfitter_cfg.c **** /* Clock startup error codes                                                   */
  99:Generated_Source\PSoC4/cyfitter_cfg.c **** #define CYCLOCKSTART_NO_ERROR    0u
 100:Generated_Source\PSoC4/cyfitter_cfg.c **** #define CYCLOCKSTART_XTAL_ERROR  1u
 101:Generated_Source\PSoC4/cyfitter_cfg.c **** #define CYCLOCKSTART_32KHZ_ERROR 2u
 102:Generated_Source\PSoC4/cyfitter_cfg.c **** #define CYCLOCKSTART_PLL_ERROR   3u
 103:Generated_Source\PSoC4/cyfitter_cfg.c **** #define CYCLOCKSTART_FLL_ERROR   4u
 104:Generated_Source\PSoC4/cyfitter_cfg.c **** #define CYCLOCKSTART_WCO_ERROR   5u
 105:Generated_Source\PSoC4/cyfitter_cfg.c **** 
 106:Generated_Source\PSoC4/cyfitter_cfg.c **** 
 107:Generated_Source\PSoC4/cyfitter_cfg.c **** #ifdef CY_NEED_CYCLOCKSTARTUPERROR
 108:Generated_Source\PSoC4/cyfitter_cfg.c **** /*******************************************************************************
 109:Generated_Source\PSoC4/cyfitter_cfg.c **** * Function Name: CyClockStartupError
 110:Generated_Source\PSoC4/cyfitter_cfg.c **** ********************************************************************************
 111:Generated_Source\PSoC4/cyfitter_cfg.c **** * Summary:
 112:Generated_Source\PSoC4/cyfitter_cfg.c **** *  If an error is encountered during clock configuration (crystal startup error,
 113:Generated_Source\PSoC4/cyfitter_cfg.c **** *  PLL lock error, etc.), the system will end up here.  Unless reimplemented by
 114:Generated_Source\PSoC4/cyfitter_cfg.c **** *  the customer, this function will stop in an infinite loop.
 115:Generated_Source\PSoC4/cyfitter_cfg.c **** *
 116:Generated_Source\PSoC4/cyfitter_cfg.c **** * Parameters:
 117:Generated_Source\PSoC4/cyfitter_cfg.c **** *   void
 118:Generated_Source\PSoC4/cyfitter_cfg.c **** *
 119:Generated_Source\PSoC4/cyfitter_cfg.c **** * Return:
 120:Generated_Source\PSoC4/cyfitter_cfg.c **** *   void
 121:Generated_Source\PSoC4/cyfitter_cfg.c **** *
 122:Generated_Source\PSoC4/cyfitter_cfg.c **** *******************************************************************************/
 123:Generated_Source\PSoC4/cyfitter_cfg.c **** CY_CFG_UNUSED
 124:Generated_Source\PSoC4/cyfitter_cfg.c **** static void CyClockStartupError(uint8 errorCode);
 125:Generated_Source\PSoC4/cyfitter_cfg.c **** CY_CFG_UNUSED
 126:Generated_Source\PSoC4/cyfitter_cfg.c **** static void CyClockStartupError(uint8 errorCode)
 127:Generated_Source\PSoC4/cyfitter_cfg.c **** {
 128:Generated_Source\PSoC4/cyfitter_cfg.c ****     /* To remove the compiler warning if errorCode not used.                */
 129:Generated_Source\PSoC4/cyfitter_cfg.c ****     errorCode = errorCode;
 130:Generated_Source\PSoC4/cyfitter_cfg.c **** 
 131:Generated_Source\PSoC4/cyfitter_cfg.c ****     /* If we have a clock startup error (bad MHz crystal, PLL lock, etc.),  */
 132:Generated_Source\PSoC4/cyfitter_cfg.c ****     /* we will end up here to allow the customer to implement something to  */
 133:Generated_Source\PSoC4/cyfitter_cfg.c ****     /* deal with the clock condition.                                       */
 134:Generated_Source\PSoC4/cyfitter_cfg.c **** 
 135:Generated_Source\PSoC4/cyfitter_cfg.c **** #ifdef CY_CFG_CLOCK_STARTUP_ERROR_CALLBACK
 136:Generated_Source\PSoC4/cyfitter_cfg.c ****     CY_CFG_Clock_Startup_ErrorCallback();
 137:Generated_Source\PSoC4/cyfitter_cfg.c **** #else
 138:Generated_Source\PSoC4/cyfitter_cfg.c ****     /*  If not using CY_CFG_CLOCK_STARTUP_ERROR_CALLBACK, place your clock startup code here. */
 139:Generated_Source\PSoC4/cyfitter_cfg.c ****     /* `#START CyClockStartupError` */
 140:Generated_Source\PSoC4/cyfitter_cfg.c **** 
 141:Generated_Source\PSoC4/cyfitter_cfg.c **** 
 142:Generated_Source\PSoC4/cyfitter_cfg.c **** 
 143:Generated_Source\PSoC4/cyfitter_cfg.c ****     /* `#END` */
 144:Generated_Source\PSoC4/cyfitter_cfg.c **** 
 145:Generated_Source\PSoC4/cyfitter_cfg.c ****     while(1) {}
ARM GAS  C:\Users\leoja\AppData\Local\Temp\cce9YLC8.s 			page 4


 146:Generated_Source\PSoC4/cyfitter_cfg.c **** #endif /* CY_CFG_CLOCK_STARTUP_ERROR_CALLBACK */
 147:Generated_Source\PSoC4/cyfitter_cfg.c **** }
 148:Generated_Source\PSoC4/cyfitter_cfg.c **** #endif
 149:Generated_Source\PSoC4/cyfitter_cfg.c **** 
 150:Generated_Source\PSoC4/cyfitter_cfg.c **** #define CY_CFG_BASE_ADDR_COUNT 9u
 151:Generated_Source\PSoC4/cyfitter_cfg.c **** CYPACKED typedef struct
 152:Generated_Source\PSoC4/cyfitter_cfg.c **** {
 153:Generated_Source\PSoC4/cyfitter_cfg.c **** 	uint8 offset;
 154:Generated_Source\PSoC4/cyfitter_cfg.c **** 	uint8 value;
 155:Generated_Source\PSoC4/cyfitter_cfg.c **** } CYPACKED_ATTR cy_cfg_addrvalue_t;
 156:Generated_Source\PSoC4/cyfitter_cfg.c **** 
 157:Generated_Source\PSoC4/cyfitter_cfg.c **** 
 158:Generated_Source\PSoC4/cyfitter_cfg.c **** 
 159:Generated_Source\PSoC4/cyfitter_cfg.c **** /*******************************************************************************
 160:Generated_Source\PSoC4/cyfitter_cfg.c **** * Function Name: cfg_write_bytes32
 161:Generated_Source\PSoC4/cyfitter_cfg.c **** ********************************************************************************
 162:Generated_Source\PSoC4/cyfitter_cfg.c **** * Summary:
 163:Generated_Source\PSoC4/cyfitter_cfg.c **** *  This function is used for setting up the chip configuration areas that
 164:Generated_Source\PSoC4/cyfitter_cfg.c **** *  contain relatively sparse data.
 165:Generated_Source\PSoC4/cyfitter_cfg.c **** *
 166:Generated_Source\PSoC4/cyfitter_cfg.c **** * Parameters:
 167:Generated_Source\PSoC4/cyfitter_cfg.c **** *   void
 168:Generated_Source\PSoC4/cyfitter_cfg.c **** *
 169:Generated_Source\PSoC4/cyfitter_cfg.c **** * Return:
 170:Generated_Source\PSoC4/cyfitter_cfg.c **** *   void
 171:Generated_Source\PSoC4/cyfitter_cfg.c **** *
 172:Generated_Source\PSoC4/cyfitter_cfg.c **** *******************************************************************************/
 173:Generated_Source\PSoC4/cyfitter_cfg.c **** static void cfg_write_bytes32(const uint32 addr_table[], const cy_cfg_addrvalue_t data_table[]);
 174:Generated_Source\PSoC4/cyfitter_cfg.c **** static void cfg_write_bytes32(const uint32 addr_table[], const cy_cfg_addrvalue_t data_table[])
 175:Generated_Source\PSoC4/cyfitter_cfg.c **** {
  27              		.loc 1 175 0
  28              		.cfi_startproc
  29              		@ args = 0, pretend = 0, frame = 0
  30              		@ frame_needed = 0, uses_anonymous_args = 0
  31              	.LVL0:
  32 0000 F0B5     		push	{r4, r5, r6, r7, lr}
  33              		.cfi_def_cfa_offset 20
  34              		.cfi_offset 4, -20
  35              		.cfi_offset 5, -16
  36              		.cfi_offset 6, -12
  37              		.cfi_offset 7, -8
  38              		.cfi_offset 14, -4
  39              	.LVL1:
 176:Generated_Source\PSoC4/cyfitter_cfg.c **** 	/* For 32-bit little-endian architectures */
 177:Generated_Source\PSoC4/cyfitter_cfg.c **** 	uint32 i, j = 0u;
  40              		.loc 1 177 0
  41 0002 0025     		movs	r5, #0
 178:Generated_Source\PSoC4/cyfitter_cfg.c **** 	for (i = 0u; i < CY_CFG_BASE_ADDR_COUNT; i++)
  42              		.loc 1 178 0
  43 0004 0027     		movs	r7, #0
  44 0006 11E0     		b	.L2
  45              	.LVL2:
  46              	.L5:
  47              	.LBB2:
 179:Generated_Source\PSoC4/cyfitter_cfg.c **** 	{
 180:Generated_Source\PSoC4/cyfitter_cfg.c **** 		uint32 baseAddr = addr_table[i];
  48              		.loc 1 180 0
ARM GAS  C:\Users\leoja\AppData\Local\Temp\cce9YLC8.s 			page 5


  49 0008 BB00     		lsls	r3, r7, #2
  50 000a C658     		ldr	r6, [r0, r3]
  51              	.LVL3:
 181:Generated_Source\PSoC4/cyfitter_cfg.c **** 		uint8 count = (uint8)baseAddr;
  52              		.loc 1 181 0
  53 000c F3B2     		uxtb	r3, r6
  54              	.LVL4:
 182:Generated_Source\PSoC4/cyfitter_cfg.c **** 		baseAddr &= 0xFFFFFF00u;
  55              		.loc 1 182 0
  56 000e FF22     		movs	r2, #255
  57 0010 9643     		bics	r6, r2
  58              	.LVL5:
 183:Generated_Source\PSoC4/cyfitter_cfg.c **** 		while (count != 0u)
  59              		.loc 1 183 0
  60 0012 08E0     		b	.L3
  61              	.L4:
 184:Generated_Source\PSoC4/cyfitter_cfg.c **** 		{
 185:Generated_Source\PSoC4/cyfitter_cfg.c **** 			CY_SET_REG8((void *)(baseAddr + data_table[j].offset), data_table[j].value);
  62              		.loc 1 185 0
  63 0014 6A00     		lsls	r2, r5, #1
  64 0016 8A18     		adds	r2, r1, r2
  65 0018 1478     		ldrb	r4, [r2]
  66 001a A419     		adds	r4, r4, r6
  67 001c 5278     		ldrb	r2, [r2, #1]
  68 001e 2270     		strb	r2, [r4]
 186:Generated_Source\PSoC4/cyfitter_cfg.c **** 			j++;
  69              		.loc 1 186 0
  70 0020 0135     		adds	r5, r5, #1
  71              	.LVL6:
 187:Generated_Source\PSoC4/cyfitter_cfg.c **** 			count--;
  72              		.loc 1 187 0
  73 0022 013B     		subs	r3, r3, #1
  74              	.LVL7:
  75 0024 DBB2     		uxtb	r3, r3
  76              	.LVL8:
  77              	.L3:
 183:Generated_Source\PSoC4/cyfitter_cfg.c **** 		{
  78              		.loc 1 183 0
  79 0026 002B     		cmp	r3, #0
  80 0028 F4D1     		bne	.L4
  81              	.LBE2:
 178:Generated_Source\PSoC4/cyfitter_cfg.c **** 	{
  82              		.loc 1 178 0 discriminator 2
  83 002a 0137     		adds	r7, r7, #1
  84              	.LVL9:
  85              	.L2:
 178:Generated_Source\PSoC4/cyfitter_cfg.c **** 	{
  86              		.loc 1 178 0 is_stmt 0 discriminator 1
  87 002c 082F     		cmp	r7, #8
  88 002e EBD9     		bls	.L5
 188:Generated_Source\PSoC4/cyfitter_cfg.c **** 		}
 189:Generated_Source\PSoC4/cyfitter_cfg.c **** 	}
 190:Generated_Source\PSoC4/cyfitter_cfg.c **** }
  89              		.loc 1 190 0 is_stmt 1
  90              		@ sp needed
  91              	.LVL10:
  92              	.LVL11:
ARM GAS  C:\Users\leoja\AppData\Local\Temp\cce9YLC8.s 			page 6


  93 0030 F0BD     		pop	{r4, r5, r6, r7, pc}
  94              		.cfi_endproc
  95              	.LFE4:
  96              		.size	cfg_write_bytes32, .-cfg_write_bytes32
  97 0032 C046     		.section	.text.CYMEMZERO,"ax",%progbits
  98              		.align	2
  99              		.code	16
 100              		.thumb_func
 101              		.type	CYMEMZERO, %function
 102              	CYMEMZERO:
 103              	.LFB1:
  77:Generated_Source\PSoC4/cyfitter_cfg.c **** 	(void)memset(s, 0, n);
 104              		.loc 1 77 0
 105              		.cfi_startproc
 106              		@ args = 0, pretend = 0, frame = 0
 107              		@ frame_needed = 0, uses_anonymous_args = 0
 108              	.LVL12:
 109 0000 10B5     		push	{r4, lr}
 110              		.cfi_def_cfa_offset 8
 111              		.cfi_offset 4, -8
 112              		.cfi_offset 14, -4
 113 0002 0A00     		movs	r2, r1
  78:Generated_Source\PSoC4/cyfitter_cfg.c **** }
 114              		.loc 1 78 0
 115 0004 0021     		movs	r1, #0
 116              	.LVL13:
 117 0006 FFF7FEFF 		bl	memset
 118              	.LVL14:
  79:Generated_Source\PSoC4/cyfitter_cfg.c **** CY_CFG_UNUSED
 119              		.loc 1 79 0
 120              		@ sp needed
 121 000a 10BD     		pop	{r4, pc}
 122              		.cfi_endproc
 123              	.LFE1:
 124              		.size	CYMEMZERO, .-CYMEMZERO
 125              		.section	.text.CYCONFIGCPYCODE,"ax",%progbits
 126              		.align	2
 127              		.code	16
 128              		.thumb_func
 129              		.type	CYCONFIGCPYCODE, %function
 130              	CYCONFIGCPYCODE:
 131              	.LFB3:
  91:Generated_Source\PSoC4/cyfitter_cfg.c **** 	(void)memcpy(dest, src, n);
 132              		.loc 1 91 0
 133              		.cfi_startproc
 134              		@ args = 0, pretend = 0, frame = 0
 135              		@ frame_needed = 0, uses_anonymous_args = 0
 136              	.LVL15:
 137 0000 10B5     		push	{r4, lr}
 138              		.cfi_def_cfa_offset 8
 139              		.cfi_offset 4, -8
 140              		.cfi_offset 14, -4
  92:Generated_Source\PSoC4/cyfitter_cfg.c **** }
 141              		.loc 1 92 0
 142 0002 FFF7FEFF 		bl	memcpy
 143              	.LVL16:
  93:Generated_Source\PSoC4/cyfitter_cfg.c **** 
ARM GAS  C:\Users\leoja\AppData\Local\Temp\cce9YLC8.s 			page 7


 144              		.loc 1 93 0
 145              		@ sp needed
 146 0006 10BD     		pop	{r4, pc}
 147              		.cfi_endproc
 148              	.LFE3:
 149              		.size	CYCONFIGCPYCODE, .-CYCONFIGCPYCODE
 150              		.section	.psocinit,"ax",%progbits
 151              		.align	2
 152              		.code	16
 153              		.thumb_func
 154              		.type	ClockSetup, %function
 155              	ClockSetup:
 156              	.LFB5:
 191:Generated_Source\PSoC4/cyfitter_cfg.c **** 
 192:Generated_Source\PSoC4/cyfitter_cfg.c **** 
 193:Generated_Source\PSoC4/cyfitter_cfg.c **** /*******************************************************************************
 194:Generated_Source\PSoC4/cyfitter_cfg.c **** * Function Name: ClockSetup
 195:Generated_Source\PSoC4/cyfitter_cfg.c **** ********************************************************************************
 196:Generated_Source\PSoC4/cyfitter_cfg.c **** *
 197:Generated_Source\PSoC4/cyfitter_cfg.c **** * Summary:
 198:Generated_Source\PSoC4/cyfitter_cfg.c **** *   Performs the initialization of all of the clocks in the device based on the
 199:Generated_Source\PSoC4/cyfitter_cfg.c **** *   settings in the Clock tab of the DWR.  This includes enabling the requested
 200:Generated_Source\PSoC4/cyfitter_cfg.c **** *   clocks and setting the necessary dividers to produce the desired frequency. 
 201:Generated_Source\PSoC4/cyfitter_cfg.c **** *
 202:Generated_Source\PSoC4/cyfitter_cfg.c **** * Parameters:
 203:Generated_Source\PSoC4/cyfitter_cfg.c **** *   void
 204:Generated_Source\PSoC4/cyfitter_cfg.c **** *
 205:Generated_Source\PSoC4/cyfitter_cfg.c **** * Return:
 206:Generated_Source\PSoC4/cyfitter_cfg.c **** *   void
 207:Generated_Source\PSoC4/cyfitter_cfg.c **** *
 208:Generated_Source\PSoC4/cyfitter_cfg.c **** *******************************************************************************/
 209:Generated_Source\PSoC4/cyfitter_cfg.c **** static void ClockSetup(void);
 210:Generated_Source\PSoC4/cyfitter_cfg.c **** CY_CFG_SECTION
 211:Generated_Source\PSoC4/cyfitter_cfg.c **** static void ClockSetup(void)
 212:Generated_Source\PSoC4/cyfitter_cfg.c **** {
 157              		.loc 1 212 0
 158              		.cfi_startproc
 159              		@ args = 0, pretend = 0, frame = 0
 160              		@ frame_needed = 0, uses_anonymous_args = 0
 161 0000 10B5     		push	{r4, lr}
 162              		.cfi_def_cfa_offset 8
 163              		.cfi_offset 4, -8
 164              		.cfi_offset 14, -4
 213:Generated_Source\PSoC4/cyfitter_cfg.c **** 
 214:Generated_Source\PSoC4/cyfitter_cfg.c **** 	/* Set Flash Cycles based on max possible frequency in case a glitch occurs during ClockSetup(). *
 215:Generated_Source\PSoC4/cyfitter_cfg.c **** 	CY_SET_REG32((void CYXDATA *)(CYREG_CPUSS_FLASH_CTL), (0x0012u));
 165              		.loc 1 215 0
 166 0002 1222     		movs	r2, #18
 167 0004 1A4B     		ldr	r3, .L9
 168 0006 1A60     		str	r2, [r3]
 216:Generated_Source\PSoC4/cyfitter_cfg.c **** 	/* Setup and trim IMO based on desired frequency. */
 217:Generated_Source\PSoC4/cyfitter_cfg.c **** 	CySysClkWriteImoFreq(48u);
 169              		.loc 1 217 0
 170 0008 3020     		movs	r0, #48
 171 000a FFF7FEFF 		bl	CySysClkWriteImoFreq
 172              	.LVL17:
 218:Generated_Source\PSoC4/cyfitter_cfg.c **** 	/* CYDEV_CLK_ILO_CONFIG Starting address: CYDEV_CLK_ILO_CONFIG */
ARM GAS  C:\Users\leoja\AppData\Local\Temp\cce9YLC8.s 			page 8


 219:Generated_Source\PSoC4/cyfitter_cfg.c **** 	CY_SET_REG32((void *)(CYREG_CLK_ILO_CONFIG), 0x80000006u);
 173              		.loc 1 219 0
 174 000e 194A     		ldr	r2, .L9+4
 175 0010 194B     		ldr	r3, .L9+8
 176 0012 1A60     		str	r2, [r3]
 220:Generated_Source\PSoC4/cyfitter_cfg.c **** 
 221:Generated_Source\PSoC4/cyfitter_cfg.c **** 
 222:Generated_Source\PSoC4/cyfitter_cfg.c **** 	/* Setup phase aligned clocks */
 223:Generated_Source\PSoC4/cyfitter_cfg.c **** 	CY_SET_REG32((void *)CYREG_PERI_DIV_16_CTL1, 0x00000000u);
 177              		.loc 1 223 0
 178 0014 0024     		movs	r4, #0
 179 0016 194B     		ldr	r3, .L9+12
 180 0018 1C60     		str	r4, [r3]
 224:Generated_Source\PSoC4/cyfitter_cfg.c **** 	CY_SET_REG32((void *)CYREG_PERI_DIV_CMD, 0x8000FF41u);
 181              		.loc 1 224 0
 182 001a 194B     		ldr	r3, .L9+16
 183 001c 194A     		ldr	r2, .L9+20
 184 001e 1A60     		str	r2, [r3]
 225:Generated_Source\PSoC4/cyfitter_cfg.c **** 	CY_SET_REG32((void *)CYREG_PERI_DIV_16_CTL0, 0x00000000u);
 185              		.loc 1 225 0
 186 0020 194A     		ldr	r2, .L9+24
 187 0022 1460     		str	r4, [r2]
 226:Generated_Source\PSoC4/cyfitter_cfg.c **** 	CY_SET_REG32((void *)CYREG_PERI_DIV_CMD, 0x8000FF40u);
 188              		.loc 1 226 0
 189 0024 194A     		ldr	r2, .L9+28
 190 0026 1A60     		str	r2, [r3]
 227:Generated_Source\PSoC4/cyfitter_cfg.c **** 	CY_SET_REG32((void *)CYREG_PERI_DIV_16_CTL2, 0x00000300u);
 191              		.loc 1 227 0
 192 0028 C021     		movs	r1, #192
 193 002a 8900     		lsls	r1, r1, #2
 194 002c 184A     		ldr	r2, .L9+32
 195 002e 1160     		str	r1, [r2]
 228:Generated_Source\PSoC4/cyfitter_cfg.c **** 	CY_SET_REG32((void *)CYREG_PERI_DIV_CMD, 0x8000FF42u);
 196              		.loc 1 228 0
 197 0030 184A     		ldr	r2, .L9+36
 198 0032 1A60     		str	r2, [r3]
 229:Generated_Source\PSoC4/cyfitter_cfg.c **** 	CY_SET_REG32((void *)CYREG_PERI_DIV_16_CTL3, 0x00000800u);
 199              		.loc 1 229 0
 200 0034 8021     		movs	r1, #128
 201 0036 0901     		lsls	r1, r1, #4
 202 0038 174A     		ldr	r2, .L9+40
 203 003a 1160     		str	r1, [r2]
 230:Generated_Source\PSoC4/cyfitter_cfg.c **** 	CY_SET_REG32((void *)CYREG_PERI_DIV_CMD, 0x8000FF43u);
 204              		.loc 1 230 0
 205 003c 174A     		ldr	r2, .L9+44
 206 003e 1A60     		str	r2, [r3]
 231:Generated_Source\PSoC4/cyfitter_cfg.c **** 
 232:Generated_Source\PSoC4/cyfitter_cfg.c **** 	/* CYDEV_CLK_IMO_CONFIG Starting address: CYDEV_CLK_IMO_CONFIG */
 233:Generated_Source\PSoC4/cyfitter_cfg.c **** 	CY_SET_REG32((void *)(CYREG_CLK_IMO_CONFIG), 0x82000000u);
 207              		.loc 1 233 0
 208 0040 8222     		movs	r2, #130
 209 0042 1206     		lsls	r2, r2, #24
 210 0044 164B     		ldr	r3, .L9+48
 211 0046 1A60     		str	r2, [r3]
 234:Generated_Source\PSoC4/cyfitter_cfg.c **** 
 235:Generated_Source\PSoC4/cyfitter_cfg.c **** 	/* CYDEV_CLK_SELECT Starting address: CYDEV_CLK_SELECT */
 236:Generated_Source\PSoC4/cyfitter_cfg.c **** 	CY_SET_REG32((void *)(CYREG_CLK_SELECT), 0x00040000u);
ARM GAS  C:\Users\leoja\AppData\Local\Temp\cce9YLC8.s 			page 9


 212              		.loc 1 236 0
 213 0048 8022     		movs	r2, #128
 214 004a D202     		lsls	r2, r2, #11
 215 004c 154B     		ldr	r3, .L9+52
 216 004e 1A60     		str	r2, [r3]
 237:Generated_Source\PSoC4/cyfitter_cfg.c **** 
 238:Generated_Source\PSoC4/cyfitter_cfg.c **** 	/* CYDEV_PERI_PCLK_CTL19 Starting address: CYDEV_PERI_PCLK_CTL19 */
 239:Generated_Source\PSoC4/cyfitter_cfg.c **** 	CY_SET_REG32((void *)(CYREG_PERI_PCLK_CTL19), 0x00000042u);
 217              		.loc 1 239 0
 218 0050 4222     		movs	r2, #66
 219 0052 154B     		ldr	r3, .L9+56
 220 0054 1A60     		str	r2, [r3]
 240:Generated_Source\PSoC4/cyfitter_cfg.c **** 
 241:Generated_Source\PSoC4/cyfitter_cfg.c **** 	/* CYDEV_PERI_PCLK_CTL10 Starting address: CYDEV_PERI_PCLK_CTL10 */
 242:Generated_Source\PSoC4/cyfitter_cfg.c **** 	CY_SET_REG32((void *)(CYREG_PERI_PCLK_CTL10), 0x00000043u);
 221              		.loc 1 242 0
 222 0056 0132     		adds	r2, r2, #1
 223 0058 144B     		ldr	r3, .L9+60
 224 005a 1A60     		str	r2, [r3]
 243:Generated_Source\PSoC4/cyfitter_cfg.c **** 
 244:Generated_Source\PSoC4/cyfitter_cfg.c **** 	(void)CyIntSetVector(7u, &CySysWdtIsr);
 225              		.loc 1 244 0
 226 005c 1449     		ldr	r1, .L9+64
 227 005e 0720     		movs	r0, #7
 228 0060 FFF7FEFF 		bl	CyIntSetVector
 229              	.LVL18:
 245:Generated_Source\PSoC4/cyfitter_cfg.c **** 	CyIntEnable(7u);
 230              		.loc 1 245 0
 231 0064 0720     		movs	r0, #7
 232 0066 FFF7FEFF 		bl	CyIntEnable
 233              	.LVL19:
 246:Generated_Source\PSoC4/cyfitter_cfg.c **** 	CY_SET_REG32((void *)(CYREG_WDT_CONFIG), 0x00000000u);
 234              		.loc 1 246 0
 235 006a 124B     		ldr	r3, .L9+68
 236 006c 1C60     		str	r4, [r3]
 247:Generated_Source\PSoC4/cyfitter_cfg.c **** }
 237              		.loc 1 247 0
 238              		@ sp needed
 239 006e 10BD     		pop	{r4, pc}
 240              	.L10:
 241              		.align	2
 242              	.L9:
 243 0070 30001040 		.word	1074790448
 244 0074 06000080 		.word	-2147483642
 245 0078 04010B40 		.word	1074462980
 246 007c 04030140 		.word	1073808132
 247 0080 00000140 		.word	1073807360
 248 0084 41FF0080 		.word	-2147418303
 249 0088 00030140 		.word	1073808128
 250 008c 40FF0080 		.word	-2147418304
 251 0090 08030140 		.word	1073808136
 252 0094 42FF0080 		.word	-2147418302
 253 0098 0C030140 		.word	1073808140
 254 009c 43FF0080 		.word	-2147418301
 255 00a0 08010B40 		.word	1074462984
 256 00a4 00010B40 		.word	1074462976
 257 00a8 4C010140 		.word	1073807692
ARM GAS  C:\Users\leoja\AppData\Local\Temp\cce9YLC8.s 			page 10


 258 00ac 28010140 		.word	1073807656
 259 00b0 00000000 		.word	CySysWdtIsr
 260 00b4 0C020B40 		.word	1074463244
 261              		.cfi_endproc
 262              	.LFE5:
 263              		.size	ClockSetup, .-ClockSetup
 264              		.section	.text.SetAnalogRoutingPumps,"ax",%progbits
 265              		.align	2
 266              		.global	SetAnalogRoutingPumps
 267              		.code	16
 268              		.thumb_func
 269              		.type	SetAnalogRoutingPumps, %function
 270              	SetAnalogRoutingPumps:
 271              	.LFB7:
 248:Generated_Source\PSoC4/cyfitter_cfg.c **** 
 249:Generated_Source\PSoC4/cyfitter_cfg.c **** 
 250:Generated_Source\PSoC4/cyfitter_cfg.c **** /* Analog API Functions */
 251:Generated_Source\PSoC4/cyfitter_cfg.c **** 
 252:Generated_Source\PSoC4/cyfitter_cfg.c **** 
 253:Generated_Source\PSoC4/cyfitter_cfg.c **** /*******************************************************************************
 254:Generated_Source\PSoC4/cyfitter_cfg.c **** * Function Name: AnalogSetDefault
 255:Generated_Source\PSoC4/cyfitter_cfg.c **** ********************************************************************************
 256:Generated_Source\PSoC4/cyfitter_cfg.c **** *
 257:Generated_Source\PSoC4/cyfitter_cfg.c **** * Summary:
 258:Generated_Source\PSoC4/cyfitter_cfg.c **** *  Sets up the analog portions of the chip to default values based on chip
 259:Generated_Source\PSoC4/cyfitter_cfg.c **** *  configuration options from the project.
 260:Generated_Source\PSoC4/cyfitter_cfg.c **** *
 261:Generated_Source\PSoC4/cyfitter_cfg.c **** * Parameters:
 262:Generated_Source\PSoC4/cyfitter_cfg.c **** *  void
 263:Generated_Source\PSoC4/cyfitter_cfg.c **** *
 264:Generated_Source\PSoC4/cyfitter_cfg.c **** * Return:
 265:Generated_Source\PSoC4/cyfitter_cfg.c **** *  void
 266:Generated_Source\PSoC4/cyfitter_cfg.c **** *
 267:Generated_Source\PSoC4/cyfitter_cfg.c **** *******************************************************************************/
 268:Generated_Source\PSoC4/cyfitter_cfg.c **** static void AnalogSetDefault(void);
 269:Generated_Source\PSoC4/cyfitter_cfg.c **** static void AnalogSetDefault(void)
 270:Generated_Source\PSoC4/cyfitter_cfg.c **** {
 271:Generated_Source\PSoC4/cyfitter_cfg.c **** 	CY_SET_XTND_REG32((void CYFAR *)CYREG_CTBM0_DFT_CTRL, 0x00000003u);
 272:Generated_Source\PSoC4/cyfitter_cfg.c **** 	CY_SET_XTND_REG32((void CYFAR *)CYREG_CTBM1_DFT_CTRL, 0x00000003u);
 273:Generated_Source\PSoC4/cyfitter_cfg.c **** 	CY_SET_XTND_REG32((void CYFAR *)CYREG_SAR_CTRL, 0x80000000u);
 274:Generated_Source\PSoC4/cyfitter_cfg.c **** 	CY_SET_XTND_REG32((void CYFAR *)CYREG_SAR_MUX_SWITCH0, 0x000000C0u);
 275:Generated_Source\PSoC4/cyfitter_cfg.c **** 	CY_SET_XTND_REG32((void CYFAR *)CYREG_SAR_MUX_SWITCH_HW_CTRL, 0x000000C0u);
 276:Generated_Source\PSoC4/cyfitter_cfg.c **** 	CY_SET_XTND_REG32((void CYFAR *)CYREG_PASS_DSAB_DSAB_CTRL, 0x00000000u);
 277:Generated_Source\PSoC4/cyfitter_cfg.c **** 	SetAnalogRoutingPumps(1);
 278:Generated_Source\PSoC4/cyfitter_cfg.c **** }
 279:Generated_Source\PSoC4/cyfitter_cfg.c **** 
 280:Generated_Source\PSoC4/cyfitter_cfg.c **** 
 281:Generated_Source\PSoC4/cyfitter_cfg.c **** /*******************************************************************************
 282:Generated_Source\PSoC4/cyfitter_cfg.c **** * Function Name: SetAnalogRoutingPumps
 283:Generated_Source\PSoC4/cyfitter_cfg.c **** ********************************************************************************
 284:Generated_Source\PSoC4/cyfitter_cfg.c **** *
 285:Generated_Source\PSoC4/cyfitter_cfg.c **** * Summary:
 286:Generated_Source\PSoC4/cyfitter_cfg.c **** * Enables or disables the analog pumps feeding analog routing switches.
 287:Generated_Source\PSoC4/cyfitter_cfg.c **** * Intended to be called at startup, based on the Vdda system configuration;
 288:Generated_Source\PSoC4/cyfitter_cfg.c **** * may be called during operation when the user informs us that the Vdda voltage crossed the pump th
 289:Generated_Source\PSoC4/cyfitter_cfg.c **** *
 290:Generated_Source\PSoC4/cyfitter_cfg.c **** * Parameters:
ARM GAS  C:\Users\leoja\AppData\Local\Temp\cce9YLC8.s 			page 11


 291:Generated_Source\PSoC4/cyfitter_cfg.c **** *  enabled - 1 to enable the pumps, 0 to disable the pumps
 292:Generated_Source\PSoC4/cyfitter_cfg.c **** *
 293:Generated_Source\PSoC4/cyfitter_cfg.c **** * Return:
 294:Generated_Source\PSoC4/cyfitter_cfg.c **** *  void
 295:Generated_Source\PSoC4/cyfitter_cfg.c **** *
 296:Generated_Source\PSoC4/cyfitter_cfg.c **** *******************************************************************************/
 297:Generated_Source\PSoC4/cyfitter_cfg.c **** void SetAnalogRoutingPumps(uint8 enabled)
 298:Generated_Source\PSoC4/cyfitter_cfg.c **** {
 272              		.loc 1 298 0
 273              		.cfi_startproc
 274              		@ args = 0, pretend = 0, frame = 0
 275              		@ frame_needed = 0, uses_anonymous_args = 0
 276              		@ link register save eliminated.
 277              	.LVL20:
 299:Generated_Source\PSoC4/cyfitter_cfg.c **** 	uint32 regValue = CY_GET_XTND_REG32((void *)(CYREG_SAR_PUMP_CTRL));
 278              		.loc 1 299 0
 279 0000 064B     		ldr	r3, .L14
 280 0002 1B68     		ldr	r3, [r3]
 281              	.LVL21:
 300:Generated_Source\PSoC4/cyfitter_cfg.c **** 	if (enabled != 0u)
 282              		.loc 1 300 0
 283 0004 0028     		cmp	r0, #0
 284 0006 03D0     		beq	.L12
 301:Generated_Source\PSoC4/cyfitter_cfg.c **** 	{
 302:Generated_Source\PSoC4/cyfitter_cfg.c **** 		regValue |= 0x80000000u;
 285              		.loc 1 302 0
 286 0008 8022     		movs	r2, #128
 287 000a 1206     		lsls	r2, r2, #24
 288 000c 1343     		orrs	r3, r2
 289              	.LVL22:
 290 000e 01E0     		b	.L13
 291              	.L12:
 303:Generated_Source\PSoC4/cyfitter_cfg.c **** 	}
 304:Generated_Source\PSoC4/cyfitter_cfg.c **** 	else
 305:Generated_Source\PSoC4/cyfitter_cfg.c **** 	{
 306:Generated_Source\PSoC4/cyfitter_cfg.c **** 		regValue &= ~0x80000000u;
 292              		.loc 1 306 0
 293 0010 5B00     		lsls	r3, r3, #1
 294              	.LVL23:
 295 0012 5B08     		lsrs	r3, r3, #1
 296              	.LVL24:
 297              	.L13:
 307:Generated_Source\PSoC4/cyfitter_cfg.c **** 	}
 308:Generated_Source\PSoC4/cyfitter_cfg.c **** 	CY_SET_XTND_REG32((void *)(CYREG_SAR_PUMP_CTRL), regValue);
 298              		.loc 1 308 0
 299 0014 014A     		ldr	r2, .L14
 300 0016 1360     		str	r3, [r2]
 309:Generated_Source\PSoC4/cyfitter_cfg.c **** }
 301              		.loc 1 309 0
 302              		@ sp needed
 303 0018 7047     		bx	lr
 304              	.L15:
 305 001a C046     		.align	2
 306              	.L14:
 307 001c 80033A40 		.word	1077543808
 308              		.cfi_endproc
 309              	.LFE7:
ARM GAS  C:\Users\leoja\AppData\Local\Temp\cce9YLC8.s 			page 12


 310              		.size	SetAnalogRoutingPumps, .-SetAnalogRoutingPumps
 311              		.section	.text.AnalogSetDefault,"ax",%progbits
 312              		.align	2
 313              		.code	16
 314              		.thumb_func
 315              		.type	AnalogSetDefault, %function
 316              	AnalogSetDefault:
 317              	.LFB6:
 270:Generated_Source\PSoC4/cyfitter_cfg.c **** 	CY_SET_XTND_REG32((void CYFAR *)CYREG_CTBM0_DFT_CTRL, 0x00000003u);
 318              		.loc 1 270 0
 319              		.cfi_startproc
 320              		@ args = 0, pretend = 0, frame = 0
 321              		@ frame_needed = 0, uses_anonymous_args = 0
 322 0000 10B5     		push	{r4, lr}
 323              		.cfi_def_cfa_offset 8
 324              		.cfi_offset 4, -8
 325              		.cfi_offset 14, -4
 271:Generated_Source\PSoC4/cyfitter_cfg.c **** 	CY_SET_XTND_REG32((void CYFAR *)CYREG_CTBM1_DFT_CTRL, 0x00000003u);
 326              		.loc 1 271 0
 327 0002 0323     		movs	r3, #3
 328 0004 094A     		ldr	r2, .L17
 329 0006 1360     		str	r3, [r2]
 272:Generated_Source\PSoC4/cyfitter_cfg.c **** 	CY_SET_XTND_REG32((void CYFAR *)CYREG_SAR_CTRL, 0x80000000u);
 330              		.loc 1 272 0
 331 0008 094A     		ldr	r2, .L17+4
 332 000a 1360     		str	r3, [r2]
 273:Generated_Source\PSoC4/cyfitter_cfg.c **** 	CY_SET_XTND_REG32((void CYFAR *)CYREG_SAR_MUX_SWITCH0, 0x000000C0u);
 333              		.loc 1 273 0
 334 000c 8022     		movs	r2, #128
 335 000e 1206     		lsls	r2, r2, #24
 336 0010 084B     		ldr	r3, .L17+8
 337 0012 1A60     		str	r2, [r3]
 274:Generated_Source\PSoC4/cyfitter_cfg.c **** 	CY_SET_XTND_REG32((void CYFAR *)CYREG_SAR_MUX_SWITCH_HW_CTRL, 0x000000C0u);
 338              		.loc 1 274 0
 339 0014 C023     		movs	r3, #192
 340 0016 084A     		ldr	r2, .L17+12
 341 0018 1360     		str	r3, [r2]
 275:Generated_Source\PSoC4/cyfitter_cfg.c **** 	CY_SET_XTND_REG32((void CYFAR *)CYREG_PASS_DSAB_DSAB_CTRL, 0x00000000u);
 342              		.loc 1 275 0
 343 001a 084A     		ldr	r2, .L17+16
 344 001c 1360     		str	r3, [r2]
 276:Generated_Source\PSoC4/cyfitter_cfg.c **** 	SetAnalogRoutingPumps(1);
 345              		.loc 1 276 0
 346 001e 0022     		movs	r2, #0
 347 0020 074B     		ldr	r3, .L17+20
 348 0022 1A60     		str	r2, [r3]
 277:Generated_Source\PSoC4/cyfitter_cfg.c **** }
 349              		.loc 1 277 0
 350 0024 0120     		movs	r0, #1
 351 0026 FFF7FEFF 		bl	SetAnalogRoutingPumps
 352              	.LVL25:
 278:Generated_Source\PSoC4/cyfitter_cfg.c **** 
 353              		.loc 1 278 0
 354              		@ sp needed
 355 002a 10BD     		pop	{r4, pc}
 356              	.L18:
 357              		.align	2
ARM GAS  C:\Users\leoja\AppData\Local\Temp\cce9YLC8.s 			page 13


 358              	.L17:
 359 002c 30003040 		.word	1076887600
 360 0030 30003140 		.word	1076953136
 361 0034 00003A40 		.word	1077542912
 362 0038 00033A40 		.word	1077543680
 363 003c 40033A40 		.word	1077543744
 364 0040 000E3F40 		.word	1077874176
 365              		.cfi_endproc
 366              	.LFE6:
 367              		.size	AnalogSetDefault, .-AnalogSetDefault
 368              		.section	.psocinit
 369              		.align	2
 370              		.global	cyfitter_cfg
 371              		.code	16
 372              		.thumb_func
 373              		.type	cyfitter_cfg, %function
 374              	cyfitter_cfg:
 375              	.LFB8:
 310:Generated_Source\PSoC4/cyfitter_cfg.c **** 
 311:Generated_Source\PSoC4/cyfitter_cfg.c **** 
 312:Generated_Source\PSoC4/cyfitter_cfg.c **** 
 313:Generated_Source\PSoC4/cyfitter_cfg.c **** 
 314:Generated_Source\PSoC4/cyfitter_cfg.c **** /*******************************************************************************
 315:Generated_Source\PSoC4/cyfitter_cfg.c **** * Function Name: cyfitter_cfg
 316:Generated_Source\PSoC4/cyfitter_cfg.c **** ********************************************************************************
 317:Generated_Source\PSoC4/cyfitter_cfg.c **** * Summary:
 318:Generated_Source\PSoC4/cyfitter_cfg.c **** *  This function is called by the start-up code for the selected device. It
 319:Generated_Source\PSoC4/cyfitter_cfg.c **** *  performs all of the necessary device configuration based on the design
 320:Generated_Source\PSoC4/cyfitter_cfg.c **** *  settings.  This includes settings from the Design Wide Resources (DWR) such
 321:Generated_Source\PSoC4/cyfitter_cfg.c **** *  as Clocks and Pins as well as any component configuration that is necessary.
 322:Generated_Source\PSoC4/cyfitter_cfg.c **** *
 323:Generated_Source\PSoC4/cyfitter_cfg.c **** * Parameters:
 324:Generated_Source\PSoC4/cyfitter_cfg.c **** *   void
 325:Generated_Source\PSoC4/cyfitter_cfg.c **** *
 326:Generated_Source\PSoC4/cyfitter_cfg.c **** * Return:
 327:Generated_Source\PSoC4/cyfitter_cfg.c **** *   void
 328:Generated_Source\PSoC4/cyfitter_cfg.c **** *
 329:Generated_Source\PSoC4/cyfitter_cfg.c **** *******************************************************************************/
 330:Generated_Source\PSoC4/cyfitter_cfg.c **** CY_CFG_SECTION
 331:Generated_Source\PSoC4/cyfitter_cfg.c **** void cyfitter_cfg(void)
 332:Generated_Source\PSoC4/cyfitter_cfg.c **** {
 376              		.loc 1 332 0
 377              		.cfi_startproc
 378              		@ args = 0, pretend = 0, frame = 0
 379              		@ frame_needed = 0, uses_anonymous_args = 0
 380 00b8 70B5     		push	{r4, r5, r6, lr}
 381              		.cfi_def_cfa_offset 16
 382              		.cfi_offset 4, -16
 383              		.cfi_offset 5, -12
 384              		.cfi_offset 6, -8
 385              		.cfi_offset 14, -4
 333:Generated_Source\PSoC4/cyfitter_cfg.c **** 	/* Disable interrupts by default. Let user enable if/when they want. */
 334:Generated_Source\PSoC4/cyfitter_cfg.c **** 	CyGlobalIntDisable;
 386              		.loc 1 334 0
 387              		.syntax divided
 388              	@ 334 "Generated_Source\PSoC4\cyfitter_cfg.c" 1
 389 00ba 72B6     		CPSID   i
ARM GAS  C:\Users\leoja\AppData\Local\Temp\cce9YLC8.s 			page 14


 390              	@ 0 "" 2
 391              	.LVL26:
 392              		.thumb
 393              		.syntax unified
 394              	.LBB3:
 335:Generated_Source\PSoC4/cyfitter_cfg.c **** 
 336:Generated_Source\PSoC4/cyfitter_cfg.c **** 	{
 337:Generated_Source\PSoC4/cyfitter_cfg.c **** 		static const uint32 CYCODE cy_cfg_addr_table[] = {
 338:Generated_Source\PSoC4/cyfitter_cfg.c **** 			0x400F0003u, /* Base address: 0x400F0000 Count: 3 */
 339:Generated_Source\PSoC4/cyfitter_cfg.c **** 			0x400F3004u, /* Base address: 0x400F3000 Count: 4 */
 340:Generated_Source\PSoC4/cyfitter_cfg.c **** 			0x400F312Fu, /* Base address: 0x400F3100 Count: 47 */
 341:Generated_Source\PSoC4/cyfitter_cfg.c **** 			0x400F3245u, /* Base address: 0x400F3200 Count: 69 */
 342:Generated_Source\PSoC4/cyfitter_cfg.c **** 			0x400F334Fu, /* Base address: 0x400F3300 Count: 79 */
 343:Generated_Source\PSoC4/cyfitter_cfg.c **** 			0x400F400Bu, /* Base address: 0x400F4000 Count: 11 */
 344:Generated_Source\PSoC4/cyfitter_cfg.c **** 			0x400F412Au, /* Base address: 0x400F4100 Count: 42 */
 345:Generated_Source\PSoC4/cyfitter_cfg.c **** 			0x400F4304u, /* Base address: 0x400F4300 Count: 4 */
 346:Generated_Source\PSoC4/cyfitter_cfg.c **** 			0x400F6002u, /* Base address: 0x400F6000 Count: 2 */
 347:Generated_Source\PSoC4/cyfitter_cfg.c **** 		};
 348:Generated_Source\PSoC4/cyfitter_cfg.c **** 
 349:Generated_Source\PSoC4/cyfitter_cfg.c **** 		static const cy_cfg_addrvalue_t CYCODE cy_cfg_data_table[] = {
 350:Generated_Source\PSoC4/cyfitter_cfg.c **** 			{0x21u, 0x08u},
 351:Generated_Source\PSoC4/cyfitter_cfg.c **** 			{0x31u, 0x09u},
 352:Generated_Source\PSoC4/cyfitter_cfg.c **** 			{0x83u, 0x0Fu},
 353:Generated_Source\PSoC4/cyfitter_cfg.c **** 			{0x1Bu, 0x01u},
 354:Generated_Source\PSoC4/cyfitter_cfg.c **** 			{0x35u, 0x01u},
 355:Generated_Source\PSoC4/cyfitter_cfg.c **** 			{0x59u, 0x04u},
 356:Generated_Source\PSoC4/cyfitter_cfg.c **** 			{0x5Fu, 0x01u},
 357:Generated_Source\PSoC4/cyfitter_cfg.c **** 			{0x05u, 0x14u},
 358:Generated_Source\PSoC4/cyfitter_cfg.c **** 			{0x06u, 0x42u},
 359:Generated_Source\PSoC4/cyfitter_cfg.c **** 			{0x0Du, 0x80u},
 360:Generated_Source\PSoC4/cyfitter_cfg.c **** 			{0x15u, 0x11u},
 361:Generated_Source\PSoC4/cyfitter_cfg.c **** 			{0x17u, 0x08u},
 362:Generated_Source\PSoC4/cyfitter_cfg.c **** 			{0x1Cu, 0x81u},
 363:Generated_Source\PSoC4/cyfitter_cfg.c **** 			{0x1Du, 0x34u},
 364:Generated_Source\PSoC4/cyfitter_cfg.c **** 			{0x1Fu, 0x18u},
 365:Generated_Source\PSoC4/cyfitter_cfg.c **** 			{0x20u, 0x04u},
 366:Generated_Source\PSoC4/cyfitter_cfg.c **** 			{0x24u, 0x10u},
 367:Generated_Source\PSoC4/cyfitter_cfg.c **** 			{0x25u, 0x41u},
 368:Generated_Source\PSoC4/cyfitter_cfg.c **** 			{0x26u, 0x08u},
 369:Generated_Source\PSoC4/cyfitter_cfg.c **** 			{0x27u, 0x08u},
 370:Generated_Source\PSoC4/cyfitter_cfg.c **** 			{0x2Cu, 0x80u},
 371:Generated_Source\PSoC4/cyfitter_cfg.c **** 			{0x2Fu, 0x18u},
 372:Generated_Source\PSoC4/cyfitter_cfg.c **** 			{0x30u, 0x20u},
 373:Generated_Source\PSoC4/cyfitter_cfg.c **** 			{0x35u, 0x40u},
 374:Generated_Source\PSoC4/cyfitter_cfg.c **** 			{0x37u, 0x09u},
 375:Generated_Source\PSoC4/cyfitter_cfg.c **** 			{0x3Du, 0x90u},
 376:Generated_Source\PSoC4/cyfitter_cfg.c **** 			{0x3Eu, 0x02u},
 377:Generated_Source\PSoC4/cyfitter_cfg.c **** 			{0x45u, 0xA0u},
 378:Generated_Source\PSoC4/cyfitter_cfg.c **** 			{0x47u, 0x08u},
 379:Generated_Source\PSoC4/cyfitter_cfg.c **** 			{0x4Du, 0x05u},
 380:Generated_Source\PSoC4/cyfitter_cfg.c **** 			{0x54u, 0x90u},
 381:Generated_Source\PSoC4/cyfitter_cfg.c **** 			{0x56u, 0x4Au},
 382:Generated_Source\PSoC4/cyfitter_cfg.c **** 			{0x5Cu, 0x50u},
 383:Generated_Source\PSoC4/cyfitter_cfg.c **** 			{0x6Cu, 0x10u},
 384:Generated_Source\PSoC4/cyfitter_cfg.c **** 			{0x6Du, 0x10u},
 385:Generated_Source\PSoC4/cyfitter_cfg.c **** 			{0x6Eu, 0x02u},
 386:Generated_Source\PSoC4/cyfitter_cfg.c **** 			{0x6Fu, 0x01u},
ARM GAS  C:\Users\leoja\AppData\Local\Temp\cce9YLC8.s 			page 15


 387:Generated_Source\PSoC4/cyfitter_cfg.c **** 			{0x75u, 0x21u},
 388:Generated_Source\PSoC4/cyfitter_cfg.c **** 			{0x76u, 0x20u},
 389:Generated_Source\PSoC4/cyfitter_cfg.c **** 			{0x77u, 0x02u},
 390:Generated_Source\PSoC4/cyfitter_cfg.c **** 			{0x81u, 0x01u},
 391:Generated_Source\PSoC4/cyfitter_cfg.c **** 			{0x88u, 0x40u},
 392:Generated_Source\PSoC4/cyfitter_cfg.c **** 			{0x8Bu, 0x02u},
 393:Generated_Source\PSoC4/cyfitter_cfg.c **** 			{0x8Cu, 0x10u},
 394:Generated_Source\PSoC4/cyfitter_cfg.c **** 			{0xC0u, 0xF0u},
 395:Generated_Source\PSoC4/cyfitter_cfg.c **** 			{0xC2u, 0x80u},
 396:Generated_Source\PSoC4/cyfitter_cfg.c **** 			{0xC4u, 0x70u},
 397:Generated_Source\PSoC4/cyfitter_cfg.c **** 			{0xCAu, 0xE0u},
 398:Generated_Source\PSoC4/cyfitter_cfg.c **** 			{0xCCu, 0xD4u},
 399:Generated_Source\PSoC4/cyfitter_cfg.c **** 			{0xCEu, 0xB0u},
 400:Generated_Source\PSoC4/cyfitter_cfg.c **** 			{0xD0u, 0x70u},
 401:Generated_Source\PSoC4/cyfitter_cfg.c **** 			{0xD6u, 0x30u},
 402:Generated_Source\PSoC4/cyfitter_cfg.c **** 			{0xE2u, 0x20u},
 403:Generated_Source\PSoC4/cyfitter_cfg.c **** 			{0xE6u, 0x60u},
 404:Generated_Source\PSoC4/cyfitter_cfg.c **** 			{0x04u, 0x3Du},
 405:Generated_Source\PSoC4/cyfitter_cfg.c **** 			{0x07u, 0x01u},
 406:Generated_Source\PSoC4/cyfitter_cfg.c **** 			{0x08u, 0x07u},
 407:Generated_Source\PSoC4/cyfitter_cfg.c **** 			{0x0Au, 0x08u},
 408:Generated_Source\PSoC4/cyfitter_cfg.c **** 			{0x0Bu, 0x01u},
 409:Generated_Source\PSoC4/cyfitter_cfg.c **** 			{0x16u, 0x40u},
 410:Generated_Source\PSoC4/cyfitter_cfg.c **** 			{0x18u, 0x08u},
 411:Generated_Source\PSoC4/cyfitter_cfg.c **** 			{0x1Au, 0x36u},
 412:Generated_Source\PSoC4/cyfitter_cfg.c **** 			{0x1Cu, 0x11u},
 413:Generated_Source\PSoC4/cyfitter_cfg.c **** 			{0x1Eu, 0x2Au},
 414:Generated_Source\PSoC4/cyfitter_cfg.c **** 			{0x22u, 0x10u},
 415:Generated_Source\PSoC4/cyfitter_cfg.c **** 			{0x26u, 0x40u},
 416:Generated_Source\PSoC4/cyfitter_cfg.c **** 			{0x28u, 0x03u},
 417:Generated_Source\PSoC4/cyfitter_cfg.c **** 			{0x2Cu, 0x20u},
 418:Generated_Source\PSoC4/cyfitter_cfg.c **** 			{0x31u, 0x01u},
 419:Generated_Source\PSoC4/cyfitter_cfg.c **** 			{0x32u, 0x04u},
 420:Generated_Source\PSoC4/cyfitter_cfg.c **** 			{0x34u, 0x40u},
 421:Generated_Source\PSoC4/cyfitter_cfg.c **** 			{0x36u, 0x3Fu},
 422:Generated_Source\PSoC4/cyfitter_cfg.c **** 			{0x39u, 0x02u},
 423:Generated_Source\PSoC4/cyfitter_cfg.c **** 			{0x3Eu, 0x10u},
 424:Generated_Source\PSoC4/cyfitter_cfg.c **** 			{0x3Fu, 0x01u},
 425:Generated_Source\PSoC4/cyfitter_cfg.c **** 			{0x54u, 0xFFu},
 426:Generated_Source\PSoC4/cyfitter_cfg.c **** 			{0x58u, 0x04u},
 427:Generated_Source\PSoC4/cyfitter_cfg.c **** 			{0x59u, 0x04u},
 428:Generated_Source\PSoC4/cyfitter_cfg.c **** 			{0x5Bu, 0x0Du},
 429:Generated_Source\PSoC4/cyfitter_cfg.c **** 			{0x5Cu, 0x09u},
 430:Generated_Source\PSoC4/cyfitter_cfg.c **** 			{0x5Du, 0x90u},
 431:Generated_Source\PSoC4/cyfitter_cfg.c **** 			{0x5Fu, 0x01u},
 432:Generated_Source\PSoC4/cyfitter_cfg.c **** 			{0x82u, 0x01u},
 433:Generated_Source\PSoC4/cyfitter_cfg.c **** 			{0x85u, 0x01u},
 434:Generated_Source\PSoC4/cyfitter_cfg.c **** 			{0x8Au, 0x02u},
 435:Generated_Source\PSoC4/cyfitter_cfg.c **** 			{0x93u, 0x04u},
 436:Generated_Source\PSoC4/cyfitter_cfg.c **** 			{0x9Bu, 0x01u},
 437:Generated_Source\PSoC4/cyfitter_cfg.c **** 			{0xA3u, 0x02u},
 438:Generated_Source\PSoC4/cyfitter_cfg.c **** 			{0xA5u, 0x02u},
 439:Generated_Source\PSoC4/cyfitter_cfg.c **** 			{0xA6u, 0x02u},
 440:Generated_Source\PSoC4/cyfitter_cfg.c **** 			{0xB2u, 0x01u},
 441:Generated_Source\PSoC4/cyfitter_cfg.c **** 			{0xB3u, 0x04u},
 442:Generated_Source\PSoC4/cyfitter_cfg.c **** 			{0xB4u, 0x02u},
 443:Generated_Source\PSoC4/cyfitter_cfg.c **** 			{0xB5u, 0x02u},
ARM GAS  C:\Users\leoja\AppData\Local\Temp\cce9YLC8.s 			page 16


 444:Generated_Source\PSoC4/cyfitter_cfg.c **** 			{0xB7u, 0x01u},
 445:Generated_Source\PSoC4/cyfitter_cfg.c **** 			{0xC0u, 0x30u},
 446:Generated_Source\PSoC4/cyfitter_cfg.c **** 			{0xC1u, 0x06u},
 447:Generated_Source\PSoC4/cyfitter_cfg.c **** 			{0xC5u, 0xD1u},
 448:Generated_Source\PSoC4/cyfitter_cfg.c **** 			{0xC6u, 0x05u},
 449:Generated_Source\PSoC4/cyfitter_cfg.c **** 			{0xC7u, 0x02u},
 450:Generated_Source\PSoC4/cyfitter_cfg.c **** 			{0xC8u, 0x17u},
 451:Generated_Source\PSoC4/cyfitter_cfg.c **** 			{0xC9u, 0xFFu},
 452:Generated_Source\PSoC4/cyfitter_cfg.c **** 			{0xCAu, 0xFFu},
 453:Generated_Source\PSoC4/cyfitter_cfg.c **** 			{0xCBu, 0xFFu},
 454:Generated_Source\PSoC4/cyfitter_cfg.c **** 			{0xCDu, 0xA0u},
 455:Generated_Source\PSoC4/cyfitter_cfg.c **** 			{0xCFu, 0x04u},
 456:Generated_Source\PSoC4/cyfitter_cfg.c **** 			{0xD0u, 0x18u},
 457:Generated_Source\PSoC4/cyfitter_cfg.c **** 			{0xD2u, 0x80u},
 458:Generated_Source\PSoC4/cyfitter_cfg.c **** 			{0xD4u, 0x07u},
 459:Generated_Source\PSoC4/cyfitter_cfg.c **** 			{0xD8u, 0x04u},
 460:Generated_Source\PSoC4/cyfitter_cfg.c **** 			{0xD9u, 0x04u},
 461:Generated_Source\PSoC4/cyfitter_cfg.c **** 			{0xDAu, 0x04u},
 462:Generated_Source\PSoC4/cyfitter_cfg.c **** 			{0xDBu, 0x04u},
 463:Generated_Source\PSoC4/cyfitter_cfg.c **** 			{0xDFu, 0x01u},
 464:Generated_Source\PSoC4/cyfitter_cfg.c **** 			{0xE0u, 0x40u},
 465:Generated_Source\PSoC4/cyfitter_cfg.c **** 			{0xE2u, 0xC0u},
 466:Generated_Source\PSoC4/cyfitter_cfg.c **** 			{0xE4u, 0x40u},
 467:Generated_Source\PSoC4/cyfitter_cfg.c **** 			{0xE5u, 0x40u},
 468:Generated_Source\PSoC4/cyfitter_cfg.c **** 			{0xE6u, 0xC0u},
 469:Generated_Source\PSoC4/cyfitter_cfg.c **** 			{0xE8u, 0xC0u},
 470:Generated_Source\PSoC4/cyfitter_cfg.c **** 			{0xEAu, 0xC0u},
 471:Generated_Source\PSoC4/cyfitter_cfg.c **** 			{0xECu, 0xC0u},
 472:Generated_Source\PSoC4/cyfitter_cfg.c **** 			{0xEEu, 0xC0u},
 473:Generated_Source\PSoC4/cyfitter_cfg.c **** 			{0x00u, 0x10u},
 474:Generated_Source\PSoC4/cyfitter_cfg.c **** 			{0x03u, 0x80u},
 475:Generated_Source\PSoC4/cyfitter_cfg.c **** 			{0x05u, 0x04u},
 476:Generated_Source\PSoC4/cyfitter_cfg.c **** 			{0x07u, 0x08u},
 477:Generated_Source\PSoC4/cyfitter_cfg.c **** 			{0x0Cu, 0x08u},
 478:Generated_Source\PSoC4/cyfitter_cfg.c **** 			{0x0Du, 0xA0u},
 479:Generated_Source\PSoC4/cyfitter_cfg.c **** 			{0x10u, 0x20u},
 480:Generated_Source\PSoC4/cyfitter_cfg.c **** 			{0x15u, 0x08u},
 481:Generated_Source\PSoC4/cyfitter_cfg.c **** 			{0x16u, 0x4Au},
 482:Generated_Source\PSoC4/cyfitter_cfg.c **** 			{0x19u, 0x08u},
 483:Generated_Source\PSoC4/cyfitter_cfg.c **** 			{0x1Bu, 0x20u},
 484:Generated_Source\PSoC4/cyfitter_cfg.c **** 			{0x1Du, 0xC0u},
 485:Generated_Source\PSoC4/cyfitter_cfg.c **** 			{0x1Eu, 0x24u},
 486:Generated_Source\PSoC4/cyfitter_cfg.c **** 			{0x20u, 0x10u},
 487:Generated_Source\PSoC4/cyfitter_cfg.c **** 			{0x21u, 0x04u},
 488:Generated_Source\PSoC4/cyfitter_cfg.c **** 			{0x22u, 0x50u},
 489:Generated_Source\PSoC4/cyfitter_cfg.c **** 			{0x24u, 0x40u},
 490:Generated_Source\PSoC4/cyfitter_cfg.c **** 			{0x29u, 0x08u},
 491:Generated_Source\PSoC4/cyfitter_cfg.c **** 			{0x2Bu, 0x80u},
 492:Generated_Source\PSoC4/cyfitter_cfg.c **** 			{0x30u, 0x20u},
 493:Generated_Source\PSoC4/cyfitter_cfg.c **** 			{0x31u, 0x02u},
 494:Generated_Source\PSoC4/cyfitter_cfg.c **** 			{0x38u, 0x04u},
 495:Generated_Source\PSoC4/cyfitter_cfg.c **** 			{0x3Cu, 0x20u},
 496:Generated_Source\PSoC4/cyfitter_cfg.c **** 			{0x3Du, 0x04u},
 497:Generated_Source\PSoC4/cyfitter_cfg.c **** 			{0x40u, 0x10u},
 498:Generated_Source\PSoC4/cyfitter_cfg.c **** 			{0x48u, 0x28u},
 499:Generated_Source\PSoC4/cyfitter_cfg.c **** 			{0x49u, 0x01u},
 500:Generated_Source\PSoC4/cyfitter_cfg.c **** 			{0x50u, 0x08u},
ARM GAS  C:\Users\leoja\AppData\Local\Temp\cce9YLC8.s 			page 17


 501:Generated_Source\PSoC4/cyfitter_cfg.c **** 			{0x53u, 0x80u},
 502:Generated_Source\PSoC4/cyfitter_cfg.c **** 			{0x59u, 0x01u},
 503:Generated_Source\PSoC4/cyfitter_cfg.c **** 			{0x5Au, 0xA4u},
 504:Generated_Source\PSoC4/cyfitter_cfg.c **** 			{0x5Cu, 0x08u},
 505:Generated_Source\PSoC4/cyfitter_cfg.c **** 			{0x5Du, 0x21u},
 506:Generated_Source\PSoC4/cyfitter_cfg.c **** 			{0x5Fu, 0x40u},
 507:Generated_Source\PSoC4/cyfitter_cfg.c **** 			{0x64u, 0xA2u},
 508:Generated_Source\PSoC4/cyfitter_cfg.c **** 			{0x67u, 0x04u},
 509:Generated_Source\PSoC4/cyfitter_cfg.c **** 			{0x71u, 0x02u},
 510:Generated_Source\PSoC4/cyfitter_cfg.c **** 			{0x7Eu, 0x08u},
 511:Generated_Source\PSoC4/cyfitter_cfg.c **** 			{0x80u, 0x20u},
 512:Generated_Source\PSoC4/cyfitter_cfg.c **** 			{0x81u, 0x20u},
 513:Generated_Source\PSoC4/cyfitter_cfg.c **** 			{0x84u, 0x80u},
 514:Generated_Source\PSoC4/cyfitter_cfg.c **** 			{0x86u, 0x10u},
 515:Generated_Source\PSoC4/cyfitter_cfg.c **** 			{0x89u, 0x01u},
 516:Generated_Source\PSoC4/cyfitter_cfg.c **** 			{0x8Bu, 0x64u},
 517:Generated_Source\PSoC4/cyfitter_cfg.c **** 			{0x8Cu, 0x0Au},
 518:Generated_Source\PSoC4/cyfitter_cfg.c **** 			{0x90u, 0x04u},
 519:Generated_Source\PSoC4/cyfitter_cfg.c **** 			{0x91u, 0x04u},
 520:Generated_Source\PSoC4/cyfitter_cfg.c **** 			{0x94u, 0x40u},
 521:Generated_Source\PSoC4/cyfitter_cfg.c **** 			{0x99u, 0x04u},
 522:Generated_Source\PSoC4/cyfitter_cfg.c **** 			{0x9Au, 0x4Au},
 523:Generated_Source\PSoC4/cyfitter_cfg.c **** 			{0x9Bu, 0x08u},
 524:Generated_Source\PSoC4/cyfitter_cfg.c **** 			{0x9Du, 0x40u},
 525:Generated_Source\PSoC4/cyfitter_cfg.c **** 			{0xA0u, 0x10u},
 526:Generated_Source\PSoC4/cyfitter_cfg.c **** 			{0xA1u, 0x20u},
 527:Generated_Source\PSoC4/cyfitter_cfg.c **** 			{0xA2u, 0x08u},
 528:Generated_Source\PSoC4/cyfitter_cfg.c **** 			{0xA4u, 0x20u},
 529:Generated_Source\PSoC4/cyfitter_cfg.c **** 			{0xA5u, 0x80u},
 530:Generated_Source\PSoC4/cyfitter_cfg.c **** 			{0xA9u, 0x01u},
 531:Generated_Source\PSoC4/cyfitter_cfg.c **** 			{0xAAu, 0x20u},
 532:Generated_Source\PSoC4/cyfitter_cfg.c **** 			{0xADu, 0x20u},
 533:Generated_Source\PSoC4/cyfitter_cfg.c **** 			{0xAFu, 0x01u},
 534:Generated_Source\PSoC4/cyfitter_cfg.c **** 			{0xB1u, 0x50u},
 535:Generated_Source\PSoC4/cyfitter_cfg.c **** 			{0xB4u, 0x01u},
 536:Generated_Source\PSoC4/cyfitter_cfg.c **** 			{0xB6u, 0x01u},
 537:Generated_Source\PSoC4/cyfitter_cfg.c **** 			{0xC0u, 0x6Au},
 538:Generated_Source\PSoC4/cyfitter_cfg.c **** 			{0xC2u, 0xE0u},
 539:Generated_Source\PSoC4/cyfitter_cfg.c **** 			{0xC4u, 0xF4u},
 540:Generated_Source\PSoC4/cyfitter_cfg.c **** 			{0xCAu, 0x03u},
 541:Generated_Source\PSoC4/cyfitter_cfg.c **** 			{0xCCu, 0x05u},
 542:Generated_Source\PSoC4/cyfitter_cfg.c **** 			{0xCEu, 0x62u},
 543:Generated_Source\PSoC4/cyfitter_cfg.c **** 			{0xD0u, 0x02u},
 544:Generated_Source\PSoC4/cyfitter_cfg.c **** 			{0xD2u, 0x04u},
 545:Generated_Source\PSoC4/cyfitter_cfg.c **** 			{0xD6u, 0xFFu},
 546:Generated_Source\PSoC4/cyfitter_cfg.c **** 			{0xD8u, 0xF0u},
 547:Generated_Source\PSoC4/cyfitter_cfg.c **** 			{0xDEu, 0x20u},
 548:Generated_Source\PSoC4/cyfitter_cfg.c **** 			{0xE0u, 0x70u},
 549:Generated_Source\PSoC4/cyfitter_cfg.c **** 			{0xE4u, 0xA0u},
 550:Generated_Source\PSoC4/cyfitter_cfg.c **** 			{0xEAu, 0x90u},
 551:Generated_Source\PSoC4/cyfitter_cfg.c **** 			{0xEEu, 0x30u},
 552:Generated_Source\PSoC4/cyfitter_cfg.c **** 			{0x51u, 0x02u},
 553:Generated_Source\PSoC4/cyfitter_cfg.c **** 			{0x59u, 0x04u},
 554:Generated_Source\PSoC4/cyfitter_cfg.c **** 			{0x5Fu, 0x80u},
 555:Generated_Source\PSoC4/cyfitter_cfg.c **** 			{0x66u, 0x80u},
 556:Generated_Source\PSoC4/cyfitter_cfg.c **** 			{0x82u, 0x01u},
 557:Generated_Source\PSoC4/cyfitter_cfg.c **** 			{0x8Au, 0x01u},
ARM GAS  C:\Users\leoja\AppData\Local\Temp\cce9YLC8.s 			page 18


 558:Generated_Source\PSoC4/cyfitter_cfg.c **** 			{0x8Bu, 0x80u},
 559:Generated_Source\PSoC4/cyfitter_cfg.c **** 			{0x8Eu, 0x40u},
 560:Generated_Source\PSoC4/cyfitter_cfg.c **** 			{0xD4u, 0x80u},
 561:Generated_Source\PSoC4/cyfitter_cfg.c **** 			{0xD6u, 0xE0u},
 562:Generated_Source\PSoC4/cyfitter_cfg.c **** 			{0xE2u, 0x20u},
 563:Generated_Source\PSoC4/cyfitter_cfg.c **** 			{0x00u, 0x08u},
 564:Generated_Source\PSoC4/cyfitter_cfg.c **** 			{0x01u, 0x40u},
 565:Generated_Source\PSoC4/cyfitter_cfg.c **** 			{0x05u, 0x84u},
 566:Generated_Source\PSoC4/cyfitter_cfg.c **** 			{0x09u, 0x01u},
 567:Generated_Source\PSoC4/cyfitter_cfg.c **** 			{0x0Bu, 0x02u},
 568:Generated_Source\PSoC4/cyfitter_cfg.c **** 			{0x0Cu, 0x18u},
 569:Generated_Source\PSoC4/cyfitter_cfg.c **** 			{0x34u, 0x40u},
 570:Generated_Source\PSoC4/cyfitter_cfg.c **** 			{0x52u, 0x10u},
 571:Generated_Source\PSoC4/cyfitter_cfg.c **** 			{0x57u, 0x80u},
 572:Generated_Source\PSoC4/cyfitter_cfg.c **** 			{0x5Au, 0x82u},
 573:Generated_Source\PSoC4/cyfitter_cfg.c **** 			{0x5Cu, 0x02u},
 574:Generated_Source\PSoC4/cyfitter_cfg.c **** 			{0x5Eu, 0x40u},
 575:Generated_Source\PSoC4/cyfitter_cfg.c **** 			{0x62u, 0x01u},
 576:Generated_Source\PSoC4/cyfitter_cfg.c **** 			{0x65u, 0x01u},
 577:Generated_Source\PSoC4/cyfitter_cfg.c **** 			{0x81u, 0x04u},
 578:Generated_Source\PSoC4/cyfitter_cfg.c **** 			{0x83u, 0x01u},
 579:Generated_Source\PSoC4/cyfitter_cfg.c **** 			{0x84u, 0x50u},
 580:Generated_Source\PSoC4/cyfitter_cfg.c **** 			{0x88u, 0x0Cu},
 581:Generated_Source\PSoC4/cyfitter_cfg.c **** 			{0x89u, 0x80u},
 582:Generated_Source\PSoC4/cyfitter_cfg.c **** 			{0x8Du, 0x41u},
 583:Generated_Source\PSoC4/cyfitter_cfg.c **** 			{0x92u, 0xC2u},
 584:Generated_Source\PSoC4/cyfitter_cfg.c **** 			{0x98u, 0x02u},
 585:Generated_Source\PSoC4/cyfitter_cfg.c **** 			{0x99u, 0x01u},
 586:Generated_Source\PSoC4/cyfitter_cfg.c **** 			{0x9Au, 0x11u},
 587:Generated_Source\PSoC4/cyfitter_cfg.c **** 			{0xA3u, 0x80u},
 588:Generated_Source\PSoC4/cyfitter_cfg.c **** 			{0xA9u, 0x05u},
 589:Generated_Source\PSoC4/cyfitter_cfg.c **** 			{0xACu, 0x02u},
 590:Generated_Source\PSoC4/cyfitter_cfg.c **** 			{0xAEu, 0x10u},
 591:Generated_Source\PSoC4/cyfitter_cfg.c **** 			{0xB2u, 0x80u},
 592:Generated_Source\PSoC4/cyfitter_cfg.c **** 			{0xB3u, 0x80u},
 593:Generated_Source\PSoC4/cyfitter_cfg.c **** 			{0xB5u, 0x02u},
 594:Generated_Source\PSoC4/cyfitter_cfg.c **** 			{0xB6u, 0x40u},
 595:Generated_Source\PSoC4/cyfitter_cfg.c **** 			{0xC0u, 0xF0u},
 596:Generated_Source\PSoC4/cyfitter_cfg.c **** 			{0xC2u, 0xF0u},
 597:Generated_Source\PSoC4/cyfitter_cfg.c **** 			{0xCCu, 0x20u},
 598:Generated_Source\PSoC4/cyfitter_cfg.c **** 			{0xD4u, 0xE0u},
 599:Generated_Source\PSoC4/cyfitter_cfg.c **** 			{0xD6u, 0xE0u},
 600:Generated_Source\PSoC4/cyfitter_cfg.c **** 			{0xD8u, 0xC0u},
 601:Generated_Source\PSoC4/cyfitter_cfg.c **** 			{0xE4u, 0xE0u},
 602:Generated_Source\PSoC4/cyfitter_cfg.c **** 			{0xE6u, 0x10u},
 603:Generated_Source\PSoC4/cyfitter_cfg.c **** 			{0xEAu, 0x60u},
 604:Generated_Source\PSoC4/cyfitter_cfg.c **** 			{0xEEu, 0xC0u},
 605:Generated_Source\PSoC4/cyfitter_cfg.c **** 			{0x66u, 0x02u},
 606:Generated_Source\PSoC4/cyfitter_cfg.c **** 			{0x8Au, 0x02u},
 607:Generated_Source\PSoC4/cyfitter_cfg.c **** 			{0xD8u, 0x01u},
 608:Generated_Source\PSoC4/cyfitter_cfg.c **** 			{0xE0u, 0x01u},
 609:Generated_Source\PSoC4/cyfitter_cfg.c **** 			{0x10u, 0x01u},
 610:Generated_Source\PSoC4/cyfitter_cfg.c **** 			{0x11u, 0x01u},
 611:Generated_Source\PSoC4/cyfitter_cfg.c **** 		};
 612:Generated_Source\PSoC4/cyfitter_cfg.c **** 
 613:Generated_Source\PSoC4/cyfitter_cfg.c **** 
 614:Generated_Source\PSoC4/cyfitter_cfg.c **** 
ARM GAS  C:\Users\leoja\AppData\Local\Temp\cce9YLC8.s 			page 19


 615:Generated_Source\PSoC4/cyfitter_cfg.c **** 		CYPACKED typedef struct {
 616:Generated_Source\PSoC4/cyfitter_cfg.c **** 			void CYFAR *address;
 617:Generated_Source\PSoC4/cyfitter_cfg.c **** 			uint16 size;
 618:Generated_Source\PSoC4/cyfitter_cfg.c **** 		} CYPACKED_ATTR cfg_memset_t;
 619:Generated_Source\PSoC4/cyfitter_cfg.c **** 
 620:Generated_Source\PSoC4/cyfitter_cfg.c **** 
 621:Generated_Source\PSoC4/cyfitter_cfg.c **** 		CYPACKED typedef struct {
 622:Generated_Source\PSoC4/cyfitter_cfg.c **** 			void CYFAR *dest;
 623:Generated_Source\PSoC4/cyfitter_cfg.c **** 			const void CYCODE *src;
 624:Generated_Source\PSoC4/cyfitter_cfg.c **** 			uint16 size;
 625:Generated_Source\PSoC4/cyfitter_cfg.c **** 		} CYPACKED_ATTR cfg_memcpy_t;
 626:Generated_Source\PSoC4/cyfitter_cfg.c **** 
 627:Generated_Source\PSoC4/cyfitter_cfg.c **** 		static const cfg_memset_t CYCODE cfg_memset_list[] = {
 628:Generated_Source\PSoC4/cyfitter_cfg.c **** 			/* address, size */
 629:Generated_Source\PSoC4/cyfitter_cfg.c **** 			{(void CYFAR *)(CYDEV_UDB_P0_U0_BASE), 128u},
 630:Generated_Source\PSoC4/cyfitter_cfg.c **** 			{(void CYFAR *)(CYDEV_UDB_P0_ROUTE_BASE), 768u},
 631:Generated_Source\PSoC4/cyfitter_cfg.c **** 			{(void CYFAR *)(CYDEV_UDB_DSI0_BASE), 1024u},
 632:Generated_Source\PSoC4/cyfitter_cfg.c **** 		};
 633:Generated_Source\PSoC4/cyfitter_cfg.c **** 
 634:Generated_Source\PSoC4/cyfitter_cfg.c **** 		/* UDB_0_1_1_CONFIG Address: CYDEV_UDB_P0_U1_BASE Size (bytes): 128 */
 635:Generated_Source\PSoC4/cyfitter_cfg.c **** 		static const uint8 CYCODE BS_UDB_0_1_1_CONFIG_VAL[] = {
 636:Generated_Source\PSoC4/cyfitter_cfg.c **** 			0x08u, 0x00u, 0x00u, 0x04u, 0xDEu, 0x00u, 0x21u, 0x00u, 0x25u, 0x00u, 0x1Au, 0x02u, 0x10u, 0x20u
 637:Generated_Source\PSoC4/cyfitter_cfg.c **** 			0x00u, 0x40u, 0x00u, 0x20u, 0x00u, 0x68u, 0x00u, 0x15u, 0x00u, 0x00u, 0x00u, 0x00u, 0xA9u, 0x7Au
 638:Generated_Source\PSoC4/cyfitter_cfg.c **** 			0x01u, 0x00u, 0x20u, 0x10u, 0x63u, 0x62u, 0x84u, 0x1Cu, 0x21u, 0x18u, 0x00u, 0x63u, 0x00u, 0x00u
 639:Generated_Source\PSoC4/cyfitter_cfg.c **** 			0x82u, 0x08u, 0x60u, 0x10u, 0x1Fu, 0x07u, 0x80u, 0x60u, 0x82u, 0x02u, 0x00u, 0xA0u, 0x00u, 0x00u
 640:Generated_Source\PSoC4/cyfitter_cfg.c **** 			0x21u, 0x03u, 0x00u, 0x00u, 0x00u, 0xDFu, 0xE2u, 0x6Cu, 0x3Fu, 0xFFu, 0xFFu, 0xFFu, 0x00u, 0x00u
 641:Generated_Source\PSoC4/cyfitter_cfg.c **** 			0x04u, 0x00u, 0x00u, 0x00u, 0x02u, 0x00u, 0x01u, 0x00u, 0x04u, 0x04u, 0x04u, 0x04u, 0x99u, 0x99u
 642:Generated_Source\PSoC4/cyfitter_cfg.c **** 			0x00u, 0x00u, 0xC0u, 0x00u, 0x30u, 0x00u, 0x00u, 0x10u, 0x80u, 0x00u, 0x20u, 0x00u, 0x40u, 0x40u
 643:Generated_Source\PSoC4/cyfitter_cfg.c **** 			0x00u, 0x00u, 0x00u, 0x00u, 0x00u, 0x00u, 0x00u, 0x00u, 0x00u, 0x00u, 0x00u, 0x00u, 0x00u, 0x00u
 644:Generated_Source\PSoC4/cyfitter_cfg.c **** 
 645:Generated_Source\PSoC4/cyfitter_cfg.c **** 		static const cfg_memcpy_t CYCODE cfg_memcpy_list [] = {
 646:Generated_Source\PSoC4/cyfitter_cfg.c **** 			/* dest, src, size */
 647:Generated_Source\PSoC4/cyfitter_cfg.c **** 			{(void CYFAR *)(CYDEV_UDB_P0_U1_BASE), BS_UDB_0_1_1_CONFIG_VAL, 128u},
 648:Generated_Source\PSoC4/cyfitter_cfg.c **** 		};
 649:Generated_Source\PSoC4/cyfitter_cfg.c **** 
 650:Generated_Source\PSoC4/cyfitter_cfg.c **** 		uint8 CYDATA i;
 651:Generated_Source\PSoC4/cyfitter_cfg.c **** 
 652:Generated_Source\PSoC4/cyfitter_cfg.c **** 		/* Zero out critical memory blocks before beginning configuration */
 653:Generated_Source\PSoC4/cyfitter_cfg.c **** 		for (i = 0u; i < (sizeof(cfg_memset_list)/sizeof(cfg_memset_list[0])); i++)
 395              		.loc 1 653 0
 396 00bc 0024     		movs	r4, #0
 397 00be 0FE0     		b	.L20
 398              	.LVL27:
 399              	.L21:
 400              	.LBB4:
 654:Generated_Source\PSoC4/cyfitter_cfg.c **** 		{
 655:Generated_Source\PSoC4/cyfitter_cfg.c **** 			const cfg_memset_t CYCODE * CYDATA ms = &cfg_memset_list[i];
 656:Generated_Source\PSoC4/cyfitter_cfg.c **** 			CYMEMZERO(ms->address, (size_t)(uint32)(ms->size));
 401              		.loc 1 656 0 discriminator 3
 402 00c0 4A48     		ldr	r0, .L24
 403 00c2 6200     		lsls	r2, r4, #1
 404 00c4 1319     		adds	r3, r2, r4
 405 00c6 5900     		lsls	r1, r3, #1
 406 00c8 0B00     		movs	r3, r1
 407 00ca 4118     		adds	r1, r0, r1
 408 00cc 8988     		ldrh	r1, [r1, #4]
 409 00ce 1A5A     		ldrh	r2, [r3, r0]
ARM GAS  C:\Users\leoja\AppData\Local\Temp\cce9YLC8.s 			page 20


 410 00d0 C318     		adds	r3, r0, r3
 411 00d2 5888     		ldrh	r0, [r3, #2]
 412 00d4 0004     		lsls	r0, r0, #16
 413 00d6 1043     		orrs	r0, r2
 414 00d8 FFF7FEFF 		bl	CYMEMZERO
 415              	.LVL28:
 416              	.LBE4:
 653:Generated_Source\PSoC4/cyfitter_cfg.c **** 		{
 417              		.loc 1 653 0 discriminator 3
 418 00dc 0134     		adds	r4, r4, #1
 419              	.LVL29:
 420 00de E4B2     		uxtb	r4, r4
 421              	.LVL30:
 422              	.L20:
 653:Generated_Source\PSoC4/cyfitter_cfg.c **** 		{
 423              		.loc 1 653 0 is_stmt 0 discriminator 1
 424 00e0 022C     		cmp	r4, #2
 425 00e2 EDD9     		bls	.L21
 426 00e4 0024     		movs	r4, #0
 427              	.LVL31:
 428 00e6 11E0     		b	.L22
 429              	.LVL32:
 430              	.L23:
 431              	.LBB5:
 657:Generated_Source\PSoC4/cyfitter_cfg.c **** 		}
 658:Generated_Source\PSoC4/cyfitter_cfg.c **** 
 659:Generated_Source\PSoC4/cyfitter_cfg.c **** 		/* Copy device configuration data into registers */
 660:Generated_Source\PSoC4/cyfitter_cfg.c **** 		for (i = 0u; i < (sizeof(cfg_memcpy_list)/sizeof(cfg_memcpy_list[0])); i++)
 661:Generated_Source\PSoC4/cyfitter_cfg.c **** 		{
 662:Generated_Source\PSoC4/cyfitter_cfg.c **** 			const cfg_memcpy_t CYCODE * CYDATA mc = &cfg_memcpy_list[i];
 663:Generated_Source\PSoC4/cyfitter_cfg.c **** 			void * CYDATA destPtr = mc->dest;
 432              		.loc 1 663 0 is_stmt 1 discriminator 3
 433 00e8 404E     		ldr	r6, .L24
 434 00ea A200     		lsls	r2, r4, #2
 435 00ec 1319     		adds	r3, r2, r4
 436 00ee 5900     		lsls	r1, r3, #1
 437 00f0 7118     		adds	r1, r6, r1
 438 00f2 8D8A     		ldrh	r5, [r1, #20]
 439 00f4 C88A     		ldrh	r0, [r1, #22]
 440 00f6 0004     		lsls	r0, r0, #16
 441 00f8 2843     		orrs	r0, r5
 442              	.LVL33:
 664:Generated_Source\PSoC4/cyfitter_cfg.c **** 			const void CYCODE * CYDATA srcPtr = mc->src;
 443              		.loc 1 664 0 discriminator 3
 444 00fa 0A8B     		ldrh	r2, [r1, #24]
 445 00fc 498B     		ldrh	r1, [r1, #26]
 446 00fe 0904     		lsls	r1, r1, #16
 447 0100 1143     		orrs	r1, r2
 448              	.LVL34:
 665:Generated_Source\PSoC4/cyfitter_cfg.c **** 			uint16 CYDATA numBytes = mc->size;
 666:Generated_Source\PSoC4/cyfitter_cfg.c **** 			CYCONFIGCPYCODE(destPtr, srcPtr, numBytes);
 449              		.loc 1 666 0 discriminator 3
 450 0102 8022     		movs	r2, #128
 451 0104 FFF7FEFF 		bl	CYCONFIGCPYCODE
 452              	.LVL35:
 453              	.LBE5:
 660:Generated_Source\PSoC4/cyfitter_cfg.c **** 		{
ARM GAS  C:\Users\leoja\AppData\Local\Temp\cce9YLC8.s 			page 21


 454              		.loc 1 660 0 discriminator 3
 455 0108 0134     		adds	r4, r4, #1
 456              	.LVL36:
 457 010a E4B2     		uxtb	r4, r4
 458              	.LVL37:
 459              	.L22:
 660:Generated_Source\PSoC4/cyfitter_cfg.c **** 		{
 460              		.loc 1 660 0 is_stmt 0 discriminator 1
 461 010c 002C     		cmp	r4, #0
 462 010e EBD0     		beq	.L23
 667:Generated_Source\PSoC4/cyfitter_cfg.c **** 		}
 668:Generated_Source\PSoC4/cyfitter_cfg.c **** 
 669:Generated_Source\PSoC4/cyfitter_cfg.c **** 		cfg_write_bytes32(cy_cfg_addr_table, cy_cfg_data_table);
 463              		.loc 1 669 0 is_stmt 1
 464 0110 3649     		ldr	r1, .L24
 465 0112 2031     		adds	r1, r1, #32
 466 0114 3648     		ldr	r0, .L24+4
 467 0116 2C30     		adds	r0, r0, #44
 468 0118 FFF7FEFF 		bl	cfg_write_bytes32
 469              	.LVL38:
 670:Generated_Source\PSoC4/cyfitter_cfg.c **** 
 671:Generated_Source\PSoC4/cyfitter_cfg.c **** 		/* Perform normal device configuration. Order is not critical for these items. */
 672:Generated_Source\PSoC4/cyfitter_cfg.c **** 		CY_SET_REG16((void *)(CYREG_UDB_BCTL0_DRV), 0x0100u);
 470              		.loc 1 672 0
 471 011c 8022     		movs	r2, #128
 472 011e 5200     		lsls	r2, r2, #1
 473 0120 344B     		ldr	r3, .L24+8
 474 0122 1A80     		strh	r2, [r3]
 673:Generated_Source\PSoC4/cyfitter_cfg.c **** 		CY_SET_REG8((void *)(CYREG_UDB_BCTL0_DRV + 0x2u), 0x01u);
 475              		.loc 1 673 0
 476 0124 FF3A     		subs	r2, r2, #255
 477 0126 344B     		ldr	r3, .L24+12
 478 0128 1A70     		strb	r2, [r3]
 674:Generated_Source\PSoC4/cyfitter_cfg.c **** 
 675:Generated_Source\PSoC4/cyfitter_cfg.c **** 		/* HSIOM Starting address: CYDEV_HSIOM_BASE */
 676:Generated_Source\PSoC4/cyfitter_cfg.c **** 		CY_SET_REG32((void *)(CYDEV_HSIOM_BASE), 0x330033AAu);
 479              		.loc 1 676 0
 480 012a 344A     		ldr	r2, .L24+16
 481 012c 344B     		ldr	r3, .L24+20
 482 012e 1A60     		str	r2, [r3]
 677:Generated_Source\PSoC4/cyfitter_cfg.c **** 		CY_SET_REG32((void *)(CYREG_HSIOM_PORT_SEL1), 0x22222222u);
 483              		.loc 1 677 0
 484 0130 344A     		ldr	r2, .L24+24
 485 0132 354B     		ldr	r3, .L24+28
 486 0134 1A60     		str	r2, [r3]
 678:Generated_Source\PSoC4/cyfitter_cfg.c **** 		CY_SET_REG32((void *)(CYREG_HSIOM_PORT_SEL3), 0x3000EE00u);
 487              		.loc 1 678 0
 488 0136 354A     		ldr	r2, .L24+32
 489 0138 354B     		ldr	r3, .L24+36
 490 013a 1A60     		str	r2, [r3]
 679:Generated_Source\PSoC4/cyfitter_cfg.c **** 		CY_SET_REG32((void *)(CYREG_HSIOM_PORT_SEL4), 0x000000AAu);
 491              		.loc 1 679 0
 492 013c AA22     		movs	r2, #170
 493 013e 354B     		ldr	r3, .L24+40
 494 0140 1A60     		str	r2, [r3]
 680:Generated_Source\PSoC4/cyfitter_cfg.c **** 
 681:Generated_Source\PSoC4/cyfitter_cfg.c **** 		/* UDB_PA_0 Starting address: CYDEV_UDB_PA0_BASE */
ARM GAS  C:\Users\leoja\AppData\Local\Temp\cce9YLC8.s 			page 22


 682:Generated_Source\PSoC4/cyfitter_cfg.c **** 		CY_SET_REG32((void *)(CYDEV_UDB_PA0_BASE), 0x00990000u);
 495              		.loc 1 682 0
 496 0142 9923     		movs	r3, #153
 497 0144 1B04     		lsls	r3, r3, #16
 498 0146 344A     		ldr	r2, .L24+44
 499 0148 1360     		str	r3, [r2]
 683:Generated_Source\PSoC4/cyfitter_cfg.c **** 		CY_SET_REG32((void *)(CYREG_UDB_PA0_CFG8), 0x4AB00000u);
 500              		.loc 1 683 0
 501 014a 3449     		ldr	r1, .L24+48
 502 014c 344A     		ldr	r2, .L24+52
 503 014e 1160     		str	r1, [r2]
 684:Generated_Source\PSoC4/cyfitter_cfg.c **** 
 685:Generated_Source\PSoC4/cyfitter_cfg.c **** 		/* UDB_PA_1 Starting address: CYDEV_UDB_PA1_BASE */
 686:Generated_Source\PSoC4/cyfitter_cfg.c **** 		CY_SET_REG32((void *)(CYDEV_UDB_PA1_BASE), 0x00990000u);
 504              		.loc 1 686 0
 505 0150 344A     		ldr	r2, .L24+56
 506 0152 1360     		str	r3, [r2]
 687:Generated_Source\PSoC4/cyfitter_cfg.c **** 		CY_SET_REG32((void *)(CYREG_UDB_PA1_CFG8), 0xB4B40000u);
 507              		.loc 1 687 0
 508 0154 3449     		ldr	r1, .L24+60
 509 0156 354A     		ldr	r2, .L24+64
 510 0158 1160     		str	r1, [r2]
 688:Generated_Source\PSoC4/cyfitter_cfg.c **** 		CY_SET_REG32((void *)(CYREG_UDB_PA1_CFG12), 0x00005555u);
 511              		.loc 1 688 0
 512 015a 3549     		ldr	r1, .L24+68
 513 015c 354A     		ldr	r2, .L24+72
 514 015e 1160     		str	r1, [r2]
 689:Generated_Source\PSoC4/cyfitter_cfg.c **** 
 690:Generated_Source\PSoC4/cyfitter_cfg.c **** 		/* UDB_PA_2 Starting address: CYDEV_UDB_PA2_BASE */
 691:Generated_Source\PSoC4/cyfitter_cfg.c **** 		CY_SET_REG32((void *)(CYDEV_UDB_PA2_BASE), 0x00990000u);
 515              		.loc 1 691 0
 516 0160 354A     		ldr	r2, .L24+76
 517 0162 1360     		str	r3, [r2]
 692:Generated_Source\PSoC4/cyfitter_cfg.c **** 
 693:Generated_Source\PSoC4/cyfitter_cfg.c **** 		/* UDB_PA_3 Starting address: CYDEV_UDB_PA3_BASE */
 694:Generated_Source\PSoC4/cyfitter_cfg.c **** 		CY_SET_REG32((void *)(CYDEV_UDB_PA3_BASE), 0x00990000u);
 518              		.loc 1 694 0
 519 0164 354A     		ldr	r2, .L24+80
 520 0166 1360     		str	r3, [r2]
 695:Generated_Source\PSoC4/cyfitter_cfg.c **** 		CY_SET_REG32((void *)(CYREG_UDB_PA3_CFG8), 0xC0000000u);
 521              		.loc 1 695 0
 522 0168 C022     		movs	r2, #192
 523 016a 1206     		lsls	r2, r2, #24
 524 016c 344B     		ldr	r3, .L24+84
 525 016e 1A60     		str	r2, [r3]
 696:Generated_Source\PSoC4/cyfitter_cfg.c **** 
 697:Generated_Source\PSoC4/cyfitter_cfg.c **** 		/* Enable UDB array and digital routing */
 698:Generated_Source\PSoC4/cyfitter_cfg.c **** 		CY_SET_XTND_REG8((void *)CYREG_UDB_UDBIF_WAIT_CFG, (uint8)((CY_GET_XTND_REG8((void *)CYREG_UDB_UD
 526              		.loc 1 698 0
 527 0170 3449     		ldr	r1, .L24+88
 528 0172 0B78     		ldrb	r3, [r1]
 529 0174 3C22     		movs	r2, #60
 530 0176 9343     		bics	r3, r2
 531 0178 1422     		movs	r2, #20
 532 017a 1343     		orrs	r3, r2
 533 017c DBB2     		uxtb	r3, r3
 534 017e 0B70     		strb	r3, [r1]
ARM GAS  C:\Users\leoja\AppData\Local\Temp\cce9YLC8.s 			page 23


 699:Generated_Source\PSoC4/cyfitter_cfg.c **** 		CY_SET_XTND_REG8((void *)CYREG_UDB_UDBIF_BANK_CTL, (uint8)(CY_GET_XTND_REG8((void *)CYREG_UDB_UDB
 535              		.loc 1 699 0
 536 0180 314A     		ldr	r2, .L24+92
 537 0182 1178     		ldrb	r1, [r2]
 538 0184 1623     		movs	r3, #22
 539 0186 0B43     		orrs	r3, r1
 540 0188 DBB2     		uxtb	r3, r3
 541 018a 1370     		strb	r3, [r2]
 542              	.LBE3:
 700:Generated_Source\PSoC4/cyfitter_cfg.c **** 	}
 701:Generated_Source\PSoC4/cyfitter_cfg.c **** 
 702:Generated_Source\PSoC4/cyfitter_cfg.c **** 	/* Perform second pass device configuration. These items must be configured in specific order afte
 703:Generated_Source\PSoC4/cyfitter_cfg.c **** 	/* IOPINS0_0 Starting address: CYDEV_GPIO_PRT0_BASE */
 704:Generated_Source\PSoC4/cyfitter_cfg.c **** 	CY_SET_REG32((void *)(CYDEV_GPIO_PRT0_BASE), 0x000000CEu);
 543              		.loc 1 704 0
 544 018c CE22     		movs	r2, #206
 545 018e 2F4B     		ldr	r3, .L24+96
 546 0190 1A60     		str	r2, [r3]
 705:Generated_Source\PSoC4/cyfitter_cfg.c **** 	CY_SET_REG32((void *)(CYREG_GPIO_PRT0_PC), 0x00D80DB1u);
 547              		.loc 1 705 0
 548 0192 2F4A     		ldr	r2, .L24+100
 549 0194 2F4B     		ldr	r3, .L24+104
 550 0196 1A60     		str	r2, [r3]
 706:Generated_Source\PSoC4/cyfitter_cfg.c **** 
 707:Generated_Source\PSoC4/cyfitter_cfg.c **** 	/* IOPINS0_1 Starting address: CYDEV_GPIO_PRT1_BASE */
 708:Generated_Source\PSoC4/cyfitter_cfg.c **** 	CY_SET_REG32((void *)(CYDEV_GPIO_PRT1_BASE), 0x000000FFu);
 551              		.loc 1 708 0
 552 0198 FF22     		movs	r2, #255
 553 019a 2F4B     		ldr	r3, .L24+108
 554 019c 1A60     		str	r2, [r3]
 709:Generated_Source\PSoC4/cyfitter_cfg.c **** 	CY_SET_REG32((void *)(CYREG_GPIO_PRT1_PC), 0x00DB6DB6u);
 555              		.loc 1 709 0
 556 019e 2F4A     		ldr	r2, .L24+112
 557 01a0 2F4B     		ldr	r3, .L24+116
 558 01a2 1A60     		str	r2, [r3]
 710:Generated_Source\PSoC4/cyfitter_cfg.c **** 
 711:Generated_Source\PSoC4/cyfitter_cfg.c **** 	/* IOPINS0_2 Starting address: CYDEV_GPIO_PRT2_BASE */
 712:Generated_Source\PSoC4/cyfitter_cfg.c **** 	CY_SET_REG32((void *)(CYDEV_GPIO_PRT2_BASE), 0x000000C0u);
 559              		.loc 1 712 0
 560 01a4 C023     		movs	r3, #192
 561 01a6 2F4A     		ldr	r2, .L24+120
 562 01a8 1360     		str	r3, [r2]
 713:Generated_Source\PSoC4/cyfitter_cfg.c **** 	CY_SET_REG32((void *)(CYREG_GPIO_PRT2_PC2), 0x000000C0u);
 563              		.loc 1 713 0
 564 01aa 2F4A     		ldr	r2, .L24+124
 565 01ac 1360     		str	r3, [r2]
 714:Generated_Source\PSoC4/cyfitter_cfg.c **** 
 715:Generated_Source\PSoC4/cyfitter_cfg.c **** 	/* IOPINS0_3 Starting address: CYDEV_GPIO_PRT3_BASE */
 716:Generated_Source\PSoC4/cyfitter_cfg.c **** 	CY_SET_REG32((void *)(CYDEV_GPIO_PRT3_BASE), 0x00000080u);
 566              		.loc 1 716 0
 567 01ae 8022     		movs	r2, #128
 568 01b0 2E4B     		ldr	r3, .L24+128
 569 01b2 1A60     		str	r2, [r3]
 717:Generated_Source\PSoC4/cyfitter_cfg.c **** 	CY_SET_REG32((void *)(CYREG_GPIO_PRT3_PC), 0x00C49D80u);
 570              		.loc 1 717 0
 571 01b4 2E4A     		ldr	r2, .L24+132
 572 01b6 2F4B     		ldr	r3, .L24+136
ARM GAS  C:\Users\leoja\AppData\Local\Temp\cce9YLC8.s 			page 24


 573 01b8 1A60     		str	r2, [r3]
 718:Generated_Source\PSoC4/cyfitter_cfg.c **** 
 719:Generated_Source\PSoC4/cyfitter_cfg.c **** 	/* IOPINS0_4 Starting address: CYDEV_GPIO_PRT4_BASE */
 720:Generated_Source\PSoC4/cyfitter_cfg.c **** 	CY_SET_REG32((void *)(CYDEV_GPIO_PRT4_BASE), 0x00000002u);
 574              		.loc 1 720 0
 575 01ba 0222     		movs	r2, #2
 576 01bc 2E4B     		ldr	r3, .L24+140
 577 01be 1A60     		str	r2, [r3]
 721:Generated_Source\PSoC4/cyfitter_cfg.c **** 	CY_SET_REG32((void *)(CYREG_GPIO_PRT4_PC), 0x00036C71u);
 578              		.loc 1 721 0
 579 01c0 2E4A     		ldr	r2, .L24+144
 580 01c2 2F4B     		ldr	r3, .L24+148
 581 01c4 1A60     		str	r2, [r3]
 722:Generated_Source\PSoC4/cyfitter_cfg.c **** 
 723:Generated_Source\PSoC4/cyfitter_cfg.c **** 	/* IOPINS0_5 Starting address: CYDEV_GPIO_PRT5_BASE */
 724:Generated_Source\PSoC4/cyfitter_cfg.c **** 	CY_SET_REG32((void *)(CYDEV_GPIO_PRT5_BASE), 0x00000008u);
 582              		.loc 1 724 0
 583 01c6 0822     		movs	r2, #8
 584 01c8 2E4B     		ldr	r3, .L24+152
 585 01ca 1A60     		str	r2, [r3]
 725:Generated_Source\PSoC4/cyfitter_cfg.c **** 	CY_SET_REG32((void *)(CYREG_GPIO_PRT5_PC), 0x00030C00u);
 586              		.loc 1 725 0
 587 01cc C322     		movs	r2, #195
 588 01ce 9202     		lsls	r2, r2, #10
 589 01d0 2D4B     		ldr	r3, .L24+156
 590 01d2 1A60     		str	r2, [r3]
 726:Generated_Source\PSoC4/cyfitter_cfg.c **** 
 727:Generated_Source\PSoC4/cyfitter_cfg.c **** 	/* IOPINS0_6 Starting address: CYDEV_GPIO_PRT6_BASE */
 728:Generated_Source\PSoC4/cyfitter_cfg.c **** 	CY_SET_REG32((void *)(CYREG_GPIO_PRT6_PC), 0x00009000u);
 591              		.loc 1 728 0
 592 01d4 9022     		movs	r2, #144
 593 01d6 1202     		lsls	r2, r2, #8
 594 01d8 2C4B     		ldr	r3, .L24+160
 595 01da 1A60     		str	r2, [r3]
 729:Generated_Source\PSoC4/cyfitter_cfg.c **** 
 730:Generated_Source\PSoC4/cyfitter_cfg.c **** 	/* IOPINS0_7 Starting address: CYDEV_GPIO_PRT7_BASE */
 731:Generated_Source\PSoC4/cyfitter_cfg.c **** 	CY_SET_REG32((void *)(CYREG_GPIO_PRT7_PC), 0x00000030u);
 596              		.loc 1 731 0
 597 01dc 3022     		movs	r2, #48
 598 01de 2C4B     		ldr	r3, .L24+164
 599 01e0 1A60     		str	r2, [r3]
 732:Generated_Source\PSoC4/cyfitter_cfg.c **** 
 733:Generated_Source\PSoC4/cyfitter_cfg.c **** 
 734:Generated_Source\PSoC4/cyfitter_cfg.c **** 	/* Setup clocks based on selections from Clock DWR */
 735:Generated_Source\PSoC4/cyfitter_cfg.c **** 	ClockSetup();
 600              		.loc 1 735 0
 601 01e2 FFF70DFF 		bl	ClockSetup
 602              	.LVL39:
 736:Generated_Source\PSoC4/cyfitter_cfg.c **** 
 737:Generated_Source\PSoC4/cyfitter_cfg.c **** 	/* Perform basic analog initialization to defaults */
 738:Generated_Source\PSoC4/cyfitter_cfg.c **** 	AnalogSetDefault();
 603              		.loc 1 738 0
 604 01e6 FFF7FEFF 		bl	AnalogSetDefault
 605              	.LVL40:
 739:Generated_Source\PSoC4/cyfitter_cfg.c **** 
 740:Generated_Source\PSoC4/cyfitter_cfg.c **** }
 606              		.loc 1 740 0
ARM GAS  C:\Users\leoja\AppData\Local\Temp\cce9YLC8.s 			page 25


 607              		@ sp needed
 608              	.LVL41:
 609 01ea 70BD     		pop	{r4, r5, r6, pc}
 610              	.L25:
 611              		.align	2
 612              	.L24:
 613 01ec 00000000 		.word	.LANCHOR0
 614 01f0 00020000 		.word	.LANCHOR1
 615 01f4 00600F40 		.word	1074749440
 616 01f8 02600F40 		.word	1074749442
 617 01fc AA330033 		.word	855651242
 618 0200 00000240 		.word	1073872896
 619 0204 22222222 		.word	572662306
 620 0208 00010240 		.word	1073873152
 621 020c 00EE0030 		.word	805367296
 622 0210 00030240 		.word	1073873664
 623 0214 00040240 		.word	1073873920
 624 0218 00500F40 		.word	1074745344
 625 021c 0000B04A 		.word	1253048320
 626 0220 08500F40 		.word	1074745352
 627 0224 10500F40 		.word	1074745360
 628 0228 0000B4B4 		.word	-1263271936
 629 022c 18500F40 		.word	1074745368
 630 0230 55550000 		.word	21845
 631 0234 1C500F40 		.word	1074745372
 632 0238 20500F40 		.word	1074745376
 633 023c 30500F40 		.word	1074745392
 634 0240 38500F40 		.word	1074745400
 635 0244 01700F40 		.word	1074753537
 636 0248 00700F40 		.word	1074753536
 637 024c 00000440 		.word	1074003968
 638 0250 B10DD800 		.word	14159281
 639 0254 08000440 		.word	1074003976
 640 0258 00010440 		.word	1074004224
 641 025c B66DDB00 		.word	14380470
 642 0260 08010440 		.word	1074004232
 643 0264 00020440 		.word	1074004480
 644 0268 18020440 		.word	1074004504
 645 026c 00030440 		.word	1074004736
 646 0270 809DC400 		.word	12885376
 647 0274 08030440 		.word	1074004744
 648 0278 00040440 		.word	1074004992
 649 027c 716C0300 		.word	224369
 650 0280 08040440 		.word	1074005000
 651 0284 00050440 		.word	1074005248
 652 0288 08050440 		.word	1074005256
 653 028c 08060440 		.word	1074005512
 654 0290 08070440 		.word	1074005768
 655              		.cfi_endproc
 656              	.LFE8:
 657              		.size	cyfitter_cfg, .-cyfitter_cfg
 658              		.section	.rodata
 659              		.align	2
 660              		.set	.LANCHOR0,. + 0
 661              		.set	.LANCHOR1,. + 512
 662              		.type	cfg_memset_list.4922, %object
 663              		.size	cfg_memset_list.4922, 18
ARM GAS  C:\Users\leoja\AppData\Local\Temp\cce9YLC8.s 			page 26


 664              	cfg_memset_list.4922:
 665 0000 00300F40 		.word	1074737152
 666 0004 8000     		.short	128
 667 0006 00310F40 		.4byte	1074737408
 668 000a 0003     		.short	768
 669 000c 00400F40 		.word	1074741248
 670 0010 0004     		.short	1024
 671 0012 0000     		.space	2
 672              		.type	cfg_memcpy_list.4924, %object
 673              		.size	cfg_memcpy_list.4924, 10
 674              	cfg_memcpy_list.4924:
 675 0014 80300F40 		.word	1074737280
 676 0018 50020000 		.word	BS_UDB_0_1_1_CONFIG_VAL.4923
 677 001c 8000     		.short	128
 678 001e 0000     		.space	2
 679              		.type	cy_cfg_data_table.4912, %object
 680              		.size	cy_cfg_data_table.4912, 522
 681              	cy_cfg_data_table.4912:
 682 0020 21       		.byte	33
 683 0021 08       		.byte	8
 684 0022 31       		.byte	49
 685 0023 09       		.byte	9
 686 0024 83       		.byte	-125
 687 0025 0F       		.byte	15
 688 0026 1B       		.byte	27
 689 0027 01       		.byte	1
 690 0028 35       		.byte	53
 691 0029 01       		.byte	1
 692 002a 59       		.byte	89
 693 002b 04       		.byte	4
 694 002c 5F       		.byte	95
 695 002d 01       		.byte	1
 696 002e 05       		.byte	5
 697 002f 14       		.byte	20
 698 0030 06       		.byte	6
 699 0031 42       		.byte	66
 700 0032 0D       		.byte	13
 701 0033 80       		.byte	-128
 702 0034 15       		.byte	21
 703 0035 11       		.byte	17
 704 0036 17       		.byte	23
 705 0037 08       		.byte	8
 706 0038 1C       		.byte	28
 707 0039 81       		.byte	-127
 708 003a 1D       		.byte	29
 709 003b 34       		.byte	52
 710 003c 1F       		.byte	31
 711 003d 18       		.byte	24
 712 003e 20       		.byte	32
 713 003f 04       		.byte	4
 714 0040 24       		.byte	36
 715 0041 10       		.byte	16
 716 0042 25       		.byte	37
 717 0043 41       		.byte	65
 718 0044 26       		.byte	38
 719 0045 08       		.byte	8
 720 0046 27       		.byte	39
ARM GAS  C:\Users\leoja\AppData\Local\Temp\cce9YLC8.s 			page 27


 721 0047 08       		.byte	8
 722 0048 2C       		.byte	44
 723 0049 80       		.byte	-128
 724 004a 2F       		.byte	47
 725 004b 18       		.byte	24
 726 004c 30       		.byte	48
 727 004d 20       		.byte	32
 728 004e 35       		.byte	53
 729 004f 40       		.byte	64
 730 0050 37       		.byte	55
 731 0051 09       		.byte	9
 732 0052 3D       		.byte	61
 733 0053 90       		.byte	-112
 734 0054 3E       		.byte	62
 735 0055 02       		.byte	2
 736 0056 45       		.byte	69
 737 0057 A0       		.byte	-96
 738 0058 47       		.byte	71
 739 0059 08       		.byte	8
 740 005a 4D       		.byte	77
 741 005b 05       		.byte	5
 742 005c 54       		.byte	84
 743 005d 90       		.byte	-112
 744 005e 56       		.byte	86
 745 005f 4A       		.byte	74
 746 0060 5C       		.byte	92
 747 0061 50       		.byte	80
 748 0062 6C       		.byte	108
 749 0063 10       		.byte	16
 750 0064 6D       		.byte	109
 751 0065 10       		.byte	16
 752 0066 6E       		.byte	110
 753 0067 02       		.byte	2
 754 0068 6F       		.byte	111
 755 0069 01       		.byte	1
 756 006a 75       		.byte	117
 757 006b 21       		.byte	33
 758 006c 76       		.byte	118
 759 006d 20       		.byte	32
 760 006e 77       		.byte	119
 761 006f 02       		.byte	2
 762 0070 81       		.byte	-127
 763 0071 01       		.byte	1
 764 0072 88       		.byte	-120
 765 0073 40       		.byte	64
 766 0074 8B       		.byte	-117
 767 0075 02       		.byte	2
 768 0076 8C       		.byte	-116
 769 0077 10       		.byte	16
 770 0078 C0       		.byte	-64
 771 0079 F0       		.byte	-16
 772 007a C2       		.byte	-62
 773 007b 80       		.byte	-128
 774 007c C4       		.byte	-60
 775 007d 70       		.byte	112
 776 007e CA       		.byte	-54
 777 007f E0       		.byte	-32
ARM GAS  C:\Users\leoja\AppData\Local\Temp\cce9YLC8.s 			page 28


 778 0080 CC       		.byte	-52
 779 0081 D4       		.byte	-44
 780 0082 CE       		.byte	-50
 781 0083 B0       		.byte	-80
 782 0084 D0       		.byte	-48
 783 0085 70       		.byte	112
 784 0086 D6       		.byte	-42
 785 0087 30       		.byte	48
 786 0088 E2       		.byte	-30
 787 0089 20       		.byte	32
 788 008a E6       		.byte	-26
 789 008b 60       		.byte	96
 790 008c 04       		.byte	4
 791 008d 3D       		.byte	61
 792 008e 07       		.byte	7
 793 008f 01       		.byte	1
 794 0090 08       		.byte	8
 795 0091 07       		.byte	7
 796 0092 0A       		.byte	10
 797 0093 08       		.byte	8
 798 0094 0B       		.byte	11
 799 0095 01       		.byte	1
 800 0096 16       		.byte	22
 801 0097 40       		.byte	64
 802 0098 18       		.byte	24
 803 0099 08       		.byte	8
 804 009a 1A       		.byte	26
 805 009b 36       		.byte	54
 806 009c 1C       		.byte	28
 807 009d 11       		.byte	17
 808 009e 1E       		.byte	30
 809 009f 2A       		.byte	42
 810 00a0 22       		.byte	34
 811 00a1 10       		.byte	16
 812 00a2 26       		.byte	38
 813 00a3 40       		.byte	64
 814 00a4 28       		.byte	40
 815 00a5 03       		.byte	3
 816 00a6 2C       		.byte	44
 817 00a7 20       		.byte	32
 818 00a8 31       		.byte	49
 819 00a9 01       		.byte	1
 820 00aa 32       		.byte	50
 821 00ab 04       		.byte	4
 822 00ac 34       		.byte	52
 823 00ad 40       		.byte	64
 824 00ae 36       		.byte	54
 825 00af 3F       		.byte	63
 826 00b0 39       		.byte	57
 827 00b1 02       		.byte	2
 828 00b2 3E       		.byte	62
 829 00b3 10       		.byte	16
 830 00b4 3F       		.byte	63
 831 00b5 01       		.byte	1
 832 00b6 54       		.byte	84
 833 00b7 FF       		.byte	-1
 834 00b8 58       		.byte	88
ARM GAS  C:\Users\leoja\AppData\Local\Temp\cce9YLC8.s 			page 29


 835 00b9 04       		.byte	4
 836 00ba 59       		.byte	89
 837 00bb 04       		.byte	4
 838 00bc 5B       		.byte	91
 839 00bd 0D       		.byte	13
 840 00be 5C       		.byte	92
 841 00bf 09       		.byte	9
 842 00c0 5D       		.byte	93
 843 00c1 90       		.byte	-112
 844 00c2 5F       		.byte	95
 845 00c3 01       		.byte	1
 846 00c4 82       		.byte	-126
 847 00c5 01       		.byte	1
 848 00c6 85       		.byte	-123
 849 00c7 01       		.byte	1
 850 00c8 8A       		.byte	-118
 851 00c9 02       		.byte	2
 852 00ca 93       		.byte	-109
 853 00cb 04       		.byte	4
 854 00cc 9B       		.byte	-101
 855 00cd 01       		.byte	1
 856 00ce A3       		.byte	-93
 857 00cf 02       		.byte	2
 858 00d0 A5       		.byte	-91
 859 00d1 02       		.byte	2
 860 00d2 A6       		.byte	-90
 861 00d3 02       		.byte	2
 862 00d4 B2       		.byte	-78
 863 00d5 01       		.byte	1
 864 00d6 B3       		.byte	-77
 865 00d7 04       		.byte	4
 866 00d8 B4       		.byte	-76
 867 00d9 02       		.byte	2
 868 00da B5       		.byte	-75
 869 00db 02       		.byte	2
 870 00dc B7       		.byte	-73
 871 00dd 01       		.byte	1
 872 00de C0       		.byte	-64
 873 00df 30       		.byte	48
 874 00e0 C1       		.byte	-63
 875 00e1 06       		.byte	6
 876 00e2 C5       		.byte	-59
 877 00e3 D1       		.byte	-47
 878 00e4 C6       		.byte	-58
 879 00e5 05       		.byte	5
 880 00e6 C7       		.byte	-57
 881 00e7 02       		.byte	2
 882 00e8 C8       		.byte	-56
 883 00e9 17       		.byte	23
 884 00ea C9       		.byte	-55
 885 00eb FF       		.byte	-1
 886 00ec CA       		.byte	-54
 887 00ed FF       		.byte	-1
 888 00ee CB       		.byte	-53
 889 00ef FF       		.byte	-1
 890 00f0 CD       		.byte	-51
 891 00f1 A0       		.byte	-96
ARM GAS  C:\Users\leoja\AppData\Local\Temp\cce9YLC8.s 			page 30


 892 00f2 CF       		.byte	-49
 893 00f3 04       		.byte	4
 894 00f4 D0       		.byte	-48
 895 00f5 18       		.byte	24
 896 00f6 D2       		.byte	-46
 897 00f7 80       		.byte	-128
 898 00f8 D4       		.byte	-44
 899 00f9 07       		.byte	7
 900 00fa D8       		.byte	-40
 901 00fb 04       		.byte	4
 902 00fc D9       		.byte	-39
 903 00fd 04       		.byte	4
 904 00fe DA       		.byte	-38
 905 00ff 04       		.byte	4
 906 0100 DB       		.byte	-37
 907 0101 04       		.byte	4
 908 0102 DF       		.byte	-33
 909 0103 01       		.byte	1
 910 0104 E0       		.byte	-32
 911 0105 40       		.byte	64
 912 0106 E2       		.byte	-30
 913 0107 C0       		.byte	-64
 914 0108 E4       		.byte	-28
 915 0109 40       		.byte	64
 916 010a E5       		.byte	-27
 917 010b 40       		.byte	64
 918 010c E6       		.byte	-26
 919 010d C0       		.byte	-64
 920 010e E8       		.byte	-24
 921 010f C0       		.byte	-64
 922 0110 EA       		.byte	-22
 923 0111 C0       		.byte	-64
 924 0112 EC       		.byte	-20
 925 0113 C0       		.byte	-64
 926 0114 EE       		.byte	-18
 927 0115 C0       		.byte	-64
 928 0116 00       		.byte	0
 929 0117 10       		.byte	16
 930 0118 03       		.byte	3
 931 0119 80       		.byte	-128
 932 011a 05       		.byte	5
 933 011b 04       		.byte	4
 934 011c 07       		.byte	7
 935 011d 08       		.byte	8
 936 011e 0C       		.byte	12
 937 011f 08       		.byte	8
 938 0120 0D       		.byte	13
 939 0121 A0       		.byte	-96
 940 0122 10       		.byte	16
 941 0123 20       		.byte	32
 942 0124 15       		.byte	21
 943 0125 08       		.byte	8
 944 0126 16       		.byte	22
 945 0127 4A       		.byte	74
 946 0128 19       		.byte	25
 947 0129 08       		.byte	8
 948 012a 1B       		.byte	27
ARM GAS  C:\Users\leoja\AppData\Local\Temp\cce9YLC8.s 			page 31


 949 012b 20       		.byte	32
 950 012c 1D       		.byte	29
 951 012d C0       		.byte	-64
 952 012e 1E       		.byte	30
 953 012f 24       		.byte	36
 954 0130 20       		.byte	32
 955 0131 10       		.byte	16
 956 0132 21       		.byte	33
 957 0133 04       		.byte	4
 958 0134 22       		.byte	34
 959 0135 50       		.byte	80
 960 0136 24       		.byte	36
 961 0137 40       		.byte	64
 962 0138 29       		.byte	41
 963 0139 08       		.byte	8
 964 013a 2B       		.byte	43
 965 013b 80       		.byte	-128
 966 013c 30       		.byte	48
 967 013d 20       		.byte	32
 968 013e 31       		.byte	49
 969 013f 02       		.byte	2
 970 0140 38       		.byte	56
 971 0141 04       		.byte	4
 972 0142 3C       		.byte	60
 973 0143 20       		.byte	32
 974 0144 3D       		.byte	61
 975 0145 04       		.byte	4
 976 0146 40       		.byte	64
 977 0147 10       		.byte	16
 978 0148 48       		.byte	72
 979 0149 28       		.byte	40
 980 014a 49       		.byte	73
 981 014b 01       		.byte	1
 982 014c 50       		.byte	80
 983 014d 08       		.byte	8
 984 014e 53       		.byte	83
 985 014f 80       		.byte	-128
 986 0150 59       		.byte	89
 987 0151 01       		.byte	1
 988 0152 5A       		.byte	90
 989 0153 A4       		.byte	-92
 990 0154 5C       		.byte	92
 991 0155 08       		.byte	8
 992 0156 5D       		.byte	93
 993 0157 21       		.byte	33
 994 0158 5F       		.byte	95
 995 0159 40       		.byte	64
 996 015a 64       		.byte	100
 997 015b A2       		.byte	-94
 998 015c 67       		.byte	103
 999 015d 04       		.byte	4
 1000 015e 71       		.byte	113
 1001 015f 02       		.byte	2
 1002 0160 7E       		.byte	126
 1003 0161 08       		.byte	8
 1004 0162 80       		.byte	-128
 1005 0163 20       		.byte	32
ARM GAS  C:\Users\leoja\AppData\Local\Temp\cce9YLC8.s 			page 32


 1006 0164 81       		.byte	-127
 1007 0165 20       		.byte	32
 1008 0166 84       		.byte	-124
 1009 0167 80       		.byte	-128
 1010 0168 86       		.byte	-122
 1011 0169 10       		.byte	16
 1012 016a 89       		.byte	-119
 1013 016b 01       		.byte	1
 1014 016c 8B       		.byte	-117
 1015 016d 64       		.byte	100
 1016 016e 8C       		.byte	-116
 1017 016f 0A       		.byte	10
 1018 0170 90       		.byte	-112
 1019 0171 04       		.byte	4
 1020 0172 91       		.byte	-111
 1021 0173 04       		.byte	4
 1022 0174 94       		.byte	-108
 1023 0175 40       		.byte	64
 1024 0176 99       		.byte	-103
 1025 0177 04       		.byte	4
 1026 0178 9A       		.byte	-102
 1027 0179 4A       		.byte	74
 1028 017a 9B       		.byte	-101
 1029 017b 08       		.byte	8
 1030 017c 9D       		.byte	-99
 1031 017d 40       		.byte	64
 1032 017e A0       		.byte	-96
 1033 017f 10       		.byte	16
 1034 0180 A1       		.byte	-95
 1035 0181 20       		.byte	32
 1036 0182 A2       		.byte	-94
 1037 0183 08       		.byte	8
 1038 0184 A4       		.byte	-92
 1039 0185 20       		.byte	32
 1040 0186 A5       		.byte	-91
 1041 0187 80       		.byte	-128
 1042 0188 A9       		.byte	-87
 1043 0189 01       		.byte	1
 1044 018a AA       		.byte	-86
 1045 018b 20       		.byte	32
 1046 018c AD       		.byte	-83
 1047 018d 20       		.byte	32
 1048 018e AF       		.byte	-81
 1049 018f 01       		.byte	1
 1050 0190 B1       		.byte	-79
 1051 0191 50       		.byte	80
 1052 0192 B4       		.byte	-76
 1053 0193 01       		.byte	1
 1054 0194 B6       		.byte	-74
 1055 0195 01       		.byte	1
 1056 0196 C0       		.byte	-64
 1057 0197 6A       		.byte	106
 1058 0198 C2       		.byte	-62
 1059 0199 E0       		.byte	-32
 1060 019a C4       		.byte	-60
 1061 019b F4       		.byte	-12
 1062 019c CA       		.byte	-54
ARM GAS  C:\Users\leoja\AppData\Local\Temp\cce9YLC8.s 			page 33


 1063 019d 03       		.byte	3
 1064 019e CC       		.byte	-52
 1065 019f 05       		.byte	5
 1066 01a0 CE       		.byte	-50
 1067 01a1 62       		.byte	98
 1068 01a2 D0       		.byte	-48
 1069 01a3 02       		.byte	2
 1070 01a4 D2       		.byte	-46
 1071 01a5 04       		.byte	4
 1072 01a6 D6       		.byte	-42
 1073 01a7 FF       		.byte	-1
 1074 01a8 D8       		.byte	-40
 1075 01a9 F0       		.byte	-16
 1076 01aa DE       		.byte	-34
 1077 01ab 20       		.byte	32
 1078 01ac E0       		.byte	-32
 1079 01ad 70       		.byte	112
 1080 01ae E4       		.byte	-28
 1081 01af A0       		.byte	-96
 1082 01b0 EA       		.byte	-22
 1083 01b1 90       		.byte	-112
 1084 01b2 EE       		.byte	-18
 1085 01b3 30       		.byte	48
 1086 01b4 51       		.byte	81
 1087 01b5 02       		.byte	2
 1088 01b6 59       		.byte	89
 1089 01b7 04       		.byte	4
 1090 01b8 5F       		.byte	95
 1091 01b9 80       		.byte	-128
 1092 01ba 66       		.byte	102
 1093 01bb 80       		.byte	-128
 1094 01bc 82       		.byte	-126
 1095 01bd 01       		.byte	1
 1096 01be 8A       		.byte	-118
 1097 01bf 01       		.byte	1
 1098 01c0 8B       		.byte	-117
 1099 01c1 80       		.byte	-128
 1100 01c2 8E       		.byte	-114
 1101 01c3 40       		.byte	64
 1102 01c4 D4       		.byte	-44
 1103 01c5 80       		.byte	-128
 1104 01c6 D6       		.byte	-42
 1105 01c7 E0       		.byte	-32
 1106 01c8 E2       		.byte	-30
 1107 01c9 20       		.byte	32
 1108 01ca 00       		.byte	0
 1109 01cb 08       		.byte	8
 1110 01cc 01       		.byte	1
 1111 01cd 40       		.byte	64
 1112 01ce 05       		.byte	5
 1113 01cf 84       		.byte	-124
 1114 01d0 09       		.byte	9
 1115 01d1 01       		.byte	1
 1116 01d2 0B       		.byte	11
 1117 01d3 02       		.byte	2
 1118 01d4 0C       		.byte	12
 1119 01d5 18       		.byte	24
ARM GAS  C:\Users\leoja\AppData\Local\Temp\cce9YLC8.s 			page 34


 1120 01d6 34       		.byte	52
 1121 01d7 40       		.byte	64
 1122 01d8 52       		.byte	82
 1123 01d9 10       		.byte	16
 1124 01da 57       		.byte	87
 1125 01db 80       		.byte	-128
 1126 01dc 5A       		.byte	90
 1127 01dd 82       		.byte	-126
 1128 01de 5C       		.byte	92
 1129 01df 02       		.byte	2
 1130 01e0 5E       		.byte	94
 1131 01e1 40       		.byte	64
 1132 01e2 62       		.byte	98
 1133 01e3 01       		.byte	1
 1134 01e4 65       		.byte	101
 1135 01e5 01       		.byte	1
 1136 01e6 81       		.byte	-127
 1137 01e7 04       		.byte	4
 1138 01e8 83       		.byte	-125
 1139 01e9 01       		.byte	1
 1140 01ea 84       		.byte	-124
 1141 01eb 50       		.byte	80
 1142 01ec 88       		.byte	-120
 1143 01ed 0C       		.byte	12
 1144 01ee 89       		.byte	-119
 1145 01ef 80       		.byte	-128
 1146 01f0 8D       		.byte	-115
 1147 01f1 41       		.byte	65
 1148 01f2 92       		.byte	-110
 1149 01f3 C2       		.byte	-62
 1150 01f4 98       		.byte	-104
 1151 01f5 02       		.byte	2
 1152 01f6 99       		.byte	-103
 1153 01f7 01       		.byte	1
 1154 01f8 9A       		.byte	-102
 1155 01f9 11       		.byte	17
 1156 01fa A3       		.byte	-93
 1157 01fb 80       		.byte	-128
 1158 01fc A9       		.byte	-87
 1159 01fd 05       		.byte	5
 1160 01fe AC       		.byte	-84
 1161 01ff 02       		.byte	2
 1162 0200 AE       		.byte	-82
 1163 0201 10       		.byte	16
 1164 0202 B2       		.byte	-78
 1165 0203 80       		.byte	-128
 1166 0204 B3       		.byte	-77
 1167 0205 80       		.byte	-128
 1168 0206 B5       		.byte	-75
 1169 0207 02       		.byte	2
 1170 0208 B6       		.byte	-74
 1171 0209 40       		.byte	64
 1172 020a C0       		.byte	-64
 1173 020b F0       		.byte	-16
 1174 020c C2       		.byte	-62
 1175 020d F0       		.byte	-16
 1176 020e CC       		.byte	-52
ARM GAS  C:\Users\leoja\AppData\Local\Temp\cce9YLC8.s 			page 35


 1177 020f 20       		.byte	32
 1178 0210 D4       		.byte	-44
 1179 0211 E0       		.byte	-32
 1180 0212 D6       		.byte	-42
 1181 0213 E0       		.byte	-32
 1182 0214 D8       		.byte	-40
 1183 0215 C0       		.byte	-64
 1184 0216 E4       		.byte	-28
 1185 0217 E0       		.byte	-32
 1186 0218 E6       		.byte	-26
 1187 0219 10       		.byte	16
 1188 021a EA       		.byte	-22
 1189 021b 60       		.byte	96
 1190 021c EE       		.byte	-18
 1191 021d C0       		.byte	-64
 1192 021e 66       		.byte	102
 1193 021f 02       		.byte	2
 1194 0220 8A       		.byte	-118
 1195 0221 02       		.byte	2
 1196 0222 D8       		.byte	-40
 1197 0223 01       		.byte	1
 1198 0224 E0       		.byte	-32
 1199 0225 01       		.byte	1
 1200 0226 10       		.byte	16
 1201 0227 01       		.byte	1
 1202 0228 11       		.byte	17
 1203 0229 01       		.byte	1
 1204 022a 0000     		.space	2
 1205              		.type	cy_cfg_addr_table.4911, %object
 1206              		.size	cy_cfg_addr_table.4911, 36
 1207              	cy_cfg_addr_table.4911:
 1208 022c 03000F40 		.word	1074724867
 1209 0230 04300F40 		.word	1074737156
 1210 0234 2F310F40 		.word	1074737455
 1211 0238 45320F40 		.word	1074737733
 1212 023c 4F330F40 		.word	1074737999
 1213 0240 0B400F40 		.word	1074741259
 1214 0244 2A410F40 		.word	1074741546
 1215 0248 04430F40 		.word	1074742020
 1216 024c 02600F40 		.word	1074749442
 1217              		.type	BS_UDB_0_1_1_CONFIG_VAL.4923, %object
 1218              		.size	BS_UDB_0_1_1_CONFIG_VAL.4923, 128
 1219              	BS_UDB_0_1_1_CONFIG_VAL.4923:
 1220 0250 08       		.byte	8
 1221 0251 00       		.byte	0
 1222 0252 00       		.byte	0
 1223 0253 04       		.byte	4
 1224 0254 DE       		.byte	-34
 1225 0255 00       		.byte	0
 1226 0256 21       		.byte	33
 1227 0257 00       		.byte	0
 1228 0258 25       		.byte	37
 1229 0259 00       		.byte	0
 1230 025a 1A       		.byte	26
 1231 025b 02       		.byte	2
 1232 025c 10       		.byte	16
 1233 025d 20       		.byte	32
ARM GAS  C:\Users\leoja\AppData\Local\Temp\cce9YLC8.s 			page 36


 1234 025e 00       		.byte	0
 1235 025f 40       		.byte	64
 1236 0260 00       		.byte	0
 1237 0261 40       		.byte	64
 1238 0262 00       		.byte	0
 1239 0263 20       		.byte	32
 1240 0264 00       		.byte	0
 1241 0265 68       		.byte	104
 1242 0266 00       		.byte	0
 1243 0267 15       		.byte	21
 1244 0268 00       		.byte	0
 1245 0269 00       		.byte	0
 1246 026a 00       		.byte	0
 1247 026b 00       		.byte	0
 1248 026c A9       		.byte	-87
 1249 026d 7A       		.byte	122
 1250 026e 50       		.byte	80
 1251 026f 04       		.byte	4
 1252 0270 01       		.byte	1
 1253 0271 00       		.byte	0
 1254 0272 20       		.byte	32
 1255 0273 10       		.byte	16
 1256 0274 63       		.byte	99
 1257 0275 62       		.byte	98
 1258 0276 84       		.byte	-124
 1259 0277 1C       		.byte	28
 1260 0278 21       		.byte	33
 1261 0279 18       		.byte	24
 1262 027a 00       		.byte	0
 1263 027b 63       		.byte	99
 1264 027c 00       		.byte	0
 1265 027d 00       		.byte	0
 1266 027e 00       		.byte	0
 1267 027f 00       		.byte	0
 1268 0280 82       		.byte	-126
 1269 0281 08       		.byte	8
 1270 0282 60       		.byte	96
 1271 0283 10       		.byte	16
 1272 0284 1F       		.byte	31
 1273 0285 07       		.byte	7
 1274 0286 80       		.byte	-128
 1275 0287 60       		.byte	96
 1276 0288 82       		.byte	-126
 1277 0289 02       		.byte	2
 1278 028a 00       		.byte	0
 1279 028b A0       		.byte	-96
 1280 028c 00       		.byte	0
 1281 028d 00       		.byte	0
 1282 028e 00       		.byte	0
 1283 028f 04       		.byte	4
 1284 0290 21       		.byte	33
 1285 0291 03       		.byte	3
 1286 0292 00       		.byte	0
 1287 0293 00       		.byte	0
 1288 0294 00       		.byte	0
 1289 0295 DF       		.byte	-33
 1290 0296 E2       		.byte	-30
ARM GAS  C:\Users\leoja\AppData\Local\Temp\cce9YLC8.s 			page 37


 1291 0297 6C       		.byte	108
 1292 0298 3F       		.byte	63
 1293 0299 FF       		.byte	-1
 1294 029a FF       		.byte	-1
 1295 029b FF       		.byte	-1
 1296 029c 00       		.byte	0
 1297 029d 00       		.byte	0
 1298 029e 00       		.byte	0
 1299 029f 00       		.byte	0
 1300 02a0 04       		.byte	4
 1301 02a1 00       		.byte	0
 1302 02a2 00       		.byte	0
 1303 02a3 00       		.byte	0
 1304 02a4 02       		.byte	2
 1305 02a5 00       		.byte	0
 1306 02a6 01       		.byte	1
 1307 02a7 00       		.byte	0
 1308 02a8 04       		.byte	4
 1309 02a9 04       		.byte	4
 1310 02aa 04       		.byte	4
 1311 02ab 04       		.byte	4
 1312 02ac 99       		.byte	-103
 1313 02ad 99       		.byte	-103
 1314 02ae 00       		.byte	0
 1315 02af 01       		.byte	1
 1316 02b0 00       		.byte	0
 1317 02b1 00       		.byte	0
 1318 02b2 C0       		.byte	-64
 1319 02b3 00       		.byte	0
 1320 02b4 30       		.byte	48
 1321 02b5 00       		.byte	0
 1322 02b6 00       		.byte	0
 1323 02b7 10       		.byte	16
 1324 02b8 80       		.byte	-128
 1325 02b9 00       		.byte	0
 1326 02ba 20       		.byte	32
 1327 02bb 00       		.byte	0
 1328 02bc 40       		.byte	64
 1329 02bd 40       		.byte	64
 1330 02be 10       		.byte	16
 1331 02bf 50       		.byte	80
 1332 02c0 00       		.byte	0
 1333 02c1 00       		.byte	0
 1334 02c2 00       		.byte	0
 1335 02c3 00       		.byte	0
 1336 02c4 00       		.byte	0
 1337 02c5 00       		.byte	0
 1338 02c6 00       		.byte	0
 1339 02c7 00       		.byte	0
 1340 02c8 00       		.byte	0
 1341 02c9 00       		.byte	0
 1342 02ca 00       		.byte	0
 1343 02cb 00       		.byte	0
 1344 02cc 00       		.byte	0
 1345 02cd 00       		.byte	0
 1346 02ce 00       		.byte	0
 1347 02cf 00       		.byte	0
ARM GAS  C:\Users\leoja\AppData\Local\Temp\cce9YLC8.s 			page 38


 1348              		.text
 1349              	.Letext0:
 1350              		.file 2 "c:\\program files (x86)\\cypress\\psoc creator\\4.4\\psoc creator\\import\\gnu\\arm\\5.4.
 1351              		.file 3 "Generated_Source\\PSoC4\\cytypes.h"
 1352              		.file 4 "Generated_Source\\PSoC4\\CyLib.h"