ARM GAS  C:\Users\leoja\AppData\Local\Temp\cc39o2Na.s 			page 1


   1              		.syntax unified
   2              		.cpu cortex-m0
   3              		.fpu softvfp
   4              		.eabi_attribute 20, 1
   5              		.eabi_attribute 21, 1
   6              		.eabi_attribute 23, 3
   7              		.eabi_attribute 24, 1
   8              		.eabi_attribute 25, 1
   9              		.eabi_attribute 26, 1
  10              		.eabi_attribute 30, 1
  11              		.eabi_attribute 34, 0
  12              		.eabi_attribute 18, 4
  13              		.thumb
  14              		.syntax unified
  15              		.file	"frucd_display.c"
  16              		.text
  17              	.Ltext0:
  18              		.cfi_sections	.debug_frame
  19              		.section	.text.calibrateScreen,"ax",%progbits
  20              		.align	2
  21              		.global	calibrateScreen
  22              		.code	16
  23              		.thumb_func
  24              		.type	calibrateScreen, %function
  25              	calibrateScreen:
  26              	.LFB35:
  27              		.file 1 "frucd_display.c"
   1:frucd_display.c **** /* ========================================
   2:frucd_display.c ****  *
   3:frucd_display.c ****  * APIs for updating FRUCD Dashboard display
   4:frucd_display.c ****  *
   5:frucd_display.c ****  * ========================================
   6:frucd_display.c **** */
   7:frucd_display.c **** #include "frucd_display.h"
   8:frucd_display.c **** 
   9:frucd_display.c **** // Just a test function that displays elements at the supposed corners of the screen
  10:frucd_display.c **** void calibrateScreen() {
  28              		.loc 1 10 0
  29              		.cfi_startproc
  30              		@ args = 0, pretend = 0, frame = 0
  31              		@ frame_needed = 0, uses_anonymous_args = 0
  32 0000 F0B5     		push	{r4, r5, r6, r7, lr}
  33              		.cfi_def_cfa_offset 20
  34              		.cfi_offset 4, -20
  35              		.cfi_offset 5, -16
  36              		.cfi_offset 6, -12
  37              		.cfi_offset 7, -8
  38              		.cfi_offset 14, -4
  39 0002 83B0     		sub	sp, sp, #12
  40              		.cfi_def_cfa_offset 32
  11:frucd_display.c ****     UG_FillScreen(C_WHITE);
  41              		.loc 1 11 0
  42 0004 1948     		ldr	r0, .L2
  43 0006 FFF7FEFF 		bl	UG_FillScreen
  44              	.LVL0:
  12:frucd_display.c ****     //libTFT_FillRectangle(0, 0, 10, 10, RED);
  13:frucd_display.c ****     UG_FillFrame(0, 0, 10, 10, C_RED);
ARM GAS  C:\Users\leoja\AppData\Local\Temp\cc39o2Na.s 			page 2


  45              		.loc 1 13 0
  46 000a FF23     		movs	r3, #255
  47 000c 1B04     		lsls	r3, r3, #16
  48 000e 0093     		str	r3, [sp]
  49 0010 0A23     		movs	r3, #10
  50 0012 0A22     		movs	r2, #10
  51 0014 0021     		movs	r1, #0
  52 0016 0020     		movs	r0, #0
  53 0018 FFF7FEFF 		bl	UG_FillFrame
  54              	.LVL1:
  14:frucd_display.c ****     //libTFT_FillRectangle(0, 262, 10, 10, BLUE);
  15:frucd_display.c ****     UG_FillFrame(0, 262, 10, 272, C_BLUE);
  55              		.loc 1 15 0
  56 001c 8827     		movs	r7, #136
  57 001e 7F00     		lsls	r7, r7, #1
  58 0020 8325     		movs	r5, #131
  59 0022 6D00     		lsls	r5, r5, #1
  60 0024 FF23     		movs	r3, #255
  61 0026 0093     		str	r3, [sp]
  62 0028 3B00     		movs	r3, r7
  63 002a 0A22     		movs	r2, #10
  64 002c 2900     		movs	r1, r5
  65 002e 0020     		movs	r0, #0
  66 0030 FFF7FEFF 		bl	UG_FillFrame
  67              	.LVL2:
  16:frucd_display.c ****     //libTFT_FillRectangle(470, 0, 10, 10, GREEN);
  17:frucd_display.c ****     UG_FillFrame(470, 0, 480, 10, C_GREEN);
  68              		.loc 1 17 0
  69 0034 F026     		movs	r6, #240
  70 0036 7600     		lsls	r6, r6, #1
  71 0038 EB24     		movs	r4, #235
  72 003a 6400     		lsls	r4, r4, #1
  73 003c FF23     		movs	r3, #255
  74 003e 1B02     		lsls	r3, r3, #8
  75 0040 0093     		str	r3, [sp]
  76 0042 0A23     		movs	r3, #10
  77 0044 3200     		movs	r2, r6
  78 0046 0021     		movs	r1, #0
  79 0048 2000     		movs	r0, r4
  80 004a FFF7FEFF 		bl	UG_FillFrame
  81              	.LVL3:
  18:frucd_display.c ****     //libTFT_FillRectangle(470, 262, 10, 10, YELLOW);
  19:frucd_display.c ****     UG_FillFrame(470, 262, 480, 272, C_YELLOW);
  82              		.loc 1 19 0
  83 004e 084B     		ldr	r3, .L2+4
  84 0050 0093     		str	r3, [sp]
  85 0052 3B00     		movs	r3, r7
  86 0054 3200     		movs	r2, r6
  87 0056 2900     		movs	r1, r5
  88 0058 2000     		movs	r0, r4
  89 005a FFF7FEFF 		bl	UG_FillFrame
  90              	.LVL4:
  20:frucd_display.c ****     CyDelay(300);
  91              		.loc 1 20 0
  92 005e 9620     		movs	r0, #150
  93 0060 4000     		lsls	r0, r0, #1
  94 0062 FFF7FEFF 		bl	CyDelay
ARM GAS  C:\Users\leoja\AppData\Local\Temp\cc39o2Na.s 			page 3


  95              	.LVL5:
  21:frucd_display.c **** }
  96              		.loc 1 21 0
  97 0066 03B0     		add	sp, sp, #12
  98              		@ sp needed
  99 0068 F0BD     		pop	{r4, r5, r6, r7, pc}
 100              	.L3:
 101 006a C046     		.align	2
 102              	.L2:
 103 006c FFFFFF00 		.word	16777215
 104 0070 00FFFF00 		.word	16776960
 105              		.cfi_endproc
 106              	.LFE35:
 107              		.size	calibrateScreen, .-calibrateScreen
 108              		.section	.text.initDashTemplate,"ax",%progbits
 109              		.align	2
 110              		.global	initDashTemplate
 111              		.code	16
 112              		.thumb_func
 113              		.type	initDashTemplate, %function
 114              	initDashTemplate:
 115              	.LFB36:
  22:frucd_display.c **** 
  23:frucd_display.c **** // Initializes dashboard layout/labels
  24:frucd_display.c **** void initDashTemplate() {
 116              		.loc 1 24 0
 117              		.cfi_startproc
 118              		@ args = 0, pretend = 0, frame = 0
 119              		@ frame_needed = 0, uses_anonymous_args = 0
 120 0000 10B5     		push	{r4, lr}
 121              		.cfi_def_cfa_offset 8
 122              		.cfi_offset 4, -8
 123              		.cfi_offset 14, -4
  25:frucd_display.c ****     UG_FillScreen(C_BLACK);
 124              		.loc 1 25 0
 125 0002 0020     		movs	r0, #0
 126 0004 FFF7FEFF 		bl	UG_FillScreen
 127              	.LVL6:
  26:frucd_display.c ****     UG_PutString(68, 10, "PACK SOC");
 128              		.loc 1 26 0
 129 0008 104A     		ldr	r2, .L5
 130 000a 0A21     		movs	r1, #10
 131 000c 4420     		movs	r0, #68
 132 000e FFF7FEFF 		bl	UG_PutString
 133              	.LVL7:
  27:frucd_display.c ****     UG_PutString(297, 10, "MAX PACK T");
 134              		.loc 1 27 0
 135 0012 0F4A     		ldr	r2, .L5+4
 136 0014 0A21     		movs	r1, #10
 137 0016 2A20     		movs	r0, #42
 138 0018 FF30     		adds	r0, r0, #255
 139 001a FFF7FEFF 		bl	UG_PutString
 140              	.LVL8:
  28:frucd_display.c ****     UG_PutString(10, 195, "STATE:");
 141              		.loc 1 28 0
 142 001e 0D4A     		ldr	r2, .L5+8
 143 0020 C321     		movs	r1, #195
ARM GAS  C:\Users\leoja\AppData\Local\Temp\cc39o2Na.s 			page 4


 144 0022 0A20     		movs	r0, #10
 145 0024 FFF7FEFF 		bl	UG_PutString
 146              	.LVL9:
  29:frucd_display.c ****     UG_PutString(10, 240, "GLV V:");
 147              		.loc 1 29 0
 148 0028 0B4A     		ldr	r2, .L5+12
 149 002a F021     		movs	r1, #240
 150 002c 0A20     		movs	r0, #10
 151 002e FFF7FEFF 		bl	UG_PutString
 152              	.LVL10:
  30:frucd_display.c ****     UG_PutString(339, 195, "MC T:");
 153              		.loc 1 30 0
 154 0032 0A4A     		ldr	r2, .L5+16
 155 0034 C321     		movs	r1, #195
 156 0036 5420     		movs	r0, #84
 157 0038 FF30     		adds	r0, r0, #255
 158 003a FFF7FEFF 		bl	UG_PutString
 159              	.LVL11:
  31:frucd_display.c ****     UG_PutString(300, 240, "MOTOR T:");
 160              		.loc 1 31 0
 161 003e 084A     		ldr	r2, .L5+20
 162 0040 F021     		movs	r1, #240
 163 0042 9620     		movs	r0, #150
 164 0044 4000     		lsls	r0, r0, #1
 165 0046 FFF7FEFF 		bl	UG_PutString
 166              	.LVL12:
  32:frucd_display.c **** }
 167              		.loc 1 32 0
 168              		@ sp needed
 169 004a 10BD     		pop	{r4, pc}
 170              	.L6:
 171              		.align	2
 172              	.L5:
 173 004c 00000000 		.word	.LC0
 174 0050 0C000000 		.word	.LC2
 175 0054 18000000 		.word	.LC4
 176 0058 20000000 		.word	.LC6
 177 005c 28000000 		.word	.LC8
 178 0060 30000000 		.word	.LC10
 179              		.cfi_endproc
 180              	.LFE36:
 181              		.size	initDashTemplate, .-initDashTemplate
 182              		.section	.text.disp_SOC,"ax",%progbits
 183              		.align	2
 184              		.global	disp_SOC
 185              		.code	16
 186              		.thumb_func
 187              		.type	disp_SOC, %function
 188              	disp_SOC:
 189              	.LFB37:
  33:frucd_display.c **** 
  34:frucd_display.c **** /*
  35:frucd_display.c ****  * BEGIN: functions to show data on dash
  36:frucd_display.c ****  * - handle variety of digit counts
  37:frucd_display.c ****  * - color decision logic is in here
  38:frucd_display.c ****  */
  39:frucd_display.c **** void disp_SOC(uint8_t data) {
ARM GAS  C:\Users\leoja\AppData\Local\Temp\cc39o2Na.s 			page 5


 190              		.loc 1 39 0
 191              		.cfi_startproc
 192              		@ args = 0, pretend = 0, frame = 8
 193              		@ frame_needed = 0, uses_anonymous_args = 0
 194              	.LVL13:
 195 0000 30B5     		push	{r4, r5, lr}
 196              		.cfi_def_cfa_offset 12
 197              		.cfi_offset 4, -12
 198              		.cfi_offset 5, -8
 199              		.cfi_offset 14, -4
 200 0002 85B0     		sub	sp, sp, #20
 201              		.cfi_def_cfa_offset 32
 202 0004 0400     		movs	r4, r0
  40:frucd_display.c ****     UG_FontSelect(&FONT_32X53);
 203              		.loc 1 40 0
 204 0006 3848     		ldr	r0, .L18
 205              	.LVL14:
 206 0008 FFF7FEFF 		bl	UG_FontSelect
 207              	.LVL15:
  41:frucd_display.c ****     UG_COLOR color;
  42:frucd_display.c ****     if (data == 100) {
 208              		.loc 1 42 0
 209 000c 642C     		cmp	r4, #100
 210 000e 19D1     		bne	.L8
 211              	.LVL16:
  43:frucd_display.c ****         // handle 100% case
  44:frucd_display.c ****         color = C_GREEN;
  45:frucd_display.c ****         if (color != last_SOC_color) {
 212              		.loc 1 45 0
 213 0010 364B     		ldr	r3, .L18+4
 214 0012 1A68     		ldr	r2, [r3]
 215 0014 FF23     		movs	r3, #255
 216 0016 1B02     		lsls	r3, r3, #8
 217 0018 9A42     		cmp	r2, r3
 218 001a 09D0     		beq	.L9
  46:frucd_display.c ****             // only draw rectangle if color changed
  47:frucd_display.c ****             UG_FillFrame(30, 35, 210, 170, color);
 219              		.loc 1 47 0
 220 001c 1C00     		movs	r4, r3
 221 001e 0093     		str	r3, [sp]
 222 0020 AA23     		movs	r3, #170
 223 0022 D222     		movs	r2, #210
 224 0024 2321     		movs	r1, #35
 225 0026 1E20     		movs	r0, #30
 226 0028 FFF7FEFF 		bl	UG_FillFrame
 227              	.LVL17:
  48:frucd_display.c ****             last_SOC_color = color;
 228              		.loc 1 48 0
 229 002c 2F4B     		ldr	r3, .L18+4
 230 002e 1C60     		str	r4, [r3]
 231              	.L9:
  49:frucd_display.c ****         }
  50:frucd_display.c ****         UG_PutColorString(55, 80, "100%", C_BLACK, C_GREEN);
 232              		.loc 1 50 0
 233 0030 FF23     		movs	r3, #255
 234 0032 1B02     		lsls	r3, r3, #8
 235 0034 0093     		str	r3, [sp]
ARM GAS  C:\Users\leoja\AppData\Local\Temp\cc39o2Na.s 			page 6


 236 0036 0023     		movs	r3, #0
 237 0038 2D4A     		ldr	r2, .L18+8
 238 003a 5021     		movs	r1, #80
 239 003c 3720     		movs	r0, #55
 240 003e FFF7FEFF 		bl	UG_PutColorString
 241              	.LVL18:
 242 0042 4BE0     		b	.L10
 243              	.LVL19:
 244              	.L8:
 245              	.LBB2:
  51:frucd_display.c ****     } else {
  52:frucd_display.c ****         // handle other cases
  53:frucd_display.c ****         char data_s[4];
  54:frucd_display.c ****         sprintf(data_s, "%d", data);
 246              		.loc 1 54 0
 247 0044 2200     		movs	r2, r4
 248 0046 2B49     		ldr	r1, .L18+12
 249 0048 03A8     		add	r0, sp, #12
 250 004a FFF7FEFF 		bl	sprintf
 251              	.LVL20:
  55:frucd_display.c ****         if (data >= 10) {
 252              		.loc 1 55 0
 253 004e 092C     		cmp	r4, #9
 254 0050 28D9     		bls	.L11
  56:frucd_display.c ****             // handle 2 digit cases
  57:frucd_display.c ****             // choose color
  58:frucd_display.c ****             if (data > 75) {
 255              		.loc 1 58 0
 256 0052 4B2C     		cmp	r4, #75
 257 0054 05D8     		bhi	.L15
  59:frucd_display.c ****                 color = C_GREEN;
  60:frucd_display.c ****             } else if (data > 50) {
 258              		.loc 1 60 0
 259 0056 322C     		cmp	r4, #50
 260 0058 06D8     		bhi	.L16
  61:frucd_display.c ****                 color = C_YELLOW;
  62:frucd_display.c ****             } else if (data > 25) {
 261              		.loc 1 62 0
 262 005a 192C     		cmp	r4, #25
 263 005c 06D9     		bls	.L17
  63:frucd_display.c ****                 color = C_ORANGE;
 264              		.loc 1 63 0
 265 005e 264C     		ldr	r4, .L18+16
 266 0060 06E0     		b	.L12
 267              	.L15:
  59:frucd_display.c ****                 color = C_GREEN;
 268              		.loc 1 59 0
 269 0062 FF24     		movs	r4, #255
 270 0064 2402     		lsls	r4, r4, #8
 271 0066 03E0     		b	.L12
 272              	.L16:
  61:frucd_display.c ****                 color = C_YELLOW;
 273              		.loc 1 61 0
 274 0068 244C     		ldr	r4, .L18+20
 275 006a 01E0     		b	.L12
 276              	.L17:
  64:frucd_display.c ****             } else {
ARM GAS  C:\Users\leoja\AppData\Local\Temp\cc39o2Na.s 			page 7


  65:frucd_display.c ****                 color = C_RED;
 277              		.loc 1 65 0
 278 006c FF24     		movs	r4, #255
 279 006e 2404     		lsls	r4, r4, #16
 280              	.L12:
 281              	.LVL21:
  66:frucd_display.c ****             }
  67:frucd_display.c ****             data_s[2] = '%';
 282              		.loc 1 67 0
 283 0070 03AB     		add	r3, sp, #12
 284 0072 2522     		movs	r2, #37
 285 0074 9A70     		strb	r2, [r3, #2]
  68:frucd_display.c ****             data_s[3] = '\0';
 286              		.loc 1 68 0
 287 0076 0022     		movs	r2, #0
 288 0078 DA70     		strb	r2, [r3, #3]
  69:frucd_display.c ****             if (color != last_SOC_color) {
 289              		.loc 1 69 0
 290 007a 1C4B     		ldr	r3, .L18+4
 291 007c 1B68     		ldr	r3, [r3]
 292 007e 9C42     		cmp	r4, r3
 293 0080 08D0     		beq	.L13
  70:frucd_display.c ****                 // only draw rectangle if color changed
  71:frucd_display.c ****                 UG_FillFrame(30, 35, 210, 170, color);
 294              		.loc 1 71 0
 295 0082 0094     		str	r4, [sp]
 296 0084 AA23     		movs	r3, #170
 297 0086 D232     		adds	r2, r2, #210
 298 0088 2321     		movs	r1, #35
 299 008a 1E20     		movs	r0, #30
 300 008c FFF7FEFF 		bl	UG_FillFrame
 301              	.LVL22:
  72:frucd_display.c ****                 last_SOC_color = color;
 302              		.loc 1 72 0
 303 0090 164B     		ldr	r3, .L18+4
 304 0092 1C60     		str	r4, [r3]
 305              	.L13:
  73:frucd_display.c ****             }
  74:frucd_display.c ****             UG_PutColorString(70, 80, data_s, C_BLACK, color);
 306              		.loc 1 74 0
 307 0094 0094     		str	r4, [sp]
 308 0096 0023     		movs	r3, #0
 309 0098 03AA     		add	r2, sp, #12
 310 009a 5021     		movs	r1, #80
 311 009c 4620     		movs	r0, #70
 312 009e FFF7FEFF 		bl	UG_PutColorString
 313              	.LVL23:
 314 00a2 1BE0     		b	.L10
 315              	.LVL24:
 316              	.L11:
  75:frucd_display.c ****         } else {
  76:frucd_display.c ****             // handle 1 digit cases
  77:frucd_display.c ****             data_s[1] = '%';
 317              		.loc 1 77 0
 318 00a4 03AC     		add	r4, sp, #12
 319 00a6 2523     		movs	r3, #37
 320 00a8 6370     		strb	r3, [r4, #1]
ARM GAS  C:\Users\leoja\AppData\Local\Temp\cc39o2Na.s 			page 8


  78:frucd_display.c ****             data_s[2] = '\0';
 321              		.loc 1 78 0
 322 00aa 0023     		movs	r3, #0
 323 00ac A370     		strb	r3, [r4, #2]
 324              	.LVL25:
  79:frucd_display.c ****             color = C_RED;
  80:frucd_display.c ****             UG_FillFrame(30, 35, 210, 170, C_BLACK);
 325              		.loc 1 80 0
 326 00ae 0093     		str	r3, [sp]
 327 00b0 AA33     		adds	r3, r3, #170
 328 00b2 D222     		movs	r2, #210
 329 00b4 2321     		movs	r1, #35
 330 00b6 1E20     		movs	r0, #30
 331 00b8 FFF7FEFF 		bl	UG_FillFrame
 332              	.LVL26:
  81:frucd_display.c ****             UG_FillFrame(30, 35, 210, 170, color);
 333              		.loc 1 81 0
 334 00bc FF25     		movs	r5, #255
 335 00be 2D04     		lsls	r5, r5, #16
 336 00c0 0095     		str	r5, [sp]
 337 00c2 AA23     		movs	r3, #170
 338 00c4 D222     		movs	r2, #210
 339 00c6 2321     		movs	r1, #35
 340 00c8 1E20     		movs	r0, #30
 341 00ca FFF7FEFF 		bl	UG_FillFrame
 342              	.LVL27:
  82:frucd_display.c ****             UG_PutColorString(90, 80, data_s, C_BLACK, color);
 343              		.loc 1 82 0
 344 00ce 0095     		str	r5, [sp]
 345 00d0 0023     		movs	r3, #0
 346 00d2 2200     		movs	r2, r4
 347 00d4 5021     		movs	r1, #80
 348 00d6 5A20     		movs	r0, #90
 349 00d8 FFF7FEFF 		bl	UG_PutColorString
 350              	.LVL28:
 351              	.L10:
 352              	.LBE2:
  83:frucd_display.c ****         }   
  84:frucd_display.c ****     }
  85:frucd_display.c ****     UG_FontSelect(&FONT_12X16);
 353              		.loc 1 85 0
 354 00dc 0848     		ldr	r0, .L18+24
 355 00de FFF7FEFF 		bl	UG_FontSelect
 356              	.LVL29:
  86:frucd_display.c **** }
 357              		.loc 1 86 0
 358 00e2 05B0     		add	sp, sp, #20
 359              		@ sp needed
 360 00e4 30BD     		pop	{r4, r5, pc}
 361              	.L19:
 362 00e6 C046     		.align	2
 363              	.L18:
 364 00e8 00000000 		.word	FONT_32X53
 365 00ec 00000000 		.word	last_SOC_color
 366 00f0 3C000000 		.word	.LC14
 367 00f4 44000000 		.word	.LC16
 368 00f8 00A5FF00 		.word	16753920
ARM GAS  C:\Users\leoja\AppData\Local\Temp\cc39o2Na.s 			page 9


 369 00fc 00FFFF00 		.word	16776960
 370 0100 00000000 		.word	FONT_12X16
 371              		.cfi_endproc
 372              	.LFE37:
 373              		.size	disp_SOC, .-disp_SOC
 374              		.section	.text.disp_max_pack_temp,"ax",%progbits
 375              		.align	2
 376              		.global	disp_max_pack_temp
 377              		.code	16
 378              		.thumb_func
 379              		.type	disp_max_pack_temp, %function
 380              	disp_max_pack_temp:
 381              	.LFB38:
  87:frucd_display.c **** 
  88:frucd_display.c **** void disp_max_pack_temp(uint8_t data) {
 382              		.loc 1 88 0
 383              		.cfi_startproc
 384              		@ args = 0, pretend = 0, frame = 8
 385              		@ frame_needed = 0, uses_anonymous_args = 0
 386              	.LVL30:
 387 0000 F0B5     		push	{r4, r5, r6, r7, lr}
 388              		.cfi_def_cfa_offset 20
 389              		.cfi_offset 4, -20
 390              		.cfi_offset 5, -16
 391              		.cfi_offset 6, -12
 392              		.cfi_offset 7, -8
 393              		.cfi_offset 14, -4
 394 0002 85B0     		sub	sp, sp, #20
 395              		.cfi_def_cfa_offset 40
 396 0004 0600     		movs	r6, r0
  89:frucd_display.c ****     // choose color
  90:frucd_display.c ****     UG_COLOR color;
  91:frucd_display.c ****     if (data < 45) {
 397              		.loc 1 91 0
 398 0006 2C28     		cmp	r0, #44
 399 0008 19D9     		bls	.L23
  92:frucd_display.c ****         color = C_GREEN;
  93:frucd_display.c ****     } else if (data < 50) {
 400              		.loc 1 93 0
 401 000a 3128     		cmp	r0, #49
 402 000c 1AD9     		bls	.L24
  94:frucd_display.c ****         color = C_YELLOW;
  95:frucd_display.c ****     } else if (data < 55) {
 403              		.loc 1 95 0
 404 000e 3628     		cmp	r0, #54
 405 0010 1AD9     		bls	.L25
 406              	.LVL31:
  96:frucd_display.c ****         color = C_ORANGE;
  97:frucd_display.c ****     } else {
  98:frucd_display.c ****         color = C_RED;
  99:frucd_display.c ****         UG_FillFrame(270, 35, 450, 170, C_BLACK);
 407              		.loc 1 99 0
 408 0012 E127     		movs	r7, #225
 409 0014 7F00     		lsls	r7, r7, #1
 410 0016 8724     		movs	r4, #135
 411 0018 6400     		lsls	r4, r4, #1
 412 001a 0023     		movs	r3, #0
ARM GAS  C:\Users\leoja\AppData\Local\Temp\cc39o2Na.s 			page 10


 413 001c 0093     		str	r3, [sp]
 414 001e AA33     		adds	r3, r3, #170
 415 0020 3A00     		movs	r2, r7
 416 0022 2321     		movs	r1, #35
 417 0024 2000     		movs	r0, r4
 418              	.LVL32:
 419 0026 FFF7FEFF 		bl	UG_FillFrame
 420              	.LVL33:
 100:frucd_display.c ****         UG_FillFrame(270, 35, 450, 170, color);
 421              		.loc 1 100 0
 422 002a FF25     		movs	r5, #255
 423 002c 2D04     		lsls	r5, r5, #16
 424 002e 0095     		str	r5, [sp]
 425 0030 AA23     		movs	r3, #170
 426 0032 3A00     		movs	r2, r7
 427 0034 2321     		movs	r1, #35
 428 0036 2000     		movs	r0, r4
 429 0038 FFF7FEFF 		bl	UG_FillFrame
 430              	.LVL34:
 431 003c 05E0     		b	.L21
 432              	.LVL35:
 433              	.L23:
  92:frucd_display.c ****     } else if (data < 50) {
 434              		.loc 1 92 0
 435 003e FF25     		movs	r5, #255
 436 0040 2D02     		lsls	r5, r5, #8
 437 0042 02E0     		b	.L21
 438              	.L24:
  94:frucd_display.c ****     } else if (data < 55) {
 439              		.loc 1 94 0
 440 0044 154D     		ldr	r5, .L26
 441 0046 00E0     		b	.L21
 442              	.L25:
  96:frucd_display.c ****     } else {
 443              		.loc 1 96 0
 444 0048 154D     		ldr	r5, .L26+4
 445              	.LVL36:
 446              	.L21:
 101:frucd_display.c ****     }
 102:frucd_display.c ****     
 103:frucd_display.c ****     if (color != last_max_pack_temp_color) {
 447              		.loc 1 103 0
 448 004a 164B     		ldr	r3, .L26+8
 449 004c 1B68     		ldr	r3, [r3]
 450 004e 9D42     		cmp	r5, r3
 451 0050 0AD0     		beq	.L22
 104:frucd_display.c ****         // only draw rectangle if color changed
 105:frucd_display.c ****         UG_FillFrame(270, 35, 450, 170, color);
 452              		.loc 1 105 0
 453 0052 0095     		str	r5, [sp]
 454 0054 AA23     		movs	r3, #170
 455 0056 E122     		movs	r2, #225
 456 0058 5200     		lsls	r2, r2, #1
 457 005a 2321     		movs	r1, #35
 458 005c 8720     		movs	r0, #135
 459 005e 4000     		lsls	r0, r0, #1
 460 0060 FFF7FEFF 		bl	UG_FillFrame
ARM GAS  C:\Users\leoja\AppData\Local\Temp\cc39o2Na.s 			page 11


 461              	.LVL37:
 106:frucd_display.c ****         last_max_pack_temp_color = color;
 462              		.loc 1 106 0
 463 0064 0F4B     		ldr	r3, .L26+8
 464 0066 1D60     		str	r5, [r3]
 465              	.L22:
 107:frucd_display.c ****     }
 108:frucd_display.c ****     UG_FontSelect(&FONT_32X53);
 466              		.loc 1 108 0
 467 0068 0F48     		ldr	r0, .L26+12
 468 006a FFF7FEFF 		bl	UG_FontSelect
 469              	.LVL38:
 109:frucd_display.c ****     char data_s[4];
 110:frucd_display.c ****     sprintf(data_s, "%d", data);
 470              		.loc 1 110 0
 471 006e 03AC     		add	r4, sp, #12
 472 0070 3200     		movs	r2, r6
 473 0072 0E49     		ldr	r1, .L26+16
 474 0074 2000     		movs	r0, r4
 475 0076 FFF7FEFF 		bl	sprintf
 476              	.LVL39:
 111:frucd_display.c ****     data_s[2] = 'C';
 477              		.loc 1 111 0
 478 007a 4323     		movs	r3, #67
 479 007c A370     		strb	r3, [r4, #2]
 112:frucd_display.c ****     data_s[3] = '\0';
 480              		.loc 1 112 0
 481 007e 0023     		movs	r3, #0
 482 0080 E370     		strb	r3, [r4, #3]
 113:frucd_display.c ****     UG_PutColorString(310, 80, data_s, C_BLACK, color);
 483              		.loc 1 113 0
 484 0082 0095     		str	r5, [sp]
 485 0084 2200     		movs	r2, r4
 486 0086 5021     		movs	r1, #80
 487 0088 9B20     		movs	r0, #155
 488 008a 4000     		lsls	r0, r0, #1
 489 008c FFF7FEFF 		bl	UG_PutColorString
 490              	.LVL40:
 114:frucd_display.c ****     UG_FontSelect(&FONT_12X16);
 491              		.loc 1 114 0
 492 0090 0748     		ldr	r0, .L26+20
 493 0092 FFF7FEFF 		bl	UG_FontSelect
 494              	.LVL41:
 115:frucd_display.c **** }
 495              		.loc 1 115 0
 496 0096 05B0     		add	sp, sp, #20
 497              		@ sp needed
 498              	.LVL42:
 499 0098 F0BD     		pop	{r4, r5, r6, r7, pc}
 500              	.L27:
 501 009a C046     		.align	2
 502              	.L26:
 503 009c 00FFFF00 		.word	16776960
 504 00a0 00A5FF00 		.word	16753920
 505 00a4 00000000 		.word	last_max_pack_temp_color
 506 00a8 00000000 		.word	FONT_32X53
 507 00ac 44000000 		.word	.LC16
ARM GAS  C:\Users\leoja\AppData\Local\Temp\cc39o2Na.s 			page 12


 508 00b0 00000000 		.word	FONT_12X16
 509              		.cfi_endproc
 510              	.LFE38:
 511              		.size	disp_max_pack_temp, .-disp_max_pack_temp
 512              		.section	.text.disp_state,"ax",%progbits
 513              		.align	2
 514              		.global	disp_state
 515              		.code	16
 516              		.thumb_func
 517              		.type	disp_state, %function
 518              	disp_state:
 519              	.LFB39:
 116:frucd_display.c **** 
 117:frucd_display.c **** void disp_state(uint8_t state) { // TODO
 520              		.loc 1 117 0
 521              		.cfi_startproc
 522              		@ args = 0, pretend = 0, frame = 0
 523              		@ frame_needed = 0, uses_anonymous_args = 0
 524              	.LVL43:
 525 0000 30B5     		push	{r4, r5, lr}
 526              		.cfi_def_cfa_offset 12
 527              		.cfi_offset 4, -12
 528              		.cfi_offset 5, -8
 529              		.cfi_offset 14, -4
 530 0002 83B0     		sub	sp, sp, #12
 531              		.cfi_def_cfa_offset 24
 532 0004 0400     		movs	r4, r0
 118:frucd_display.c ****     UG_COLOR color;
 119:frucd_display.c ****     // check fault bit
 120:frucd_display.c ****     if (state & 0x80) {
 533              		.loc 1 120 0
 534 0006 43B2     		sxtb	r3, r0
 535 0008 002B     		cmp	r3, #0
 536 000a 00DB     		blt	.LCB462
 537 000c D4E0     		b	.L29	@long jump
 538              	.LCB462:
 539              	.LBB3:
 121:frucd_display.c ****         // *************** FAULTS ***************
 122:frucd_display.c ****         uint8 fault = state & 0x7f; // mask off fault bit
 540              		.loc 1 122 0
 541 000e 7F23     		movs	r3, #127
 542 0010 1C40     		ands	r4, r3
 543              	.LVL44:
 123:frucd_display.c ****         switch(fault) {
 544              		.loc 1 123 0
 545 0012 072C     		cmp	r4, #7
 546 0014 00D9     		bls	.LCB469
 547 0016 0FE1     		b	.L28	@long jump
 548              	.LCB469:
 549 0018 A400     		lsls	r4, r4, #2
 550              	.LVL45:
 551 001a 884B     		ldr	r3, .L53
 552              	.LVL46:
 553 001c 1B59     		ldr	r3, [r3, r4]
 554 001e 9F46     		mov	pc, r3
 555              		.section	.rodata
 556              		.align	2
ARM GAS  C:\Users\leoja\AppData\Local\Temp\cc39o2Na.s 			page 13


 557              	.L32:
 558 0000 20000000 		.word	.L31
 559 0004 50000000 		.word	.L33
 560 0008 84000000 		.word	.L34
 561 000c B8000000 		.word	.L35
 562 0010 EC000000 		.word	.L36
 563 0014 20010000 		.word	.L37
 564 0018 54010000 		.word	.L38
 565 001c 84010000 		.word	.L39
 566              		.section	.text.disp_state
 567              	.L31:
 568              	.LVL47:
 124:frucd_display.c ****             case NONE: // STARTUP (effectively)
 125:frucd_display.c ****                 // not obtainable via CAN
 126:frucd_display.c ****                 // would only show when hardcoded on startup
 127:frucd_display.c ****                 color = C_YELLOW;
 128:frucd_display.c ****                 if (color != last_state_color) {
 569              		.loc 1 128 0
 570 0020 874B     		ldr	r3, .L53+4
 571 0022 1A68     		ldr	r2, [r3]
 572 0024 874B     		ldr	r3, .L53+8
 573 0026 9A42     		cmp	r2, r3
 574 0028 09D0     		beq	.L40
 129:frucd_display.c ****                     // only draw rectangle if color changed
 130:frucd_display.c ****                     UG_FillFrame(95, 185, 240, 215, color);
 575              		.loc 1 130 0
 576 002a 1C00     		movs	r4, r3
 577 002c 0093     		str	r3, [sp]
 578 002e D723     		movs	r3, #215
 579 0030 F022     		movs	r2, #240
 580 0032 B921     		movs	r1, #185
 581 0034 5F20     		movs	r0, #95
 582              	.LVL48:
 583 0036 FFF7FEFF 		bl	UG_FillFrame
 584              	.LVL49:
 131:frucd_display.c ****                     last_state_color = color;
 585              		.loc 1 131 0
 586 003a 814B     		ldr	r3, .L53+4
 587 003c 1C60     		str	r4, [r3]
 588              	.L40:
 132:frucd_display.c ****                 }
 133:frucd_display.c ****                 UG_PutColorString(100, 195, " STARTUP  ", C_BLACK, color);
 589              		.loc 1 133 0
 590 003e 814B     		ldr	r3, .L53+8
 591 0040 0093     		str	r3, [sp]
 592 0042 0023     		movs	r3, #0
 593 0044 804A     		ldr	r2, .L53+12
 594 0046 C321     		movs	r1, #195
 595 0048 6420     		movs	r0, #100
 596 004a FFF7FEFF 		bl	UG_PutColorString
 597              	.LVL50:
 134:frucd_display.c ****                 break;
 598              		.loc 1 134 0
 599 004e F3E0     		b	.L28
 600              	.LVL51:
 601              	.L33:
 135:frucd_display.c ****             case DRIVE_REQUEST_FROM_LV:
ARM GAS  C:\Users\leoja\AppData\Local\Temp\cc39o2Na.s 			page 14


 136:frucd_display.c ****                 color = C_RED;
 137:frucd_display.c ****                 if (color != last_state_color) {
 602              		.loc 1 137 0
 603 0050 7B4B     		ldr	r3, .L53+4
 604 0052 1A68     		ldr	r2, [r3]
 605 0054 FF23     		movs	r3, #255
 606 0056 1B04     		lsls	r3, r3, #16
 607 0058 9A42     		cmp	r2, r3
 608 005a 09D0     		beq	.L41
 138:frucd_display.c ****                     // only draw rectangle if color changed
 139:frucd_display.c ****                     UG_FillFrame(95, 185, 240, 215, color);
 609              		.loc 1 139 0
 610 005c 1C00     		movs	r4, r3
 611 005e 0093     		str	r3, [sp]
 612 0060 D723     		movs	r3, #215
 613 0062 F022     		movs	r2, #240
 614 0064 B921     		movs	r1, #185
 615 0066 5F20     		movs	r0, #95
 616              	.LVL52:
 617 0068 FFF7FEFF 		bl	UG_FillFrame
 618              	.LVL53:
 140:frucd_display.c ****                     last_state_color = color;
 619              		.loc 1 140 0
 620 006c 744B     		ldr	r3, .L53+4
 621 006e 1C60     		str	r4, [r3]
 622              	.L41:
 141:frucd_display.c ****                 }
 142:frucd_display.c ****                 UG_PutColorString(100, 195, "DRV FRM LV", C_BLACK, color);
 623              		.loc 1 142 0
 624 0070 FF23     		movs	r3, #255
 625 0072 1B04     		lsls	r3, r3, #16
 626 0074 0093     		str	r3, [sp]
 627 0076 0023     		movs	r3, #0
 628 0078 744A     		ldr	r2, .L53+16
 629 007a C321     		movs	r1, #195
 630 007c 6420     		movs	r0, #100
 631 007e FFF7FEFF 		bl	UG_PutColorString
 632              	.LVL54:
 143:frucd_display.c ****                 break;
 633              		.loc 1 143 0
 634 0082 D9E0     		b	.L28
 635              	.LVL55:
 636              	.L34:
 144:frucd_display.c ****             case CONSERVATIVE_TIMER_MAXED:
 145:frucd_display.c ****                 color = C_RED;
 146:frucd_display.c ****                 if (color != last_state_color) {
 637              		.loc 1 146 0
 638 0084 6E4B     		ldr	r3, .L53+4
 639 0086 1A68     		ldr	r2, [r3]
 640 0088 FF23     		movs	r3, #255
 641 008a 1B04     		lsls	r3, r3, #16
 642 008c 9A42     		cmp	r2, r3
 643 008e 09D0     		beq	.L42
 147:frucd_display.c ****                     // only draw rectangle if color changed
 148:frucd_display.c ****                     UG_FillFrame(95, 185, 240, 215, color);
 644              		.loc 1 148 0
 645 0090 1C00     		movs	r4, r3
ARM GAS  C:\Users\leoja\AppData\Local\Temp\cc39o2Na.s 			page 15


 646 0092 0093     		str	r3, [sp]
 647 0094 D723     		movs	r3, #215
 648 0096 F022     		movs	r2, #240
 649 0098 B921     		movs	r1, #185
 650 009a 5F20     		movs	r0, #95
 651              	.LVL56:
 652 009c FFF7FEFF 		bl	UG_FillFrame
 653              	.LVL57:
 149:frucd_display.c ****                     last_state_color = color;
 654              		.loc 1 149 0
 655 00a0 674B     		ldr	r3, .L53+4
 656 00a2 1C60     		str	r4, [r3]
 657              	.L42:
 150:frucd_display.c ****                 }
 151:frucd_display.c ****                 UG_PutColorString(100, 195, "PRE TM OUT", C_BLACK, color);
 658              		.loc 1 151 0
 659 00a4 FF23     		movs	r3, #255
 660 00a6 1B04     		lsls	r3, r3, #16
 661 00a8 0093     		str	r3, [sp]
 662 00aa 0023     		movs	r3, #0
 663 00ac 684A     		ldr	r2, .L53+20
 664 00ae C321     		movs	r1, #195
 665 00b0 6420     		movs	r0, #100
 666 00b2 FFF7FEFF 		bl	UG_PutColorString
 667              	.LVL58:
 152:frucd_display.c ****                 break;
 668              		.loc 1 152 0
 669 00b6 BFE0     		b	.L28
 670              	.LVL59:
 671              	.L35:
 153:frucd_display.c ****             case BRAKE_NOT_PRESSED:
 154:frucd_display.c ****                 color = C_RED;
 155:frucd_display.c ****                 if (color != last_state_color) {
 672              		.loc 1 155 0
 673 00b8 614B     		ldr	r3, .L53+4
 674 00ba 1A68     		ldr	r2, [r3]
 675 00bc FF23     		movs	r3, #255
 676 00be 1B04     		lsls	r3, r3, #16
 677 00c0 9A42     		cmp	r2, r3
 678 00c2 09D0     		beq	.L43
 156:frucd_display.c ****                     // only draw rectangle if color changed
 157:frucd_display.c ****                     UG_FillFrame(95, 185, 240, 215, color);
 679              		.loc 1 157 0
 680 00c4 1C00     		movs	r4, r3
 681 00c6 0093     		str	r3, [sp]
 682 00c8 D723     		movs	r3, #215
 683 00ca F022     		movs	r2, #240
 684 00cc B921     		movs	r1, #185
 685 00ce 5F20     		movs	r0, #95
 686              	.LVL60:
 687 00d0 FFF7FEFF 		bl	UG_FillFrame
 688              	.LVL61:
 158:frucd_display.c ****                     last_state_color = color;
 689              		.loc 1 158 0
 690 00d4 5A4B     		ldr	r3, .L53+4
 691 00d6 1C60     		str	r4, [r3]
 692              	.L43:
ARM GAS  C:\Users\leoja\AppData\Local\Temp\cc39o2Na.s 			page 16


 159:frucd_display.c ****                 }
 160:frucd_display.c ****                 UG_PutColorString(100, 195, "BR NOT PRS", C_BLACK, color);
 693              		.loc 1 160 0
 694 00d8 FF23     		movs	r3, #255
 695 00da 1B04     		lsls	r3, r3, #16
 696 00dc 0093     		str	r3, [sp]
 697 00de 0023     		movs	r3, #0
 698 00e0 5C4A     		ldr	r2, .L53+24
 699 00e2 C321     		movs	r1, #195
 700 00e4 6420     		movs	r0, #100
 701 00e6 FFF7FEFF 		bl	UG_PutColorString
 702              	.LVL62:
 161:frucd_display.c ****                 break;
 703              		.loc 1 161 0
 704 00ea A5E0     		b	.L28
 705              	.LVL63:
 706              	.L36:
 162:frucd_display.c ****             case HV_DISABLED_WHILE_DRIVING:
 163:frucd_display.c ****                 color = C_RED;
 164:frucd_display.c ****                 if (color != last_state_color) {
 707              		.loc 1 164 0
 708 00ec 544B     		ldr	r3, .L53+4
 709 00ee 1A68     		ldr	r2, [r3]
 710 00f0 FF23     		movs	r3, #255
 711 00f2 1B04     		lsls	r3, r3, #16
 712 00f4 9A42     		cmp	r2, r3
 713 00f6 09D0     		beq	.L44
 165:frucd_display.c ****                     // only draw rectangle if color changed
 166:frucd_display.c ****                     UG_FillFrame(95, 185, 240, 215, color);
 714              		.loc 1 166 0
 715 00f8 1C00     		movs	r4, r3
 716 00fa 0093     		str	r3, [sp]
 717 00fc D723     		movs	r3, #215
 718 00fe F022     		movs	r2, #240
 719 0100 B921     		movs	r1, #185
 720 0102 5F20     		movs	r0, #95
 721              	.LVL64:
 722 0104 FFF7FEFF 		bl	UG_FillFrame
 723              	.LVL65:
 167:frucd_display.c ****                     last_state_color = color;
 724              		.loc 1 167 0
 725 0108 4D4B     		ldr	r3, .L53+4
 726 010a 1C60     		str	r4, [r3]
 727              	.L44:
 168:frucd_display.c ****                 }
 169:frucd_display.c ****                 UG_PutColorString(100, 195, "HV OFF DRV", C_BLACK, color);
 728              		.loc 1 169 0
 729 010c FF23     		movs	r3, #255
 730 010e 1B04     		lsls	r3, r3, #16
 731 0110 0093     		str	r3, [sp]
 732 0112 0023     		movs	r3, #0
 733 0114 504A     		ldr	r2, .L53+28
 734 0116 C321     		movs	r1, #195
 735 0118 6420     		movs	r0, #100
 736 011a FFF7FEFF 		bl	UG_PutColorString
 737              	.LVL66:
 170:frucd_display.c ****                 break;
ARM GAS  C:\Users\leoja\AppData\Local\Temp\cc39o2Na.s 			page 17


 738              		.loc 1 170 0
 739 011e 8BE0     		b	.L28
 740              	.LVL67:
 741              	.L37:
 171:frucd_display.c ****             case SENSOR_DISCREPANCY:
 172:frucd_display.c ****                 color = C_RED;
 173:frucd_display.c ****                 if (color != last_state_color) {
 742              		.loc 1 173 0
 743 0120 474B     		ldr	r3, .L53+4
 744 0122 1A68     		ldr	r2, [r3]
 745 0124 FF23     		movs	r3, #255
 746 0126 1B04     		lsls	r3, r3, #16
 747 0128 9A42     		cmp	r2, r3
 748 012a 09D0     		beq	.L45
 174:frucd_display.c ****                     // only draw rectangle if color changed
 175:frucd_display.c ****                     UG_FillFrame(95, 185, 240, 215, color);
 749              		.loc 1 175 0
 750 012c 1C00     		movs	r4, r3
 751 012e 0093     		str	r3, [sp]
 752 0130 D723     		movs	r3, #215
 753 0132 F022     		movs	r2, #240
 754 0134 B921     		movs	r1, #185
 755 0136 5F20     		movs	r0, #95
 756              	.LVL68:
 757 0138 FFF7FEFF 		bl	UG_FillFrame
 758              	.LVL69:
 176:frucd_display.c ****                     last_state_color = color;
 759              		.loc 1 176 0
 760 013c 404B     		ldr	r3, .L53+4
 761 013e 1C60     		str	r4, [r3]
 762              	.L45:
 177:frucd_display.c ****                 }
 178:frucd_display.c ****                 UG_PutColorString(100, 195, "SNSR DSCRP", C_BLACK, color);
 763              		.loc 1 178 0
 764 0140 FF23     		movs	r3, #255
 765 0142 1B04     		lsls	r3, r3, #16
 766 0144 0093     		str	r3, [sp]
 767 0146 0023     		movs	r3, #0
 768 0148 444A     		ldr	r2, .L53+32
 769 014a C321     		movs	r1, #195
 770 014c 6420     		movs	r0, #100
 771 014e FFF7FEFF 		bl	UG_PutColorString
 772              	.LVL70:
 179:frucd_display.c ****                 break;
 773              		.loc 1 179 0
 774 0152 71E0     		b	.L28
 775              	.LVL71:
 776              	.L38:
 180:frucd_display.c ****             case BRAKE_IMPLAUSIBLE:
 181:frucd_display.c ****                 color = C_YELLOW;
 182:frucd_display.c ****                 if (color != last_state_color) {
 777              		.loc 1 182 0
 778 0154 3A4B     		ldr	r3, .L53+4
 779 0156 1A68     		ldr	r2, [r3]
 780 0158 3A4B     		ldr	r3, .L53+8
 781 015a 9A42     		cmp	r2, r3
 782 015c 09D0     		beq	.L46
ARM GAS  C:\Users\leoja\AppData\Local\Temp\cc39o2Na.s 			page 18


 183:frucd_display.c ****                     // only draw rectangle if color changed
 184:frucd_display.c ****                     UG_FillFrame(95, 185, 240, 215, color);
 783              		.loc 1 184 0
 784 015e 1C00     		movs	r4, r3
 785 0160 0093     		str	r3, [sp]
 786 0162 D723     		movs	r3, #215
 787 0164 F022     		movs	r2, #240
 788 0166 B921     		movs	r1, #185
 789 0168 5F20     		movs	r0, #95
 790              	.LVL72:
 791 016a FFF7FEFF 		bl	UG_FillFrame
 792              	.LVL73:
 185:frucd_display.c ****                     last_state_color = color;
 793              		.loc 1 185 0
 794 016e 344B     		ldr	r3, .L53+4
 795 0170 1C60     		str	r4, [r3]
 796              	.L46:
 186:frucd_display.c ****                 }
 187:frucd_display.c ****                 UG_PutColorString(100, 195, "BSPD TRIPD", C_BLACK, color); //whitespace to clear
 797              		.loc 1 187 0
 798 0172 344B     		ldr	r3, .L53+8
 799 0174 0093     		str	r3, [sp]
 800 0176 0023     		movs	r3, #0
 801 0178 394A     		ldr	r2, .L53+36
 802 017a C321     		movs	r1, #195
 803 017c 6420     		movs	r0, #100
 804 017e FFF7FEFF 		bl	UG_PutColorString
 805              	.LVL74:
 188:frucd_display.c ****                 break;
 806              		.loc 1 188 0
 807 0182 59E0     		b	.L28
 808              	.LVL75:
 809              	.L39:
 189:frucd_display.c ****             case ESTOP:
 190:frucd_display.c ****                 color = C_RED;
 191:frucd_display.c ****                 if (color != last_state_color) {
 810              		.loc 1 191 0
 811 0184 2E4B     		ldr	r3, .L53+4
 812 0186 1A68     		ldr	r2, [r3]
 813 0188 FF23     		movs	r3, #255
 814 018a 1B04     		lsls	r3, r3, #16
 815 018c 9A42     		cmp	r2, r3
 816 018e 09D0     		beq	.L47
 192:frucd_display.c ****                     // only draw rectangle if color changed
 193:frucd_display.c ****                     UG_FillFrame(95, 185, 240, 215, color);
 817              		.loc 1 193 0
 818 0190 1C00     		movs	r4, r3
 819 0192 0093     		str	r3, [sp]
 820 0194 D723     		movs	r3, #215
 821 0196 F022     		movs	r2, #240
 822 0198 B921     		movs	r1, #185
 823 019a 5F20     		movs	r0, #95
 824              	.LVL76:
 825 019c FFF7FEFF 		bl	UG_FillFrame
 826              	.LVL77:
 194:frucd_display.c ****                     last_state_color = color;
 827              		.loc 1 194 0
ARM GAS  C:\Users\leoja\AppData\Local\Temp\cc39o2Na.s 			page 19


 828 01a0 274B     		ldr	r3, .L53+4
 829 01a2 1C60     		str	r4, [r3]
 830              	.L47:
 195:frucd_display.c ****                 }
 196:frucd_display.c ****                 UG_PutColorString(100, 195, "SHTDWN OPN", C_BLACK, color); //whitespace to clear
 831              		.loc 1 196 0
 832 01a4 FF23     		movs	r3, #255
 833 01a6 1B04     		lsls	r3, r3, #16
 834 01a8 0093     		str	r3, [sp]
 835 01aa 0023     		movs	r3, #0
 836 01ac 2D4A     		ldr	r2, .L53+40
 837 01ae C321     		movs	r1, #195
 838 01b0 6420     		movs	r0, #100
 839 01b2 FFF7FEFF 		bl	UG_PutColorString
 840              	.LVL78:
 197:frucd_display.c ****                 break;
 841              		.loc 1 197 0
 842 01b6 3FE0     		b	.L28
 843              	.LVL79:
 844              	.L29:
 845              	.LBE3:
 198:frucd_display.c ****         }
 199:frucd_display.c ****         
 200:frucd_display.c ****     } else {
 201:frucd_display.c ****         // *************** NO FAULTS ***************
 202:frucd_display.c ****         color = C_GREEN;
 203:frucd_display.c ****         if (color != last_state_color) {
 846              		.loc 1 203 0
 847 01b8 214B     		ldr	r3, .L53+4
 848 01ba 1A68     		ldr	r2, [r3]
 849 01bc FF23     		movs	r3, #255
 850 01be 1B02     		lsls	r3, r3, #8
 851 01c0 9A42     		cmp	r2, r3
 852 01c2 09D0     		beq	.L48
 204:frucd_display.c ****             // only draw rectangle if color changed
 205:frucd_display.c ****             UG_FillFrame(95, 185, 240, 215, color);
 853              		.loc 1 205 0
 854 01c4 1D00     		movs	r5, r3
 855 01c6 0093     		str	r3, [sp]
 856 01c8 D723     		movs	r3, #215
 857 01ca F022     		movs	r2, #240
 858 01cc B921     		movs	r1, #185
 859 01ce 5F20     		movs	r0, #95
 860              	.LVL80:
 861 01d0 FFF7FEFF 		bl	UG_FillFrame
 862              	.LVL81:
 206:frucd_display.c ****             last_state_color = color;
 863              		.loc 1 206 0
 864 01d4 1A4B     		ldr	r3, .L53+4
 865 01d6 1D60     		str	r5, [r3]
 866              	.L48:
 207:frucd_display.c ****         }
 208:frucd_display.c ****         switch(state) {
 867              		.loc 1 208 0
 868 01d8 012C     		cmp	r4, #1
 869 01da 10D0     		beq	.L49
 870 01dc 002C     		cmp	r4, #0
ARM GAS  C:\Users\leoja\AppData\Local\Temp\cc39o2Na.s 			page 20


 871 01de 04D0     		beq	.L50
 872 01e0 022C     		cmp	r4, #2
 873 01e2 16D0     		beq	.L51
 874 01e4 032C     		cmp	r4, #3
 875 01e6 1ED0     		beq	.L52
 876 01e8 26E0     		b	.L28
 877              	.L50:
 209:frucd_display.c ****             case LV:
 210:frucd_display.c ****                 UG_PutColorString(100, 195, "    LV    ", C_BLACK, color);
 878              		.loc 1 210 0
 879 01ea FF23     		movs	r3, #255
 880 01ec 1B02     		lsls	r3, r3, #8
 881 01ee 0093     		str	r3, [sp]
 882 01f0 0023     		movs	r3, #0
 883 01f2 1D4A     		ldr	r2, .L53+44
 884 01f4 C321     		movs	r1, #195
 885 01f6 6420     		movs	r0, #100
 886 01f8 FFF7FEFF 		bl	UG_PutColorString
 887              	.LVL82:
 211:frucd_display.c ****                 break;
 888              		.loc 1 211 0
 889 01fc 1CE0     		b	.L28
 890              	.L49:
 212:frucd_display.c ****             case PRECHARGING:
 213:frucd_display.c ****                 UG_PutColorString(100, 195, "PRECHARGE ", C_BLACK, color);
 891              		.loc 1 213 0
 892 01fe FF23     		movs	r3, #255
 893 0200 1B02     		lsls	r3, r3, #8
 894 0202 0093     		str	r3, [sp]
 895 0204 0023     		movs	r3, #0
 896 0206 194A     		ldr	r2, .L53+48
 897 0208 C321     		movs	r1, #195
 898 020a 6420     		movs	r0, #100
 899 020c FFF7FEFF 		bl	UG_PutColorString
 900              	.LVL83:
 214:frucd_display.c ****                 break;
 901              		.loc 1 214 0
 902 0210 12E0     		b	.L28
 903              	.L51:
 215:frucd_display.c ****             case HV_ENABLED:
 216:frucd_display.c ****                 UG_PutColorString(100, 195, "HV ENABLED", C_BLACK, color);
 904              		.loc 1 216 0
 905 0212 FF23     		movs	r3, #255
 906 0214 1B02     		lsls	r3, r3, #8
 907 0216 0093     		str	r3, [sp]
 908 0218 0023     		movs	r3, #0
 909 021a 154A     		ldr	r2, .L53+52
 910 021c C321     		movs	r1, #195
 911 021e 6420     		movs	r0, #100
 912 0220 FFF7FEFF 		bl	UG_PutColorString
 913              	.LVL84:
 217:frucd_display.c ****                 break;
 914              		.loc 1 217 0
 915 0224 08E0     		b	.L28
 916              	.L52:
 218:frucd_display.c ****             case DRIVE:
 219:frucd_display.c ****                 UG_PutColorString(100, 195, "  DRIVE   ", C_BLACK, color);
ARM GAS  C:\Users\leoja\AppData\Local\Temp\cc39o2Na.s 			page 21


 917              		.loc 1 219 0
 918 0226 FF23     		movs	r3, #255
 919 0228 1B02     		lsls	r3, r3, #8
 920 022a 0093     		str	r3, [sp]
 921 022c 0023     		movs	r3, #0
 922 022e 114A     		ldr	r2, .L53+56
 923 0230 C321     		movs	r1, #195
 924 0232 6420     		movs	r0, #100
 925 0234 FFF7FEFF 		bl	UG_PutColorString
 926              	.LVL85:
 927              	.L28:
 220:frucd_display.c ****                 break;
 221:frucd_display.c ****         }
 222:frucd_display.c ****     }
 223:frucd_display.c **** }
 928              		.loc 1 223 0
 929 0238 03B0     		add	sp, sp, #12
 930              		@ sp needed
 931 023a 30BD     		pop	{r4, r5, pc}
 932              	.L54:
 933              		.align	2
 934              	.L53:
 935 023c 00000000 		.word	.L32
 936 0240 00000000 		.word	last_state_color
 937 0244 00FFFF00 		.word	16776960
 938 0248 48000000 		.word	.LC25
 939 024c 54000000 		.word	.LC27
 940 0250 60000000 		.word	.LC29
 941 0254 6C000000 		.word	.LC31
 942 0258 78000000 		.word	.LC33
 943 025c 84000000 		.word	.LC35
 944 0260 90000000 		.word	.LC37
 945 0264 9C000000 		.word	.LC39
 946 0268 A8000000 		.word	.LC41
 947 026c B4000000 		.word	.LC43
 948 0270 C0000000 		.word	.LC45
 949 0274 CC000000 		.word	.LC47
 950              		.cfi_endproc
 951              	.LFE39:
 952              		.size	disp_state, .-disp_state
 953              		.global	__aeabi_uidiv
 954              		.section	.text.disp_glv_v,"ax",%progbits
 955              		.align	2
 956              		.global	disp_glv_v
 957              		.code	16
 958              		.thumb_func
 959              		.type	disp_glv_v, %function
 960              	disp_glv_v:
 961              	.LFB40:
 224:frucd_display.c **** 
 225:frucd_display.c **** void disp_glv_v(uint32_t data) {
 962              		.loc 1 225 0
 963              		.cfi_startproc
 964              		@ args = 0, pretend = 0, frame = 8
 965              		@ frame_needed = 0, uses_anonymous_args = 0
 966              	.LVL86:
 967 0000 30B5     		push	{r4, r5, lr}
ARM GAS  C:\Users\leoja\AppData\Local\Temp\cc39o2Na.s 			page 22


 968              		.cfi_def_cfa_offset 12
 969              		.cfi_offset 4, -12
 970              		.cfi_offset 5, -8
 971              		.cfi_offset 14, -4
 972 0002 85B0     		sub	sp, sp, #20
 973              		.cfi_def_cfa_offset 32
 226:frucd_display.c ****     // translate from voltage divider measurement to true voltage
 227:frucd_display.c ****     // y = 0.4295x + 18.254
 228:frucd_display.c ****     data *= 859;
 974              		.loc 1 228 0
 975 0004 254B     		ldr	r3, .L62
 976 0006 5843     		muls	r0, r3
 977              	.LVL87:
 229:frucd_display.c ****     data /= 2000; // 0.4295
 978              		.loc 1 229 0
 979 0008 FA21     		movs	r1, #250
 980 000a C900     		lsls	r1, r1, #3
 981 000c FFF7FEFF 		bl	__aeabi_uidiv
 982              	.LVL88:
 230:frucd_display.c ****     data += 18;
 983              		.loc 1 230 0
 984 0010 1230     		adds	r0, r0, #18
 985              	.LVL89:
 986 0012 0400     		movs	r4, r0
 987              	.LVL90:
 231:frucd_display.c ****     UG_COLOR color;
 232:frucd_display.c ****     if (data > 1150) {
 988              		.loc 1 232 0
 989 0014 224B     		ldr	r3, .L62+4
 990 0016 9842     		cmp	r0, r3
 991 0018 07D8     		bhi	.L59
 233:frucd_display.c ****         color = C_GREEN;
 234:frucd_display.c ****     } else if (data > 1100) {
 992              		.loc 1 234 0
 993 001a 224B     		ldr	r3, .L62+8
 994 001c 9842     		cmp	r0, r3
 995 001e 07D8     		bhi	.L60
 235:frucd_display.c ****         color = C_YELLOW;
 236:frucd_display.c ****     } else if (data > 1050) {
 996              		.loc 1 236 0
 997 0020 214B     		ldr	r3, .L62+12
 998 0022 9842     		cmp	r0, r3
 999 0024 06D9     		bls	.L61
 237:frucd_display.c ****         color = C_ORANGE;
 1000              		.loc 1 237 0
 1001 0026 214D     		ldr	r5, .L62+16
 1002 0028 06E0     		b	.L56
 1003              	.L59:
 233:frucd_display.c ****         color = C_GREEN;
 1004              		.loc 1 233 0
 1005 002a FF25     		movs	r5, #255
 1006 002c 2D02     		lsls	r5, r5, #8
 1007 002e 03E0     		b	.L56
 1008              	.L60:
 235:frucd_display.c ****         color = C_YELLOW;
 1009              		.loc 1 235 0
 1010 0030 1F4D     		ldr	r5, .L62+20
ARM GAS  C:\Users\leoja\AppData\Local\Temp\cc39o2Na.s 			page 23


 1011 0032 01E0     		b	.L56
 1012              	.L61:
 238:frucd_display.c ****     } else {
 239:frucd_display.c ****         color = C_RED;
 1013              		.loc 1 239 0
 1014 0034 FF25     		movs	r5, #255
 1015 0036 2D04     		lsls	r5, r5, #16
 1016              	.L56:
 1017              	.LVL91:
 240:frucd_display.c ****     }
 241:frucd_display.c ****     if (color != last_glv_v_color) {
 1018              		.loc 1 241 0
 1019 0038 1E4B     		ldr	r3, .L62+24
 1020 003a 1B68     		ldr	r3, [r3]
 1021 003c 9D42     		cmp	r5, r3
 1022 003e 09D0     		beq	.L57
 242:frucd_display.c ****         // only draw rectangle if color changed
 243:frucd_display.c ****         UG_FillFrame(95, 230, 182, 260, color);
 1023              		.loc 1 243 0
 1024 0040 0095     		str	r5, [sp]
 1025 0042 8223     		movs	r3, #130
 1026 0044 5B00     		lsls	r3, r3, #1
 1027 0046 B622     		movs	r2, #182
 1028 0048 E621     		movs	r1, #230
 1029 004a 5F20     		movs	r0, #95
 1030              	.LVL92:
 1031 004c FFF7FEFF 		bl	UG_FillFrame
 1032              	.LVL93:
 244:frucd_display.c ****         last_glv_v_color = color;
 1033              		.loc 1 244 0
 1034 0050 184B     		ldr	r3, .L62+24
 1035 0052 1D60     		str	r5, [r3]
 1036              	.L57:
 245:frucd_display.c ****     }
 246:frucd_display.c ****     char data_s[7];
 247:frucd_display.c ****     sprintf(data_s, "%d", data);
 1037              		.loc 1 247 0
 1038 0054 2200     		movs	r2, r4
 1039 0056 1849     		ldr	r1, .L62+28
 1040 0058 02A8     		add	r0, sp, #8
 1041 005a FFF7FEFF 		bl	sprintf
 1042              	.LVL94:
 248:frucd_display.c ****     // handle 3 digit cases; 2 and 1 are practically impossible
 249:frucd_display.c ****     if (data < 1000) {
 1043              		.loc 1 249 0
 1044 005e 174B     		ldr	r3, .L62+32
 1045 0060 9C42     		cmp	r4, r3
 1046 0062 08D8     		bhi	.L58
 250:frucd_display.c ****         data_s[3] = data_s[2];
 1047              		.loc 1 250 0
 1048 0064 02AB     		add	r3, sp, #8
 1049 0066 9A78     		ldrb	r2, [r3, #2]
 1050 0068 DA70     		strb	r2, [r3, #3]
 251:frucd_display.c ****         data_s[2] = data_s[1];
 1051              		.loc 1 251 0
 1052 006a 5A78     		ldrb	r2, [r3, #1]
 1053 006c 9A70     		strb	r2, [r3, #2]
ARM GAS  C:\Users\leoja\AppData\Local\Temp\cc39o2Na.s 			page 24


 252:frucd_display.c ****         data_s[1] = data_s[0];  
 1054              		.loc 1 252 0
 1055 006e 1A78     		ldrb	r2, [r3]
 1056 0070 5A70     		strb	r2, [r3, #1]
 253:frucd_display.c ****         data_s[0] = ' ';
 1057              		.loc 1 253 0
 1058 0072 2022     		movs	r2, #32
 1059 0074 1A70     		strb	r2, [r3]
 1060              	.L58:
 254:frucd_display.c ****     }
 255:frucd_display.c ****     // shift over fractional part
 256:frucd_display.c ****     data_s[4] = data_s[3];
 1061              		.loc 1 256 0
 1062 0076 02AA     		add	r2, sp, #8
 1063 0078 D378     		ldrb	r3, [r2, #3]
 1064 007a 1371     		strb	r3, [r2, #4]
 257:frucd_display.c ****     data_s[3] = data_s[2];
 1065              		.loc 1 257 0
 1066 007c 9378     		ldrb	r3, [r2, #2]
 1067 007e D370     		strb	r3, [r2, #3]
 258:frucd_display.c ****     // add syntax
 259:frucd_display.c ****     data_s[2] = '.';
 1068              		.loc 1 259 0
 1069 0080 2E23     		movs	r3, #46
 1070 0082 9370     		strb	r3, [r2, #2]
 260:frucd_display.c ****     data_s[5] = 'V';
 1071              		.loc 1 260 0
 1072 0084 2833     		adds	r3, r3, #40
 1073 0086 5371     		strb	r3, [r2, #5]
 261:frucd_display.c ****     data_s[6] = '\0';
 1074              		.loc 1 261 0
 1075 0088 0023     		movs	r3, #0
 1076 008a 9371     		strb	r3, [r2, #6]
 262:frucd_display.c ****     UG_PutColorString(100, 240, data_s, C_BLACK, color);
 1077              		.loc 1 262 0
 1078 008c 0095     		str	r5, [sp]
 1079 008e F021     		movs	r1, #240
 1080 0090 6420     		movs	r0, #100
 1081 0092 FFF7FEFF 		bl	UG_PutColorString
 1082              	.LVL95:
 263:frucd_display.c **** }
 1083              		.loc 1 263 0
 1084 0096 05B0     		add	sp, sp, #20
 1085              		@ sp needed
 1086              	.LVL96:
 1087              	.LVL97:
 1088 0098 30BD     		pop	{r4, r5, pc}
 1089              	.L63:
 1090 009a C046     		.align	2
 1091              	.L62:
 1092 009c 5B030000 		.word	859
 1093 00a0 7E040000 		.word	1150
 1094 00a4 4C040000 		.word	1100
 1095 00a8 1A040000 		.word	1050
 1096 00ac 00A5FF00 		.word	16753920
 1097 00b0 00FFFF00 		.word	16776960
 1098 00b4 00000000 		.word	last_glv_v_color
ARM GAS  C:\Users\leoja\AppData\Local\Temp\cc39o2Na.s 			page 25


 1099 00b8 44000000 		.word	.LC16
 1100 00bc E7030000 		.word	999
 1101              		.cfi_endproc
 1102              	.LFE40:
 1103              		.size	disp_glv_v, .-disp_glv_v
 1104              		.section	.text.disp_mc_temp,"ax",%progbits
 1105              		.align	2
 1106              		.global	disp_mc_temp
 1107              		.code	16
 1108              		.thumb_func
 1109              		.type	disp_mc_temp, %function
 1110              	disp_mc_temp:
 1111              	.LFB41:
 264:frucd_display.c **** 
 265:frucd_display.c **** void disp_mc_temp(uint16_t data) {
 1112              		.loc 1 265 0
 1113              		.cfi_startproc
 1114              		@ args = 0, pretend = 0, frame = 8
 1115              		@ frame_needed = 0, uses_anonymous_args = 0
 1116              	.LVL98:
 1117 0000 70B5     		push	{r4, r5, r6, lr}
 1118              		.cfi_def_cfa_offset 16
 1119              		.cfi_offset 4, -16
 1120              		.cfi_offset 5, -12
 1121              		.cfi_offset 6, -8
 1122              		.cfi_offset 14, -4
 1123 0002 84B0     		sub	sp, sp, #16
 1124              		.cfi_def_cfa_offset 32
 1125 0004 0500     		movs	r5, r0
 266:frucd_display.c ****     if (data >= 100) {
 1126              		.loc 1 266 0
 1127 0006 6328     		cmp	r0, #99
 1128 0008 1CD9     		bls	.L65
 1129              	.LBB4:
 267:frucd_display.c ****         // handle 3 digit cases
 268:frucd_display.c ****         UG_FillFrame(410, 185, 470, 215, C_GREEN);
 1130              		.loc 1 268 0
 1131 000a FF26     		movs	r6, #255
 1132 000c 3602     		lsls	r6, r6, #8
 1133 000e 0096     		str	r6, [sp]
 1134 0010 D723     		movs	r3, #215
 1135 0012 EB22     		movs	r2, #235
 1136 0014 5200     		lsls	r2, r2, #1
 1137 0016 B921     		movs	r1, #185
 1138 0018 CD20     		movs	r0, #205
 1139              	.LVL99:
 1140 001a 4000     		lsls	r0, r0, #1
 1141 001c FFF7FEFF 		bl	UG_FillFrame
 1142              	.LVL100:
 269:frucd_display.c ****         char data_s[5];
 270:frucd_display.c ****         sprintf(data_s, "%d", data);
 1143              		.loc 1 270 0
 1144 0020 02AC     		add	r4, sp, #8
 1145 0022 2A00     		movs	r2, r5
 1146 0024 1649     		ldr	r1, .L67
 1147 0026 2000     		movs	r0, r4
 1148 0028 FFF7FEFF 		bl	sprintf
ARM GAS  C:\Users\leoja\AppData\Local\Temp\cc39o2Na.s 			page 26


 1149              	.LVL101:
 271:frucd_display.c ****         data_s[3] = 'C';
 1150              		.loc 1 271 0
 1151 002c 4323     		movs	r3, #67
 1152 002e E370     		strb	r3, [r4, #3]
 272:frucd_display.c ****         data_s[4] = '\0';
 1153              		.loc 1 272 0
 1154 0030 0023     		movs	r3, #0
 1155 0032 2371     		strb	r3, [r4, #4]
 273:frucd_display.c ****         UG_PutColorString(415, 195, data_s, C_BLACK, C_GREEN);
 1156              		.loc 1 273 0
 1157 0034 0096     		str	r6, [sp]
 1158 0036 2200     		movs	r2, r4
 1159 0038 C321     		movs	r1, #195
 1160 003a A020     		movs	r0, #160
 1161 003c FF30     		adds	r0, r0, #255
 1162 003e FFF7FEFF 		bl	UG_PutColorString
 1163              	.LVL102:
 1164              	.LBE4:
 1165 0042 1BE0     		b	.L64
 1166              	.LVL103:
 1167              	.L65:
 1168              	.LBB5:
 274:frucd_display.c ****     } else {
 275:frucd_display.c ****         // handle 2 digit cases
 276:frucd_display.c ****         UG_FillFrame(410, 185, 470, 215, C_GREEN);
 1169              		.loc 1 276 0
 1170 0044 FF26     		movs	r6, #255
 1171 0046 3602     		lsls	r6, r6, #8
 1172 0048 0096     		str	r6, [sp]
 1173 004a D723     		movs	r3, #215
 1174 004c EB22     		movs	r2, #235
 1175 004e 5200     		lsls	r2, r2, #1
 1176 0050 B921     		movs	r1, #185
 1177 0052 CD20     		movs	r0, #205
 1178              	.LVL104:
 1179 0054 4000     		lsls	r0, r0, #1
 1180 0056 FFF7FEFF 		bl	UG_FillFrame
 1181              	.LVL105:
 277:frucd_display.c ****         char data_s[4];
 278:frucd_display.c ****         sprintf(data_s, "%d", data);
 1182              		.loc 1 278 0
 1183 005a 02AC     		add	r4, sp, #8
 1184 005c 2A00     		movs	r2, r5
 1185 005e 0849     		ldr	r1, .L67
 1186 0060 2000     		movs	r0, r4
 1187 0062 FFF7FEFF 		bl	sprintf
 1188              	.LVL106:
 279:frucd_display.c ****         data_s[2] = 'C';
 1189              		.loc 1 279 0
 1190 0066 4323     		movs	r3, #67
 1191 0068 A370     		strb	r3, [r4, #2]
 280:frucd_display.c ****         data_s[3] = '\0';
 1192              		.loc 1 280 0
 1193 006a 0023     		movs	r3, #0
 1194 006c E370     		strb	r3, [r4, #3]
 281:frucd_display.c ****         UG_PutColorString(422, 195, data_s, C_BLACK, C_GREEN);
ARM GAS  C:\Users\leoja\AppData\Local\Temp\cc39o2Na.s 			page 27


 1195              		.loc 1 281 0
 1196 006e 0096     		str	r6, [sp]
 1197 0070 2200     		movs	r2, r4
 1198 0072 C321     		movs	r1, #195
 1199 0074 D320     		movs	r0, #211
 1200 0076 4000     		lsls	r0, r0, #1
 1201 0078 FFF7FEFF 		bl	UG_PutColorString
 1202              	.LVL107:
 1203              	.L64:
 1204              	.LBE5:
 282:frucd_display.c ****     }
 283:frucd_display.c **** }
 1205              		.loc 1 283 0
 1206 007c 04B0     		add	sp, sp, #16
 1207              		@ sp needed
 1208 007e 70BD     		pop	{r4, r5, r6, pc}
 1209              	.L68:
 1210              		.align	2
 1211              	.L67:
 1212 0080 44000000 		.word	.LC16
 1213              		.cfi_endproc
 1214              	.LFE41:
 1215              		.size	disp_mc_temp, .-disp_mc_temp
 1216              		.section	.text.disp_motor_temp,"ax",%progbits
 1217              		.align	2
 1218              		.global	disp_motor_temp
 1219              		.code	16
 1220              		.thumb_func
 1221              		.type	disp_motor_temp, %function
 1222              	disp_motor_temp:
 1223              	.LFB42:
 284:frucd_display.c **** 
 285:frucd_display.c **** void disp_motor_temp(uint16_t data) {
 1224              		.loc 1 285 0
 1225              		.cfi_startproc
 1226              		@ args = 0, pretend = 0, frame = 8
 1227              		@ frame_needed = 0, uses_anonymous_args = 0
 1228              	.LVL108:
 1229 0000 70B5     		push	{r4, r5, r6, lr}
 1230              		.cfi_def_cfa_offset 16
 1231              		.cfi_offset 4, -16
 1232              		.cfi_offset 5, -12
 1233              		.cfi_offset 6, -8
 1234              		.cfi_offset 14, -4
 1235 0002 84B0     		sub	sp, sp, #16
 1236              		.cfi_def_cfa_offset 32
 1237 0004 0500     		movs	r5, r0
 286:frucd_display.c ****     if (data >= 100) {
 1238              		.loc 1 286 0
 1239 0006 6328     		cmp	r0, #99
 1240 0008 1DD9     		bls	.L70
 1241              	.LBB6:
 287:frucd_display.c ****         // handle 3 digit cases
 288:frucd_display.c ****         UG_FillFrame(410, 230, 470, 260, C_GREEN);
 1242              		.loc 1 288 0
 1243 000a FF26     		movs	r6, #255
 1244 000c 3602     		lsls	r6, r6, #8
ARM GAS  C:\Users\leoja\AppData\Local\Temp\cc39o2Na.s 			page 28


 1245 000e 0096     		str	r6, [sp]
 1246 0010 8223     		movs	r3, #130
 1247 0012 5B00     		lsls	r3, r3, #1
 1248 0014 EB22     		movs	r2, #235
 1249 0016 5200     		lsls	r2, r2, #1
 1250 0018 E621     		movs	r1, #230
 1251 001a CD20     		movs	r0, #205
 1252              	.LVL109:
 1253 001c 4000     		lsls	r0, r0, #1
 1254 001e FFF7FEFF 		bl	UG_FillFrame
 1255              	.LVL110:
 289:frucd_display.c ****         char data_s[5];
 290:frucd_display.c ****         sprintf(data_s, "%d", data);
 1256              		.loc 1 290 0
 1257 0022 02AC     		add	r4, sp, #8
 1258 0024 2A00     		movs	r2, r5
 1259 0026 1749     		ldr	r1, .L72
 1260 0028 2000     		movs	r0, r4
 1261 002a FFF7FEFF 		bl	sprintf
 1262              	.LVL111:
 291:frucd_display.c ****         data_s[3] = 'C';
 1263              		.loc 1 291 0
 1264 002e 4323     		movs	r3, #67
 1265 0030 E370     		strb	r3, [r4, #3]
 292:frucd_display.c ****         data_s[4] = '\0';
 1266              		.loc 1 292 0
 1267 0032 0023     		movs	r3, #0
 1268 0034 2371     		strb	r3, [r4, #4]
 293:frucd_display.c ****         UG_PutColorString(415, 240, data_s, C_BLACK, C_GREEN);
 1269              		.loc 1 293 0
 1270 0036 0096     		str	r6, [sp]
 1271 0038 2200     		movs	r2, r4
 1272 003a F021     		movs	r1, #240
 1273 003c A020     		movs	r0, #160
 1274 003e FF30     		adds	r0, r0, #255
 1275 0040 FFF7FEFF 		bl	UG_PutColorString
 1276              	.LVL112:
 1277              	.LBE6:
 1278 0044 1CE0     		b	.L69
 1279              	.LVL113:
 1280              	.L70:
 1281              	.LBB7:
 294:frucd_display.c ****     } else {
 295:frucd_display.c ****         // handle 2 digit cases
 296:frucd_display.c ****         UG_FillFrame(410, 230, 470, 260, C_GREEN);
 1282              		.loc 1 296 0
 1283 0046 FF26     		movs	r6, #255
 1284 0048 3602     		lsls	r6, r6, #8
 1285 004a 0096     		str	r6, [sp]
 1286 004c 8223     		movs	r3, #130
 1287 004e 5B00     		lsls	r3, r3, #1
 1288 0050 EB22     		movs	r2, #235
 1289 0052 5200     		lsls	r2, r2, #1
 1290 0054 E621     		movs	r1, #230
 1291 0056 CD20     		movs	r0, #205
 1292              	.LVL114:
 1293 0058 4000     		lsls	r0, r0, #1
ARM GAS  C:\Users\leoja\AppData\Local\Temp\cc39o2Na.s 			page 29


 1294 005a FFF7FEFF 		bl	UG_FillFrame
 1295              	.LVL115:
 297:frucd_display.c ****         char data_s[4];
 298:frucd_display.c ****         sprintf(data_s, "%d", data);
 1296              		.loc 1 298 0
 1297 005e 02AC     		add	r4, sp, #8
 1298 0060 2A00     		movs	r2, r5
 1299 0062 0849     		ldr	r1, .L72
 1300 0064 2000     		movs	r0, r4
 1301 0066 FFF7FEFF 		bl	sprintf
 1302              	.LVL116:
 299:frucd_display.c ****         data_s[2] = 'C';
 1303              		.loc 1 299 0
 1304 006a 4323     		movs	r3, #67
 1305 006c A370     		strb	r3, [r4, #2]
 300:frucd_display.c ****         data_s[3] = '\0';
 1306              		.loc 1 300 0
 1307 006e 0023     		movs	r3, #0
 1308 0070 E370     		strb	r3, [r4, #3]
 301:frucd_display.c ****         UG_PutColorString(422, 240, data_s, C_BLACK, C_GREEN);
 1309              		.loc 1 301 0
 1310 0072 0096     		str	r6, [sp]
 1311 0074 2200     		movs	r2, r4
 1312 0076 F021     		movs	r1, #240
 1313 0078 D320     		movs	r0, #211
 1314 007a 4000     		lsls	r0, r0, #1
 1315 007c FFF7FEFF 		bl	UG_PutColorString
 1316              	.LVL117:
 1317              	.L69:
 1318              	.LBE7:
 302:frucd_display.c ****     }
 303:frucd_display.c **** }
 1319              		.loc 1 303 0
 1320 0080 04B0     		add	sp, sp, #16
 1321              		@ sp needed
 1322 0082 70BD     		pop	{r4, r5, r6, pc}
 1323              	.L73:
 1324              		.align	2
 1325              	.L72:
 1326 0084 44000000 		.word	.LC16
 1327              		.cfi_endproc
 1328              	.LFE42:
 1329              		.size	disp_motor_temp, .-disp_motor_temp
 1330              		.comm	last_motor_temp_color,4,4
 1331              		.comm	last_mc_temp_color,4,4
 1332              		.comm	last_glv_v_color,4,4
 1333              		.comm	last_state_color,4,4
 1334              		.comm	last_max_pack_temp_color,4,4
 1335              		.comm	last_SOC_color,4,4
 1336              		.comm	gui1963,120,4
 1337              		.section	.rodata.str1.4,"aMS",%progbits,1
 1338              		.align	2
 1339              	.LC0:
 1340 0000 5041434B 		.ascii	"PACK SOC\000"
 1340      20534F43 
 1340      00
 1341 0009 000000   		.space	3
ARM GAS  C:\Users\leoja\AppData\Local\Temp\cc39o2Na.s 			page 30


 1342              	.LC2:
 1343 000c 4D415820 		.ascii	"MAX PACK T\000"
 1343      5041434B 
 1343      205400
 1344 0017 00       		.space	1
 1345              	.LC4:
 1346 0018 53544154 		.ascii	"STATE:\000"
 1346      453A00
 1347 001f 00       		.space	1
 1348              	.LC6:
 1349 0020 474C5620 		.ascii	"GLV V:\000"
 1349      563A00
 1350 0027 00       		.space	1
 1351              	.LC8:
 1352 0028 4D432054 		.ascii	"MC T:\000"
 1352      3A00
 1353 002e 0000     		.space	2
 1354              	.LC10:
 1355 0030 4D4F544F 		.ascii	"MOTOR T:\000"
 1355      5220543A 
 1355      00
 1356 0039 000000   		.space	3
 1357              	.LC14:
 1358 003c 31303025 		.ascii	"100%\000"
 1358      00
 1359 0041 000000   		.space	3
 1360              	.LC16:
 1361 0044 256400   		.ascii	"%d\000"
 1362 0047 00       		.space	1
 1363              	.LC25:
 1364 0048 20535441 		.ascii	" STARTUP  \000"
 1364      52545550 
 1364      202000
 1365 0053 00       		.space	1
 1366              	.LC27:
 1367 0054 44525620 		.ascii	"DRV FRM LV\000"
 1367      46524D20 
 1367      4C5600
 1368 005f 00       		.space	1
 1369              	.LC29:
 1370 0060 50524520 		.ascii	"PRE TM OUT\000"
 1370      544D204F 
 1370      555400
 1371 006b 00       		.space	1
 1372              	.LC31:
 1373 006c 4252204E 		.ascii	"BR NOT PRS\000"
 1373      4F542050 
 1373      525300
 1374 0077 00       		.space	1
 1375              	.LC33:
 1376 0078 4856204F 		.ascii	"HV OFF DRV\000"
 1376      46462044 
 1376      525600
 1377 0083 00       		.space	1
 1378              	.LC35:
 1379 0084 534E5352 		.ascii	"SNSR DSCRP\000"
 1379      20445343 
ARM GAS  C:\Users\leoja\AppData\Local\Temp\cc39o2Na.s 			page 31


 1379      525000
 1380 008f 00       		.space	1
 1381              	.LC37:
 1382 0090 42535044 		.ascii	"BSPD TRIPD\000"
 1382      20545249 
 1382      504400
 1383 009b 00       		.space	1
 1384              	.LC39:
 1385 009c 53485444 		.ascii	"SHTDWN OPN\000"
 1385      574E204F 
 1385      504E00
 1386 00a7 00       		.space	1
 1387              	.LC41:
 1388 00a8 20202020 		.ascii	"    LV    \000"
 1388      4C562020 
 1388      202000
 1389 00b3 00       		.space	1
 1390              	.LC43:
 1391 00b4 50524543 		.ascii	"PRECHARGE \000"
 1391      48415247 
 1391      452000
 1392 00bf 00       		.space	1
 1393              	.LC45:
 1394 00c0 48562045 		.ascii	"HV ENABLED\000"
 1394      4E41424C 
 1394      454400
 1395 00cb 00       		.space	1
 1396              	.LC47:
 1397 00cc 20204452 		.ascii	"  DRIVE   \000"
 1397      49564520 
 1397      202000
 1398              		.text
 1399              	.Letext0:
 1400              		.file 2 "c:\\program files (x86)\\cypress\\psoc creator\\4.4\\psoc creator\\import\\gnu\\arm\\5.4.
 1401              		.file 3 "c:\\program files (x86)\\cypress\\psoc creator\\4.4\\psoc creator\\import\\gnu\\arm\\5.4.
 1402              		.file 4 "Generated_Source\\PSoC4/cytypes.h"
 1403              		.file 5 "data.h"
 1404              		.file 6 "ugui_config.h"
 1405              		.file 7 "ugui.h"
 1406              		.file 8 "ugui_SSD1963.h"
 1407              		.file 9 "frucd_display.h"
 1408              		.file 10 "Generated_Source\\PSoC4/CyLib.h"
 1409              		.file 11 "c:\\program files (x86)\\cypress\\psoc creator\\4.4\\psoc creator\\import\\gnu\\arm\\5.4
 1410              		.section	.debug_info,"",%progbits
 1411              	.Ldebug_info0:
 1412 0000 35140000 		.4byte	0x1435
 1413 0004 0400     		.2byte	0x4
 1414 0006 00000000 		.4byte	.Ldebug_abbrev0
 1415 000a 04       		.byte	0x4
 1416 000b 01       		.uleb128 0x1
 1417 000c 92010000 		.4byte	.LASF128
 1418 0010 0C       		.byte	0xc
 1419 0011 CE050000 		.4byte	.LASF129
 1420 0015 0B040000 		.4byte	.LASF130
 1421 0019 00000000 		.4byte	.Ldebug_ranges0+0
 1422 001d 00000000 		.4byte	0
 1423 0021 00000000 		.4byte	.Ldebug_line0
ARM GAS  C:\Users\leoja\AppData\Local\Temp\cc39o2Na.s 			page 32


 1424 0025 02       		.uleb128 0x2
 1425 0026 9A030000 		.4byte	.LASF0
 1426 002a 02       		.byte	0x2
 1427 002b 1B       		.byte	0x1b
 1428 002c 30000000 		.4byte	0x30
 1429 0030 03       		.uleb128 0x3
 1430 0031 01       		.byte	0x1
 1431 0032 06       		.byte	0x6
 1432 0033 AF050000 		.4byte	.LASF2
 1433 0037 02       		.uleb128 0x2
 1434 0038 B5040000 		.4byte	.LASF1
 1435 003c 02       		.byte	0x2
 1436 003d 1D       		.byte	0x1d
 1437 003e 42000000 		.4byte	0x42
 1438 0042 03       		.uleb128 0x3
 1439 0043 01       		.byte	0x1
 1440 0044 08       		.byte	0x8
 1441 0045 31050000 		.4byte	.LASF3
 1442 0049 02       		.uleb128 0x2
 1443 004a 56030000 		.4byte	.LASF4
 1444 004e 02       		.byte	0x2
 1445 004f 29       		.byte	0x29
 1446 0050 54000000 		.4byte	0x54
 1447 0054 03       		.uleb128 0x3
 1448 0055 02       		.byte	0x2
 1449 0056 05       		.byte	0x5
 1450 0057 01040000 		.4byte	.LASF5
 1451 005b 02       		.uleb128 0x2
 1452 005c 60010000 		.4byte	.LASF6
 1453 0060 02       		.byte	0x2
 1454 0061 2B       		.byte	0x2b
 1455 0062 66000000 		.4byte	0x66
 1456 0066 03       		.uleb128 0x3
 1457 0067 02       		.byte	0x2
 1458 0068 07       		.byte	0x7
 1459 0069 BB050000 		.4byte	.LASF7
 1460 006d 03       		.uleb128 0x3
 1461 006e 04       		.byte	0x4
 1462 006f 05       		.byte	0x5
 1463 0070 81040000 		.4byte	.LASF8
 1464 0074 02       		.uleb128 0x2
 1465 0075 3F050000 		.4byte	.LASF9
 1466 0079 02       		.byte	0x2
 1467 007a 41       		.byte	0x41
 1468 007b 7F000000 		.4byte	0x7f
 1469 007f 03       		.uleb128 0x3
 1470 0080 04       		.byte	0x4
 1471 0081 07       		.byte	0x7
 1472 0082 DE040000 		.4byte	.LASF10
 1473 0086 03       		.uleb128 0x3
 1474 0087 08       		.byte	0x8
 1475 0088 05       		.byte	0x5
 1476 0089 2F030000 		.4byte	.LASF11
 1477 008d 03       		.uleb128 0x3
 1478 008e 08       		.byte	0x8
 1479 008f 07       		.byte	0x7
 1480 0090 39010000 		.4byte	.LASF12
ARM GAS  C:\Users\leoja\AppData\Local\Temp\cc39o2Na.s 			page 33


 1481 0094 04       		.uleb128 0x4
 1482 0095 04       		.byte	0x4
 1483 0096 05       		.byte	0x5
 1484 0097 696E7400 		.ascii	"int\000"
 1485 009b 03       		.uleb128 0x3
 1486 009c 04       		.byte	0x4
 1487 009d 07       		.byte	0x7
 1488 009e 48000000 		.4byte	.LASF13
 1489 00a2 02       		.uleb128 0x2
 1490 00a3 E9000000 		.4byte	.LASF14
 1491 00a7 03       		.byte	0x3
 1492 00a8 14       		.byte	0x14
 1493 00a9 25000000 		.4byte	0x25
 1494 00ad 02       		.uleb128 0x2
 1495 00ae 0E030000 		.4byte	.LASF15
 1496 00b2 03       		.byte	0x3
 1497 00b3 18       		.byte	0x18
 1498 00b4 37000000 		.4byte	0x37
 1499 00b8 02       		.uleb128 0x2
 1500 00b9 26010000 		.4byte	.LASF16
 1501 00bd 03       		.byte	0x3
 1502 00be 20       		.byte	0x20
 1503 00bf 49000000 		.4byte	0x49
 1504 00c3 02       		.uleb128 0x2
 1505 00c4 CB030000 		.4byte	.LASF17
 1506 00c8 03       		.byte	0x3
 1507 00c9 24       		.byte	0x24
 1508 00ca 5B000000 		.4byte	0x5b
 1509 00ce 02       		.uleb128 0x2
 1510 00cf E0000000 		.4byte	.LASF18
 1511 00d3 03       		.byte	0x3
 1512 00d4 30       		.byte	0x30
 1513 00d5 74000000 		.4byte	0x74
 1514 00d9 05       		.uleb128 0x5
 1515 00da DE050000 		.4byte	.LASF19
 1516 00de 04       		.byte	0x4
 1517 00df FB01     		.2byte	0x1fb
 1518 00e1 42000000 		.4byte	0x42
 1519 00e5 03       		.uleb128 0x3
 1520 00e6 04       		.byte	0x4
 1521 00e7 04       		.byte	0x4
 1522 00e8 FD000000 		.4byte	.LASF20
 1523 00ec 03       		.uleb128 0x3
 1524 00ed 08       		.byte	0x8
 1525 00ee 04       		.byte	0x4
 1526 00ef E4050000 		.4byte	.LASF21
 1527 00f3 03       		.uleb128 0x3
 1528 00f4 01       		.byte	0x1
 1529 00f5 08       		.byte	0x8
 1530 00f6 CE020000 		.4byte	.LASF22
 1531 00fa 03       		.uleb128 0x3
 1532 00fb 08       		.byte	0x8
 1533 00fc 04       		.byte	0x4
 1534 00fd B7030000 		.4byte	.LASF23
 1535 0101 03       		.uleb128 0x3
 1536 0102 04       		.byte	0x4
 1537 0103 07       		.byte	0x7
ARM GAS  C:\Users\leoja\AppData\Local\Temp\cc39o2Na.s 			page 34


 1538 0104 C4040000 		.4byte	.LASF24
 1539 0108 06       		.uleb128 0x6
 1540 0109 04       		.byte	0x4
 1541 010a 07       		.uleb128 0x7
 1542 010b 04       		.byte	0x4
 1543 010c F3000000 		.4byte	0xf3
 1544 0110 07       		.uleb128 0x7
 1545 0111 04       		.byte	0x4
 1546 0112 42000000 		.4byte	0x42
 1547 0116 08       		.uleb128 0x8
 1548 0117 01       		.byte	0x1
 1549 0118 42000000 		.4byte	0x42
 1550 011c 05       		.byte	0x5
 1551 011d 09       		.byte	0x9
 1552 011e 40010000 		.4byte	0x140
 1553 0122 09       		.uleb128 0x9
 1554 0123 4C5600   		.ascii	"LV\000"
 1555 0126 00       		.byte	0
 1556 0127 0A       		.uleb128 0xa
 1557 0128 88030000 		.4byte	.LASF25
 1558 012c 01       		.byte	0x1
 1559 012d 0A       		.uleb128 0xa
 1560 012e B3020000 		.4byte	.LASF26
 1561 0132 02       		.byte	0x2
 1562 0133 0A       		.uleb128 0xa
 1563 0134 20010000 		.4byte	.LASF27
 1564 0138 03       		.byte	0x3
 1565 0139 0A       		.uleb128 0xa
 1566 013a 65050000 		.4byte	.LASF28
 1567 013e 80       		.byte	0x80
 1568 013f 00       		.byte	0
 1569 0140 08       		.uleb128 0x8
 1570 0141 01       		.byte	0x1
 1571 0142 42000000 		.4byte	0x42
 1572 0146 05       		.byte	0x5
 1573 0147 11       		.byte	0x11
 1574 0148 7D010000 		.4byte	0x17d
 1575 014c 0A       		.uleb128 0xa
 1576 014d 68000000 		.4byte	.LASF29
 1577 0151 00       		.byte	0
 1578 0152 0A       		.uleb128 0xa
 1579 0153 F9050000 		.4byte	.LASF30
 1580 0157 01       		.byte	0x1
 1581 0158 0A       		.uleb128 0xa
 1582 0159 D3020000 		.4byte	.LASF31
 1583 015d 02       		.byte	0x2
 1584 015e 0A       		.uleb128 0xa
 1585 015f 38020000 		.4byte	.LASF32
 1586 0163 03       		.byte	0x3
 1587 0164 0A       		.uleb128 0xa
 1588 0165 72020000 		.4byte	.LASF33
 1589 0169 04       		.byte	0x4
 1590 016a 0A       		.uleb128 0xa
 1591 016b 7E000000 		.4byte	.LASF34
 1592 016f 05       		.byte	0x5
 1593 0170 0A       		.uleb128 0xa
 1594 0171 A8000000 		.4byte	.LASF35
ARM GAS  C:\Users\leoja\AppData\Local\Temp\cc39o2Na.s 			page 35


 1595 0175 06       		.byte	0x6
 1596 0176 0A       		.uleb128 0xa
 1597 0177 8C020000 		.4byte	.LASF36
 1598 017b 07       		.byte	0x7
 1599 017c 00       		.byte	0
 1600 017d 02       		.uleb128 0x2
 1601 017e 94030000 		.4byte	.LASF37
 1602 0182 06       		.byte	0x6
 1603 0183 26       		.byte	0x26
 1604 0184 AD000000 		.4byte	0xad
 1605 0188 02       		.uleb128 0x2
 1606 0189 23030000 		.4byte	.LASF38
 1607 018d 06       		.byte	0x6
 1608 018e 27       		.byte	0x27
 1609 018f A2000000 		.4byte	0xa2
 1610 0193 02       		.uleb128 0x2
 1611 0194 41000000 		.4byte	.LASF39
 1612 0198 06       		.byte	0x6
 1613 0199 28       		.byte	0x28
 1614 019a C3000000 		.4byte	0xc3
 1615 019e 02       		.uleb128 0x2
 1616 019f 80010000 		.4byte	.LASF40
 1617 01a3 06       		.byte	0x6
 1618 01a4 29       		.byte	0x29
 1619 01a5 B8000000 		.4byte	0xb8
 1620 01a9 02       		.uleb128 0x2
 1621 01aa F0000000 		.4byte	.LASF41
 1622 01ae 06       		.byte	0x6
 1623 01af 2A       		.byte	0x2a
 1624 01b0 CE000000 		.4byte	0xce
 1625 01b4 08       		.uleb128 0x8
 1626 01b5 01       		.byte	0x1
 1627 01b6 42000000 		.4byte	0x42
 1628 01ba 07       		.byte	0x7
 1629 01bb 1F       		.byte	0x1f
 1630 01bc CD010000 		.4byte	0x1cd
 1631 01c0 0A       		.uleb128 0xa
 1632 01c1 2A060000 		.4byte	.LASF42
 1633 01c5 00       		.byte	0
 1634 01c6 0A       		.uleb128 0xa
 1635 01c7 0F000000 		.4byte	.LASF43
 1636 01cb 01       		.byte	0x1
 1637 01cc 00       		.byte	0
 1638 01cd 02       		.uleb128 0x2
 1639 01ce 9E000000 		.4byte	.LASF44
 1640 01d2 07       		.byte	0x7
 1641 01d3 22       		.byte	0x22
 1642 01d4 B4010000 		.4byte	0x1b4
 1643 01d8 0B       		.uleb128 0xb
 1644 01d9 14       		.byte	0x14
 1645 01da 07       		.byte	0x7
 1646 01db 24       		.byte	0x24
 1647 01dc 33020000 		.4byte	0x233
 1648 01e0 0C       		.uleb128 0xc
 1649 01e1 7000     		.ascii	"p\000"
 1650 01e3 07       		.byte	0x7
 1651 01e4 26       		.byte	0x26
ARM GAS  C:\Users\leoja\AppData\Local\Temp\cc39o2Na.s 			page 36


 1652 01e5 10010000 		.4byte	0x110
 1653 01e9 00       		.byte	0
 1654 01ea 0D       		.uleb128 0xd
 1655 01eb EC020000 		.4byte	.LASF45
 1656 01ef 07       		.byte	0x7
 1657 01f0 27       		.byte	0x27
 1658 01f1 CD010000 		.4byte	0x1cd
 1659 01f5 04       		.byte	0x4
 1660 01f6 0D       		.uleb128 0xd
 1661 01f7 67020000 		.4byte	.LASF46
 1662 01fb 07       		.byte	0x7
 1663 01fc 28       		.byte	0x28
 1664 01fd 9E010000 		.4byte	0x19e
 1665 0201 06       		.byte	0x6
 1666 0202 0D       		.uleb128 0xd
 1667 0203 F5030000 		.4byte	.LASF47
 1668 0207 07       		.byte	0x7
 1669 0208 29       		.byte	0x29
 1670 0209 9E010000 		.4byte	0x19e
 1671 020d 08       		.byte	0x8
 1672 020e 0D       		.uleb128 0xd
 1673 020f 7D030000 		.4byte	.LASF48
 1674 0213 07       		.byte	0x7
 1675 0214 2A       		.byte	0x2a
 1676 0215 93010000 		.4byte	0x193
 1677 0219 0A       		.byte	0xa
 1678 021a 0D       		.uleb128 0xd
 1679 021b A4040000 		.4byte	.LASF49
 1680 021f 07       		.byte	0x7
 1681 0220 2B       		.byte	0x2b
 1682 0221 93010000 		.4byte	0x193
 1683 0225 0C       		.byte	0xc
 1684 0226 0D       		.uleb128 0xd
 1685 0227 A3030000 		.4byte	.LASF50
 1686 022b 07       		.byte	0x7
 1687 022c 2C       		.byte	0x2c
 1688 022d 33020000 		.4byte	0x233
 1689 0231 10       		.byte	0x10
 1690 0232 00       		.byte	0
 1691 0233 07       		.uleb128 0x7
 1692 0234 04       		.byte	0x4
 1693 0235 7D010000 		.4byte	0x17d
 1694 0239 02       		.uleb128 0x2
 1695 023a AD040000 		.4byte	.LASF51
 1696 023e 07       		.byte	0x7
 1697 023f 2D       		.byte	0x2d
 1698 0240 D8010000 		.4byte	0x1d8
 1699 0244 02       		.uleb128 0x2
 1700 0245 60030000 		.4byte	.LASF52
 1701 0249 07       		.byte	0x7
 1702 024a 66       		.byte	0x66
 1703 024b 4F020000 		.4byte	0x24f
 1704 024f 0E       		.uleb128 0xe
 1705 0250 0F060000 		.4byte	.LASF62
 1706 0254 20       		.byte	0x20
 1707 0255 07       		.byte	0x7
 1708 0256 F7       		.byte	0xf7
ARM GAS  C:\Users\leoja\AppData\Local\Temp\cc39o2Na.s 			page 37


 1709 0257 C9020000 		.4byte	0x2c9
 1710 025b 0D       		.uleb128 0xd
 1711 025c 8A050000 		.4byte	.LASF53
 1712 0260 07       		.byte	0x7
 1713 0261 F9       		.byte	0xf9
 1714 0262 7D010000 		.4byte	0x17d
 1715 0266 00       		.byte	0
 1716 0267 0D       		.uleb128 0xd
 1717 0268 2C000000 		.4byte	.LASF54
 1718 026c 07       		.byte	0x7
 1719 026d FA       		.byte	0xfa
 1720 026e 7D010000 		.4byte	0x17d
 1721 0272 01       		.byte	0x1
 1722 0273 0D       		.uleb128 0xd
 1723 0274 91000000 		.4byte	.LASF55
 1724 0278 07       		.byte	0x7
 1725 0279 FB       		.byte	0xfb
 1726 027a 6E040000 		.4byte	0x46e
 1727 027e 04       		.byte	0x4
 1728 027f 0D       		.uleb128 0xd
 1729 0280 1E060000 		.4byte	.LASF56
 1730 0284 07       		.byte	0x7
 1731 0285 FC       		.byte	0xfc
 1732 0286 B7030000 		.4byte	0x3b7
 1733 028a 08       		.byte	0x8
 1734 028b 0D       		.uleb128 0xd
 1735 028c A0050000 		.4byte	.LASF57
 1736 0290 07       		.byte	0x7
 1737 0291 FD       		.byte	0xfd
 1738 0292 B7030000 		.4byte	0x3b7
 1739 0296 10       		.byte	0x10
 1740 0297 0D       		.uleb128 0xd
 1741 0298 2C050000 		.4byte	.LASF58
 1742 029c 07       		.byte	0x7
 1743 029d FE       		.byte	0xfe
 1744 029e 7D010000 		.4byte	0x17d
 1745 02a2 18       		.byte	0x18
 1746 02a3 0C       		.uleb128 0xc
 1747 02a4 696400   		.ascii	"id\000"
 1748 02a7 07       		.byte	0x7
 1749 02a8 FF       		.byte	0xff
 1750 02a9 7D010000 		.4byte	0x17d
 1751 02ad 19       		.byte	0x19
 1752 02ae 0F       		.uleb128 0xf
 1753 02af 03010000 		.4byte	.LASF59
 1754 02b3 07       		.byte	0x7
 1755 02b4 0001     		.2byte	0x100
 1756 02b6 7D010000 		.4byte	0x17d
 1757 02ba 1A       		.byte	0x1a
 1758 02bb 0F       		.uleb128 0xf
 1759 02bc 09030000 		.4byte	.LASF60
 1760 02c0 07       		.byte	0x7
 1761 02c1 0101     		.2byte	0x101
 1762 02c3 08010000 		.4byte	0x108
 1763 02c7 1C       		.byte	0x1c
 1764 02c8 00       		.byte	0
 1765 02c9 02       		.uleb128 0x2
ARM GAS  C:\Users\leoja\AppData\Local\Temp\cc39o2Na.s 			page 38


 1766 02ca 8A040000 		.4byte	.LASF61
 1767 02ce 07       		.byte	0x7
 1768 02cf 67       		.byte	0x67
 1769 02d0 D4020000 		.4byte	0x2d4
 1770 02d4 10       		.uleb128 0x10
 1771 02d5 75000000 		.4byte	.LASF63
 1772 02d9 44       		.byte	0x44
 1773 02da 07       		.byte	0x7
 1774 02db 4101     		.2byte	0x141
 1775 02dd 77030000 		.4byte	0x377
 1776 02e1 0F       		.uleb128 0xf
 1777 02e2 79010000 		.4byte	.LASF64
 1778 02e6 07       		.byte	0x7
 1779 02e7 4301     		.2byte	0x143
 1780 02e9 7D010000 		.4byte	0x17d
 1781 02ed 00       		.byte	0
 1782 02ee 0F       		.uleb128 0xf
 1783 02ef C7000000 		.4byte	.LASF65
 1784 02f3 07       		.byte	0x7
 1785 02f4 4401     		.2byte	0x144
 1786 02f6 68040000 		.4byte	0x468
 1787 02fa 04       		.byte	0x4
 1788 02fb 0F       		.uleb128 0xf
 1789 02fc 8A050000 		.4byte	.LASF53
 1790 0300 07       		.byte	0x7
 1791 0301 4501     		.2byte	0x145
 1792 0303 7D010000 		.4byte	0x17d
 1793 0307 08       		.byte	0x8
 1794 0308 11       		.uleb128 0x11
 1795 0309 666300   		.ascii	"fc\000"
 1796 030c 07       		.byte	0x7
 1797 030d 4601     		.2byte	0x146
 1798 030f 77030000 		.4byte	0x377
 1799 0313 0C       		.byte	0xc
 1800 0314 11       		.uleb128 0x11
 1801 0315 626300   		.ascii	"bc\000"
 1802 0318 07       		.byte	0x7
 1803 0319 4701     		.2byte	0x147
 1804 031b 77030000 		.4byte	0x377
 1805 031f 10       		.byte	0x10
 1806 0320 11       		.uleb128 0x11
 1807 0321 787300   		.ascii	"xs\000"
 1808 0324 07       		.byte	0x7
 1809 0325 4801     		.2byte	0x148
 1810 0327 9E010000 		.4byte	0x19e
 1811 032b 14       		.byte	0x14
 1812 032c 11       		.uleb128 0x11
 1813 032d 797300   		.ascii	"ys\000"
 1814 0330 07       		.byte	0x7
 1815 0331 4901     		.2byte	0x149
 1816 0333 9E010000 		.4byte	0x19e
 1817 0337 16       		.byte	0x16
 1818 0338 11       		.uleb128 0x11
 1819 0339 786500   		.ascii	"xe\000"
 1820 033c 07       		.byte	0x7
 1821 033d 4A01     		.2byte	0x14a
 1822 033f 9E010000 		.4byte	0x19e
ARM GAS  C:\Users\leoja\AppData\Local\Temp\cc39o2Na.s 			page 39


 1823 0343 18       		.byte	0x18
 1824 0344 11       		.uleb128 0x11
 1825 0345 796500   		.ascii	"ye\000"
 1826 0348 07       		.byte	0x7
 1827 0349 4B01     		.2byte	0x14b
 1828 034b 9E010000 		.4byte	0x19e
 1829 034f 1A       		.byte	0x1a
 1830 0350 0F       		.uleb128 0xf
 1831 0351 84050000 		.4byte	.LASF66
 1832 0355 07       		.byte	0x7
 1833 0356 4C01     		.2byte	0x14c
 1834 0358 7D010000 		.4byte	0x17d
 1835 035c 1C       		.byte	0x1c
 1836 035d 0F       		.uleb128 0xf
 1837 035e DA000000 		.4byte	.LASF67
 1838 0362 07       		.byte	0x7
 1839 0363 4D01     		.2byte	0x14d
 1840 0365 FE040000 		.4byte	0x4fe
 1841 0369 20       		.byte	0x20
 1842 036a 11       		.uleb128 0x11
 1843 036b 636200   		.ascii	"cb\000"
 1844 036e 07       		.byte	0x7
 1845 036f 4E01     		.2byte	0x14e
 1846 0371 1B050000 		.4byte	0x51b
 1847 0375 40       		.byte	0x40
 1848 0376 00       		.byte	0
 1849 0377 02       		.uleb128 0x2
 1850 0378 38000000 		.4byte	.LASF68
 1851 037c 07       		.byte	0x7
 1852 037d 6A       		.byte	0x6a
 1853 037e A9010000 		.4byte	0x1a9
 1854 0382 0B       		.uleb128 0xb
 1855 0383 08       		.byte	0x8
 1856 0384 07       		.byte	0x7
 1857 0385 A7       		.byte	0xa7
 1858 0386 B7030000 		.4byte	0x3b7
 1859 038a 0C       		.uleb128 0xc
 1860 038b 787300   		.ascii	"xs\000"
 1861 038e 07       		.byte	0x7
 1862 038f A9       		.byte	0xa9
 1863 0390 9E010000 		.4byte	0x19e
 1864 0394 00       		.byte	0
 1865 0395 0C       		.uleb128 0xc
 1866 0396 797300   		.ascii	"ys\000"
 1867 0399 07       		.byte	0x7
 1868 039a AA       		.byte	0xaa
 1869 039b 9E010000 		.4byte	0x19e
 1870 039f 02       		.byte	0x2
 1871 03a0 0C       		.uleb128 0xc
 1872 03a1 786500   		.ascii	"xe\000"
 1873 03a4 07       		.byte	0x7
 1874 03a5 AB       		.byte	0xab
 1875 03a6 9E010000 		.4byte	0x19e
 1876 03aa 04       		.byte	0x4
 1877 03ab 0C       		.uleb128 0xc
 1878 03ac 796500   		.ascii	"ye\000"
 1879 03af 07       		.byte	0x7
ARM GAS  C:\Users\leoja\AppData\Local\Temp\cc39o2Na.s 			page 40


 1880 03b0 AC       		.byte	0xac
 1881 03b1 9E010000 		.4byte	0x19e
 1882 03b5 06       		.byte	0x6
 1883 03b6 00       		.byte	0
 1884 03b7 02       		.uleb128 0x2
 1885 03b8 F6020000 		.4byte	.LASF69
 1886 03bc 07       		.byte	0x7
 1887 03bd AD       		.byte	0xad
 1888 03be 82030000 		.4byte	0x382
 1889 03c2 07       		.uleb128 0x7
 1890 03c3 04       		.byte	0x4
 1891 03c4 C8030000 		.4byte	0x3c8
 1892 03c8 12       		.uleb128 0x12
 1893 03c9 39020000 		.4byte	0x239
 1894 03cd 0B       		.uleb128 0xb
 1895 03ce 08       		.byte	0x8
 1896 03cf 07       		.byte	0x7
 1897 03d0 D6       		.byte	0xd6
 1898 03d1 11040000 		.4byte	0x411
 1899 03d5 0D       		.uleb128 0xd
 1900 03d6 2C050000 		.4byte	.LASF58
 1901 03da 07       		.byte	0x7
 1902 03db D8       		.byte	0xd8
 1903 03dc 7D010000 		.4byte	0x17d
 1904 03e0 00       		.byte	0
 1905 03e1 0C       		.uleb128 0xc
 1906 03e2 696400   		.ascii	"id\000"
 1907 03e5 07       		.byte	0x7
 1908 03e6 D9       		.byte	0xd9
 1909 03e7 7D010000 		.4byte	0x17d
 1910 03eb 01       		.byte	0x1
 1911 03ec 0D       		.uleb128 0xd
 1912 03ed 6F030000 		.4byte	.LASF70
 1913 03f1 07       		.byte	0x7
 1914 03f2 DA       		.byte	0xda
 1915 03f3 7D010000 		.4byte	0x17d
 1916 03f7 02       		.byte	0x2
 1917 03f8 0D       		.uleb128 0xd
 1918 03f9 03010000 		.4byte	.LASF59
 1919 03fd 07       		.byte	0x7
 1920 03fe DB       		.byte	0xdb
 1921 03ff 7D010000 		.4byte	0x17d
 1922 0403 03       		.byte	0x3
 1923 0404 0C       		.uleb128 0xc
 1924 0405 73726300 		.ascii	"src\000"
 1925 0409 07       		.byte	0x7
 1926 040a DC       		.byte	0xdc
 1927 040b 08010000 		.4byte	0x108
 1928 040f 04       		.byte	0x4
 1929 0410 00       		.byte	0
 1930 0411 02       		.uleb128 0x2
 1931 0412 FE020000 		.4byte	.LASF71
 1932 0416 07       		.byte	0x7
 1933 0417 DD       		.byte	0xdd
 1934 0418 CD030000 		.4byte	0x3cd
 1935 041c 0B       		.uleb128 0xb
 1936 041d 06       		.byte	0x6
ARM GAS  C:\Users\leoja\AppData\Local\Temp\cc39o2Na.s 			page 41


 1937 041e 07       		.byte	0x7
 1938 041f E8       		.byte	0xe8
 1939 0420 47040000 		.4byte	0x447
 1940 0424 0D       		.uleb128 0xd
 1941 0425 8A050000 		.4byte	.LASF53
 1942 0429 07       		.byte	0x7
 1943 042a EA       		.byte	0xea
 1944 042b 7D010000 		.4byte	0x17d
 1945 042f 00       		.byte	0
 1946 0430 0C       		.uleb128 0xc
 1947 0431 787000   		.ascii	"xp\000"
 1948 0434 07       		.byte	0x7
 1949 0435 EB       		.byte	0xeb
 1950 0436 9E010000 		.4byte	0x19e
 1951 043a 02       		.byte	0x2
 1952 043b 0C       		.uleb128 0xc
 1953 043c 797000   		.ascii	"yp\000"
 1954 043f 07       		.byte	0x7
 1955 0440 EC       		.byte	0xec
 1956 0441 9E010000 		.4byte	0x19e
 1957 0445 04       		.byte	0x4
 1958 0446 00       		.byte	0
 1959 0447 02       		.uleb128 0x2
 1960 0448 A6050000 		.4byte	.LASF72
 1961 044c 07       		.byte	0x7
 1962 044d ED       		.byte	0xed
 1963 044e 1C040000 		.4byte	0x41c
 1964 0452 13       		.uleb128 0x13
 1965 0453 62040000 		.4byte	0x462
 1966 0457 14       		.uleb128 0x14
 1967 0458 62040000 		.4byte	0x462
 1968 045c 14       		.uleb128 0x14
 1969 045d 68040000 		.4byte	0x468
 1970 0461 00       		.byte	0
 1971 0462 07       		.uleb128 0x7
 1972 0463 04       		.byte	0x4
 1973 0464 C9020000 		.4byte	0x2c9
 1974 0468 07       		.uleb128 0x7
 1975 0469 04       		.byte	0x4
 1976 046a 44020000 		.4byte	0x244
 1977 046e 07       		.uleb128 0x7
 1978 046f 04       		.byte	0x4
 1979 0470 52040000 		.4byte	0x452
 1980 0474 15       		.uleb128 0x15
 1981 0475 20       		.byte	0x20
 1982 0476 07       		.byte	0x7
 1983 0477 3201     		.2byte	0x132
 1984 0479 FE040000 		.4byte	0x4fe
 1985 047d 11       		.uleb128 0x11
 1986 047e 73747200 		.ascii	"str\000"
 1987 0482 07       		.byte	0x7
 1988 0483 3401     		.2byte	0x134
 1989 0485 0A010000 		.4byte	0x10a
 1990 0489 00       		.byte	0
 1991 048a 0F       		.uleb128 0xf
 1992 048b BF040000 		.4byte	.LASF73
 1993 048f 07       		.byte	0x7
ARM GAS  C:\Users\leoja\AppData\Local\Temp\cc39o2Na.s 			page 42


 1994 0490 3501     		.2byte	0x135
 1995 0492 C2030000 		.4byte	0x3c2
 1996 0496 04       		.byte	0x4
 1997 0497 0F       		.uleb128 0xf
 1998 0498 4A050000 		.4byte	.LASF74
 1999 049c 07       		.byte	0x7
 2000 049d 3601     		.2byte	0x136
 2001 049f 88010000 		.4byte	0x188
 2002 04a3 08       		.byte	0x8
 2003 04a4 0F       		.uleb128 0xf
 2004 04a5 C6020000 		.4byte	.LASF75
 2005 04a9 07       		.byte	0x7
 2006 04aa 3701     		.2byte	0x137
 2007 04ac 88010000 		.4byte	0x188
 2008 04b0 09       		.byte	0x9
 2009 04b1 0F       		.uleb128 0xf
 2010 04b2 18060000 		.4byte	.LASF76
 2011 04b6 07       		.byte	0x7
 2012 04b7 3801     		.2byte	0x138
 2013 04b9 7D010000 		.4byte	0x17d
 2014 04bd 0A       		.byte	0xa
 2015 04be 11       		.uleb128 0x11
 2016 04bf 666300   		.ascii	"fc\000"
 2017 04c2 07       		.byte	0x7
 2018 04c3 3901     		.2byte	0x139
 2019 04c5 77030000 		.4byte	0x377
 2020 04c9 0C       		.byte	0xc
 2021 04ca 11       		.uleb128 0x11
 2022 04cb 626300   		.ascii	"bc\000"
 2023 04ce 07       		.byte	0x7
 2024 04cf 3A01     		.2byte	0x13a
 2025 04d1 77030000 		.4byte	0x377
 2026 04d5 10       		.byte	0x10
 2027 04d6 11       		.uleb128 0x11
 2028 04d7 69666300 		.ascii	"ifc\000"
 2029 04db 07       		.byte	0x7
 2030 04dc 3B01     		.2byte	0x13b
 2031 04de 77030000 		.4byte	0x377
 2032 04e2 14       		.byte	0x14
 2033 04e3 11       		.uleb128 0x11
 2034 04e4 69626300 		.ascii	"ibc\000"
 2035 04e8 07       		.byte	0x7
 2036 04e9 3C01     		.2byte	0x13c
 2037 04eb 77030000 		.4byte	0x377
 2038 04ef 18       		.byte	0x18
 2039 04f0 0F       		.uleb128 0xf
 2040 04f1 76030000 		.4byte	.LASF77
 2041 04f5 07       		.byte	0x7
 2042 04f6 3D01     		.2byte	0x13d
 2043 04f8 7D010000 		.4byte	0x17d
 2044 04fc 1C       		.byte	0x1c
 2045 04fd 00       		.byte	0
 2046 04fe 05       		.uleb128 0x5
 2047 04ff DC030000 		.4byte	.LASF78
 2048 0503 07       		.byte	0x7
 2049 0504 3E01     		.2byte	0x13e
 2050 0506 74040000 		.4byte	0x474
ARM GAS  C:\Users\leoja\AppData\Local\Temp\cc39o2Na.s 			page 43


 2051 050a 13       		.uleb128 0x13
 2052 050b 15050000 		.4byte	0x515
 2053 050f 14       		.uleb128 0x14
 2054 0510 15050000 		.4byte	0x515
 2055 0514 00       		.byte	0
 2056 0515 07       		.uleb128 0x7
 2057 0516 04       		.byte	0x4
 2058 0517 11040000 		.4byte	0x411
 2059 051b 07       		.uleb128 0x7
 2060 051c 04       		.byte	0x4
 2061 051d 0A050000 		.4byte	0x50a
 2062 0521 15       		.uleb128 0x15
 2063 0522 08       		.byte	0x8
 2064 0523 07       		.byte	0x7
 2065 0524 2002     		.2byte	0x220
 2066 0526 45050000 		.4byte	0x545
 2067 052a 0F       		.uleb128 0xf
 2068 052b 1C030000 		.4byte	.LASF79
 2069 052f 07       		.byte	0x7
 2070 0530 2202     		.2byte	0x222
 2071 0532 08010000 		.4byte	0x108
 2072 0536 00       		.byte	0
 2073 0537 0F       		.uleb128 0xf
 2074 0538 8A050000 		.4byte	.LASF53
 2075 053c 07       		.byte	0x7
 2076 053d 2302     		.2byte	0x223
 2077 053f 7D010000 		.4byte	0x17d
 2078 0543 04       		.byte	0x4
 2079 0544 00       		.byte	0
 2080 0545 05       		.uleb128 0x5
 2081 0546 E5030000 		.4byte	.LASF80
 2082 054a 07       		.byte	0x7
 2083 054b 2402     		.2byte	0x224
 2084 054d 21050000 		.4byte	0x521
 2085 0551 15       		.uleb128 0x15
 2086 0552 14       		.byte	0x14
 2087 0553 07       		.byte	0x7
 2088 0554 3C02     		.2byte	0x23c
 2089 0556 C3050000 		.4byte	0x5c3
 2090 055a 0F       		.uleb128 0xf
 2091 055b EF030000 		.4byte	.LASF81
 2092 055f 07       		.byte	0x7
 2093 0560 3E02     		.2byte	0x23e
 2094 0562 9E010000 		.4byte	0x19e
 2095 0566 00       		.byte	0
 2096 0567 0F       		.uleb128 0xf
 2097 0568 62000000 		.4byte	.LASF82
 2098 056c 07       		.byte	0x7
 2099 056d 3F02     		.2byte	0x23f
 2100 056f 9E010000 		.4byte	0x19e
 2101 0573 02       		.byte	0x2
 2102 0574 0F       		.uleb128 0xf
 2103 0575 5D050000 		.4byte	.LASF83
 2104 0579 07       		.byte	0x7
 2105 057a 4002     		.2byte	0x240
 2106 057c 9E010000 		.4byte	0x19e
 2107 0580 04       		.byte	0x4
ARM GAS  C:\Users\leoja\AppData\Local\Temp\cc39o2Na.s 			page 44


 2108 0581 0F       		.uleb128 0xf
 2109 0582 BE020000 		.4byte	.LASF84
 2110 0586 07       		.byte	0x7
 2111 0587 4102     		.2byte	0x241
 2112 0589 9E010000 		.4byte	0x19e
 2113 058d 06       		.byte	0x6
 2114 058e 0F       		.uleb128 0xf
 2115 058f F7000000 		.4byte	.LASF85
 2116 0593 07       		.byte	0x7
 2117 0594 4202     		.2byte	0x242
 2118 0596 9E010000 		.4byte	0x19e
 2119 059a 08       		.byte	0x8
 2120 059b 0F       		.uleb128 0xf
 2121 059c 6B050000 		.4byte	.LASF86
 2122 05a0 07       		.byte	0x7
 2123 05a1 4302     		.2byte	0x243
 2124 05a3 9E010000 		.4byte	0x19e
 2125 05a7 0A       		.byte	0xa
 2126 05a8 0F       		.uleb128 0xf
 2127 05a9 87010000 		.4byte	.LASF87
 2128 05ad 07       		.byte	0x7
 2129 05ae 4402     		.2byte	0x244
 2130 05b0 77030000 		.4byte	0x377
 2131 05b4 0C       		.byte	0xc
 2132 05b5 0F       		.uleb128 0xf
 2133 05b6 15010000 		.4byte	.LASF88
 2134 05ba 07       		.byte	0x7
 2135 05bb 4502     		.2byte	0x245
 2136 05bd 77030000 		.4byte	0x377
 2137 05c1 10       		.byte	0x10
 2138 05c2 00       		.byte	0
 2139 05c3 15       		.uleb128 0x15
 2140 05c4 78       		.byte	0x78
 2141 05c5 07       		.byte	0x7
 2142 05c6 3302     		.2byte	0x233
 2143 05c8 9D060000 		.4byte	0x69d
 2144 05cc 0F       		.uleb128 0xf
 2145 05cd 6A030000 		.4byte	.LASF89
 2146 05d1 07       		.byte	0x7
 2147 05d2 3502     		.2byte	0x235
 2148 05d4 B2060000 		.4byte	0x6b2
 2149 05d8 00       		.byte	0
 2150 05d9 0F       		.uleb128 0xf
 2151 05da 29030000 		.4byte	.LASF90
 2152 05de 07       		.byte	0x7
 2153 05df 3602     		.2byte	0x236
 2154 05e1 9E010000 		.4byte	0x19e
 2155 05e5 04       		.byte	0x4
 2156 05e6 0F       		.uleb128 0xf
 2157 05e7 98000000 		.4byte	.LASF91
 2158 05eb 07       		.byte	0x7
 2159 05ec 3702     		.2byte	0x237
 2160 05ee 9E010000 		.4byte	0x19e
 2161 05f2 06       		.byte	0x6
 2162 05f3 0F       		.uleb128 0xf
 2163 05f4 16030000 		.4byte	.LASF92
 2164 05f8 07       		.byte	0x7
ARM GAS  C:\Users\leoja\AppData\Local\Temp\cc39o2Na.s 			page 45


 2165 05f9 3802     		.2byte	0x238
 2166 05fb 47040000 		.4byte	0x447
 2167 05ff 08       		.byte	0x8
 2168 0600 0F       		.uleb128 0xf
 2169 0601 CE000000 		.4byte	.LASF93
 2170 0605 07       		.byte	0x7
 2171 0606 3902     		.2byte	0x239
 2172 0608 62040000 		.4byte	0x462
 2173 060c 10       		.byte	0x10
 2174 060d 0F       		.uleb128 0xf
 2175 060e 6B010000 		.4byte	.LASF94
 2176 0612 07       		.byte	0x7
 2177 0613 3A02     		.2byte	0x23a
 2178 0615 62040000 		.4byte	0x462
 2179 0619 14       		.byte	0x14
 2180 061a 0F       		.uleb128 0xf
 2181 061b 09010000 		.4byte	.LASF95
 2182 061f 07       		.byte	0x7
 2183 0620 3B02     		.2byte	0x23b
 2184 0622 62040000 		.4byte	0x462
 2185 0626 18       		.byte	0x18
 2186 0627 0F       		.uleb128 0xf
 2187 0628 6D000000 		.4byte	.LASF96
 2188 062c 07       		.byte	0x7
 2189 062d 4602     		.2byte	0x246
 2190 062f 51050000 		.4byte	0x551
 2191 0633 1C       		.byte	0x1c
 2192 0634 0F       		.uleb128 0xf
 2193 0635 BF040000 		.4byte	.LASF73
 2194 0639 07       		.byte	0x7
 2195 063a 4702     		.2byte	0x247
 2196 063c 39020000 		.4byte	0x239
 2197 0640 30       		.byte	0x30
 2198 0641 0F       		.uleb128 0xf
 2199 0642 39060000 		.4byte	.LASF97
 2200 0646 07       		.byte	0x7
 2201 0647 4802     		.2byte	0x248
 2202 0649 88010000 		.4byte	0x188
 2203 064d 44       		.byte	0x44
 2204 064e 0F       		.uleb128 0xf
 2205 064f 55000000 		.4byte	.LASF98
 2206 0653 07       		.byte	0x7
 2207 0654 4902     		.2byte	0x249
 2208 0656 88010000 		.4byte	0x188
 2209 065a 45       		.byte	0x45
 2210 065b 0F       		.uleb128 0xf
 2211 065c 87010000 		.4byte	.LASF87
 2212 0660 07       		.byte	0x7
 2213 0661 4A02     		.2byte	0x24a
 2214 0663 77030000 		.4byte	0x377
 2215 0667 48       		.byte	0x48
 2216 0668 0F       		.uleb128 0xf
 2217 0669 15010000 		.4byte	.LASF88
 2218 066d 07       		.byte	0x7
 2219 066e 4B02     		.2byte	0x24b
 2220 0670 77030000 		.4byte	0x377
 2221 0674 4C       		.byte	0x4c
ARM GAS  C:\Users\leoja\AppData\Local\Temp\cc39o2Na.s 			page 46


 2222 0675 0F       		.uleb128 0xf
 2223 0676 1E000000 		.4byte	.LASF99
 2224 067a 07       		.byte	0x7
 2225 067b 4C02     		.2byte	0x24c
 2226 067d 77030000 		.4byte	0x377
 2227 0681 50       		.byte	0x50
 2228 0682 0F       		.uleb128 0xf
 2229 0683 8A050000 		.4byte	.LASF53
 2230 0687 07       		.byte	0x7
 2231 0688 4D02     		.2byte	0x24d
 2232 068a 7D010000 		.4byte	0x17d
 2233 068e 54       		.byte	0x54
 2234 068f 0F       		.uleb128 0xf
 2235 0690 1C030000 		.4byte	.LASF79
 2236 0694 07       		.byte	0x7
 2237 0695 4E02     		.2byte	0x24e
 2238 0697 B8060000 		.4byte	0x6b8
 2239 069b 58       		.byte	0x58
 2240 069c 00       		.byte	0
 2241 069d 13       		.uleb128 0x13
 2242 069e B2060000 		.4byte	0x6b2
 2243 06a2 14       		.uleb128 0x14
 2244 06a3 9E010000 		.4byte	0x19e
 2245 06a7 14       		.uleb128 0x14
 2246 06a8 9E010000 		.4byte	0x19e
 2247 06ac 14       		.uleb128 0x14
 2248 06ad 77030000 		.4byte	0x377
 2249 06b1 00       		.byte	0
 2250 06b2 07       		.uleb128 0x7
 2251 06b3 04       		.byte	0x4
 2252 06b4 9D060000 		.4byte	0x69d
 2253 06b8 16       		.uleb128 0x16
 2254 06b9 45050000 		.4byte	0x545
 2255 06bd C8060000 		.4byte	0x6c8
 2256 06c1 17       		.uleb128 0x17
 2257 06c2 01010000 		.4byte	0x101
 2258 06c6 03       		.byte	0x3
 2259 06c7 00       		.byte	0
 2260 06c8 05       		.uleb128 0x5
 2261 06c9 99050000 		.4byte	.LASF100
 2262 06cd 07       		.byte	0x7
 2263 06ce 4F02     		.2byte	0x24f
 2264 06d0 C3050000 		.4byte	0x5c3
 2265 06d4 18       		.uleb128 0x18
 2266 06d5 50010000 		.4byte	.LASF101
 2267 06d9 01       		.byte	0x1
 2268 06da 0A       		.byte	0xa
 2269 06db 00000000 		.4byte	.LFB35
 2270 06df 74000000 		.4byte	.LFE35-.LFB35
 2271 06e3 01       		.uleb128 0x1
 2272 06e4 9C       		.byte	0x9c
 2273 06e5 C4070000 		.4byte	0x7c4
 2274 06e9 19       		.uleb128 0x19
 2275 06ea 0A000000 		.4byte	.LVL0
 2276 06ee E6130000 		.4byte	0x13e6
 2277 06f2 00070000 		.4byte	0x700
 2278 06f6 1A       		.uleb128 0x1a
ARM GAS  C:\Users\leoja\AppData\Local\Temp\cc39o2Na.s 			page 47


 2279 06f7 01       		.uleb128 0x1
 2280 06f8 50       		.byte	0x50
 2281 06f9 05       		.uleb128 0x5
 2282 06fa 0C       		.byte	0xc
 2283 06fb FFFFFF00 		.4byte	0xffffff
 2284 06ff 00       		.byte	0
 2285 0700 19       		.uleb128 0x19
 2286 0701 1C000000 		.4byte	.LVL1
 2287 0705 F2130000 		.4byte	0x13f2
 2288 0709 2B070000 		.4byte	0x72b
 2289 070d 1A       		.uleb128 0x1a
 2290 070e 01       		.uleb128 0x1
 2291 070f 50       		.byte	0x50
 2292 0710 01       		.uleb128 0x1
 2293 0711 30       		.byte	0x30
 2294 0712 1A       		.uleb128 0x1a
 2295 0713 01       		.uleb128 0x1
 2296 0714 51       		.byte	0x51
 2297 0715 01       		.uleb128 0x1
 2298 0716 30       		.byte	0x30
 2299 0717 1A       		.uleb128 0x1a
 2300 0718 01       		.uleb128 0x1
 2301 0719 52       		.byte	0x52
 2302 071a 01       		.uleb128 0x1
 2303 071b 3A       		.byte	0x3a
 2304 071c 1A       		.uleb128 0x1a
 2305 071d 01       		.uleb128 0x1
 2306 071e 53       		.byte	0x53
 2307 071f 01       		.uleb128 0x1
 2308 0720 3A       		.byte	0x3a
 2309 0721 1A       		.uleb128 0x1a
 2310 0722 02       		.uleb128 0x2
 2311 0723 7D       		.byte	0x7d
 2312 0724 00       		.sleb128 0
 2313 0725 04       		.uleb128 0x4
 2314 0726 08       		.byte	0x8
 2315 0727 FF       		.byte	0xff
 2316 0728 40       		.byte	0x40
 2317 0729 24       		.byte	0x24
 2318 072a 00       		.byte	0
 2319 072b 19       		.uleb128 0x19
 2320 072c 34000000 		.4byte	.LVL2
 2321 0730 F2130000 		.4byte	0x13f2
 2322 0734 56070000 		.4byte	0x756
 2323 0738 1A       		.uleb128 0x1a
 2324 0739 01       		.uleb128 0x1
 2325 073a 50       		.byte	0x50
 2326 073b 01       		.uleb128 0x1
 2327 073c 30       		.byte	0x30
 2328 073d 1A       		.uleb128 0x1a
 2329 073e 01       		.uleb128 0x1
 2330 073f 51       		.byte	0x51
 2331 0740 02       		.uleb128 0x2
 2332 0741 75       		.byte	0x75
 2333 0742 00       		.sleb128 0
 2334 0743 1A       		.uleb128 0x1a
 2335 0744 01       		.uleb128 0x1
ARM GAS  C:\Users\leoja\AppData\Local\Temp\cc39o2Na.s 			page 48


 2336 0745 52       		.byte	0x52
 2337 0746 01       		.uleb128 0x1
 2338 0747 3A       		.byte	0x3a
 2339 0748 1A       		.uleb128 0x1a
 2340 0749 01       		.uleb128 0x1
 2341 074a 53       		.byte	0x53
 2342 074b 02       		.uleb128 0x2
 2343 074c 77       		.byte	0x77
 2344 074d 00       		.sleb128 0
 2345 074e 1A       		.uleb128 0x1a
 2346 074f 02       		.uleb128 0x2
 2347 0750 7D       		.byte	0x7d
 2348 0751 00       		.sleb128 0
 2349 0752 02       		.uleb128 0x2
 2350 0753 08       		.byte	0x8
 2351 0754 FF       		.byte	0xff
 2352 0755 00       		.byte	0
 2353 0756 19       		.uleb128 0x19
 2354 0757 4E000000 		.4byte	.LVL3
 2355 075b F2130000 		.4byte	0x13f2
 2356 075f 82070000 		.4byte	0x782
 2357 0763 1A       		.uleb128 0x1a
 2358 0764 01       		.uleb128 0x1
 2359 0765 50       		.byte	0x50
 2360 0766 02       		.uleb128 0x2
 2361 0767 74       		.byte	0x74
 2362 0768 00       		.sleb128 0
 2363 0769 1A       		.uleb128 0x1a
 2364 076a 01       		.uleb128 0x1
 2365 076b 51       		.byte	0x51
 2366 076c 01       		.uleb128 0x1
 2367 076d 30       		.byte	0x30
 2368 076e 1A       		.uleb128 0x1a
 2369 076f 01       		.uleb128 0x1
 2370 0770 52       		.byte	0x52
 2371 0771 02       		.uleb128 0x2
 2372 0772 76       		.byte	0x76
 2373 0773 00       		.sleb128 0
 2374 0774 1A       		.uleb128 0x1a
 2375 0775 01       		.uleb128 0x1
 2376 0776 53       		.byte	0x53
 2377 0777 01       		.uleb128 0x1
 2378 0778 3A       		.byte	0x3a
 2379 0779 1A       		.uleb128 0x1a
 2380 077a 02       		.uleb128 0x2
 2381 077b 7D       		.byte	0x7d
 2382 077c 00       		.sleb128 0
 2383 077d 03       		.uleb128 0x3
 2384 077e 0A       		.byte	0xa
 2385 077f 00FF     		.2byte	0xff00
 2386 0781 00       		.byte	0
 2387 0782 19       		.uleb128 0x19
 2388 0783 5E000000 		.4byte	.LVL4
 2389 0787 F2130000 		.4byte	0x13f2
 2390 078b B2070000 		.4byte	0x7b2
 2391 078f 1A       		.uleb128 0x1a
 2392 0790 01       		.uleb128 0x1
ARM GAS  C:\Users\leoja\AppData\Local\Temp\cc39o2Na.s 			page 49


 2393 0791 50       		.byte	0x50
 2394 0792 02       		.uleb128 0x2
 2395 0793 74       		.byte	0x74
 2396 0794 00       		.sleb128 0
 2397 0795 1A       		.uleb128 0x1a
 2398 0796 01       		.uleb128 0x1
 2399 0797 51       		.byte	0x51
 2400 0798 02       		.uleb128 0x2
 2401 0799 75       		.byte	0x75
 2402 079a 00       		.sleb128 0
 2403 079b 1A       		.uleb128 0x1a
 2404 079c 01       		.uleb128 0x1
 2405 079d 52       		.byte	0x52
 2406 079e 02       		.uleb128 0x2
 2407 079f 76       		.byte	0x76
 2408 07a0 00       		.sleb128 0
 2409 07a1 1A       		.uleb128 0x1a
 2410 07a2 01       		.uleb128 0x1
 2411 07a3 53       		.byte	0x53
 2412 07a4 02       		.uleb128 0x2
 2413 07a5 77       		.byte	0x77
 2414 07a6 00       		.sleb128 0
 2415 07a7 1A       		.uleb128 0x1a
 2416 07a8 02       		.uleb128 0x2
 2417 07a9 7D       		.byte	0x7d
 2418 07aa 00       		.sleb128 0
 2419 07ab 05       		.uleb128 0x5
 2420 07ac 0C       		.byte	0xc
 2421 07ad 00FFFF00 		.4byte	0xffff00
 2422 07b1 00       		.byte	0
 2423 07b2 1B       		.uleb128 0x1b
 2424 07b3 66000000 		.4byte	.LVL5
 2425 07b7 FE130000 		.4byte	0x13fe
 2426 07bb 1A       		.uleb128 0x1a
 2427 07bc 01       		.uleb128 0x1
 2428 07bd 50       		.byte	0x50
 2429 07be 03       		.uleb128 0x3
 2430 07bf 0A       		.byte	0xa
 2431 07c0 2C01     		.2byte	0x12c
 2432 07c2 00       		.byte	0
 2433 07c3 00       		.byte	0
 2434 07c4 18       		.uleb128 0x18
 2435 07c5 CD040000 		.4byte	.LASF102
 2436 07c9 01       		.byte	0x1
 2437 07ca 18       		.byte	0x18
 2438 07cb 00000000 		.4byte	.LFB36
 2439 07cf 64000000 		.4byte	.LFE36-.LFB36
 2440 07d3 01       		.uleb128 0x1
 2441 07d4 9C       		.byte	0x9c
 2442 07d5 BA080000 		.4byte	0x8ba
 2443 07d9 19       		.uleb128 0x19
 2444 07da 08000000 		.4byte	.LVL6
 2445 07de E6130000 		.4byte	0x13e6
 2446 07e2 EC070000 		.4byte	0x7ec
 2447 07e6 1A       		.uleb128 0x1a
 2448 07e7 01       		.uleb128 0x1
 2449 07e8 50       		.byte	0x50
ARM GAS  C:\Users\leoja\AppData\Local\Temp\cc39o2Na.s 			page 50


 2450 07e9 01       		.uleb128 0x1
 2451 07ea 30       		.byte	0x30
 2452 07eb 00       		.byte	0
 2453 07ec 19       		.uleb128 0x19
 2454 07ed 12000000 		.4byte	.LVL7
 2455 07f1 09140000 		.4byte	0x1409
 2456 07f5 0E080000 		.4byte	0x80e
 2457 07f9 1A       		.uleb128 0x1a
 2458 07fa 01       		.uleb128 0x1
 2459 07fb 50       		.byte	0x50
 2460 07fc 02       		.uleb128 0x2
 2461 07fd 08       		.byte	0x8
 2462 07fe 44       		.byte	0x44
 2463 07ff 1A       		.uleb128 0x1a
 2464 0800 01       		.uleb128 0x1
 2465 0801 51       		.byte	0x51
 2466 0802 01       		.uleb128 0x1
 2467 0803 3A       		.byte	0x3a
 2468 0804 1A       		.uleb128 0x1a
 2469 0805 01       		.uleb128 0x1
 2470 0806 52       		.byte	0x52
 2471 0807 05       		.uleb128 0x5
 2472 0808 03       		.byte	0x3
 2473 0809 00000000 		.4byte	.LC0
 2474 080d 00       		.byte	0
 2475 080e 19       		.uleb128 0x19
 2476 080f 1E000000 		.4byte	.LVL8
 2477 0813 09140000 		.4byte	0x1409
 2478 0817 31080000 		.4byte	0x831
 2479 081b 1A       		.uleb128 0x1a
 2480 081c 01       		.uleb128 0x1
 2481 081d 50       		.byte	0x50
 2482 081e 03       		.uleb128 0x3
 2483 081f 0A       		.byte	0xa
 2484 0820 2901     		.2byte	0x129
 2485 0822 1A       		.uleb128 0x1a
 2486 0823 01       		.uleb128 0x1
 2487 0824 51       		.byte	0x51
 2488 0825 01       		.uleb128 0x1
 2489 0826 3A       		.byte	0x3a
 2490 0827 1A       		.uleb128 0x1a
 2491 0828 01       		.uleb128 0x1
 2492 0829 52       		.byte	0x52
 2493 082a 05       		.uleb128 0x5
 2494 082b 03       		.byte	0x3
 2495 082c 0C000000 		.4byte	.LC2
 2496 0830 00       		.byte	0
 2497 0831 19       		.uleb128 0x19
 2498 0832 28000000 		.4byte	.LVL9
 2499 0836 09140000 		.4byte	0x1409
 2500 083a 53080000 		.4byte	0x853
 2501 083e 1A       		.uleb128 0x1a
 2502 083f 01       		.uleb128 0x1
 2503 0840 50       		.byte	0x50
 2504 0841 01       		.uleb128 0x1
 2505 0842 3A       		.byte	0x3a
 2506 0843 1A       		.uleb128 0x1a
ARM GAS  C:\Users\leoja\AppData\Local\Temp\cc39o2Na.s 			page 51


 2507 0844 01       		.uleb128 0x1
 2508 0845 51       		.byte	0x51
 2509 0846 02       		.uleb128 0x2
 2510 0847 08       		.byte	0x8
 2511 0848 C3       		.byte	0xc3
 2512 0849 1A       		.uleb128 0x1a
 2513 084a 01       		.uleb128 0x1
 2514 084b 52       		.byte	0x52
 2515 084c 05       		.uleb128 0x5
 2516 084d 03       		.byte	0x3
 2517 084e 18000000 		.4byte	.LC4
 2518 0852 00       		.byte	0
 2519 0853 19       		.uleb128 0x19
 2520 0854 32000000 		.4byte	.LVL10
 2521 0858 09140000 		.4byte	0x1409
 2522 085c 75080000 		.4byte	0x875
 2523 0860 1A       		.uleb128 0x1a
 2524 0861 01       		.uleb128 0x1
 2525 0862 50       		.byte	0x50
 2526 0863 01       		.uleb128 0x1
 2527 0864 3A       		.byte	0x3a
 2528 0865 1A       		.uleb128 0x1a
 2529 0866 01       		.uleb128 0x1
 2530 0867 51       		.byte	0x51
 2531 0868 02       		.uleb128 0x2
 2532 0869 08       		.byte	0x8
 2533 086a F0       		.byte	0xf0
 2534 086b 1A       		.uleb128 0x1a
 2535 086c 01       		.uleb128 0x1
 2536 086d 52       		.byte	0x52
 2537 086e 05       		.uleb128 0x5
 2538 086f 03       		.byte	0x3
 2539 0870 20000000 		.4byte	.LC6
 2540 0874 00       		.byte	0
 2541 0875 19       		.uleb128 0x19
 2542 0876 3E000000 		.4byte	.LVL11
 2543 087a 09140000 		.4byte	0x1409
 2544 087e 99080000 		.4byte	0x899
 2545 0882 1A       		.uleb128 0x1a
 2546 0883 01       		.uleb128 0x1
 2547 0884 50       		.byte	0x50
 2548 0885 03       		.uleb128 0x3
 2549 0886 0A       		.byte	0xa
 2550 0887 5301     		.2byte	0x153
 2551 0889 1A       		.uleb128 0x1a
 2552 088a 01       		.uleb128 0x1
 2553 088b 51       		.byte	0x51
 2554 088c 02       		.uleb128 0x2
 2555 088d 08       		.byte	0x8
 2556 088e C3       		.byte	0xc3
 2557 088f 1A       		.uleb128 0x1a
 2558 0890 01       		.uleb128 0x1
 2559 0891 52       		.byte	0x52
 2560 0892 05       		.uleb128 0x5
 2561 0893 03       		.byte	0x3
 2562 0894 28000000 		.4byte	.LC8
 2563 0898 00       		.byte	0
ARM GAS  C:\Users\leoja\AppData\Local\Temp\cc39o2Na.s 			page 52


 2564 0899 1B       		.uleb128 0x1b
 2565 089a 4A000000 		.4byte	.LVL12
 2566 089e 09140000 		.4byte	0x1409
 2567 08a2 1A       		.uleb128 0x1a
 2568 08a3 01       		.uleb128 0x1
 2569 08a4 50       		.byte	0x50
 2570 08a5 03       		.uleb128 0x3
 2571 08a6 0A       		.byte	0xa
 2572 08a7 2C01     		.2byte	0x12c
 2573 08a9 1A       		.uleb128 0x1a
 2574 08aa 01       		.uleb128 0x1
 2575 08ab 51       		.byte	0x51
 2576 08ac 02       		.uleb128 0x2
 2577 08ad 08       		.byte	0x8
 2578 08ae F0       		.byte	0xf0
 2579 08af 1A       		.uleb128 0x1a
 2580 08b0 01       		.uleb128 0x1
 2581 08b1 52       		.byte	0x52
 2582 08b2 05       		.uleb128 0x5
 2583 08b3 03       		.byte	0x3
 2584 08b4 30000000 		.4byte	.LC10
 2585 08b8 00       		.byte	0
 2586 08b9 00       		.byte	0
 2587 08ba 1C       		.uleb128 0x1c
 2588 08bb 90050000 		.4byte	.LASF105
 2589 08bf 01       		.byte	0x1
 2590 08c0 27       		.byte	0x27
 2591 08c1 00000000 		.4byte	.LFB37
 2592 08c5 04010000 		.4byte	.LFE37-.LFB37
 2593 08c9 01       		.uleb128 0x1
 2594 08ca 9C       		.byte	0x9c
 2595 08cb 720A0000 		.4byte	0xa72
 2596 08cf 1D       		.uleb128 0x1d
 2597 08d0 09030000 		.4byte	.LASF60
 2598 08d4 01       		.byte	0x1
 2599 08d5 27       		.byte	0x27
 2600 08d6 AD000000 		.4byte	0xad
 2601 08da 00000000 		.4byte	.LLST0
 2602 08de 1E       		.uleb128 0x1e
 2603 08df 20020000 		.4byte	.LASF103
 2604 08e3 01       		.byte	0x1
 2605 08e4 29       		.byte	0x29
 2606 08e5 77030000 		.4byte	0x377
 2607 08e9 21000000 		.4byte	.LLST1
 2608 08ed 1F       		.uleb128 0x1f
 2609 08ee 44000000 		.4byte	.LBB2
 2610 08f2 98000000 		.4byte	.LBE2-.LBB2
 2611 08f6 030A0000 		.4byte	0xa03
 2612 08fa 20       		.uleb128 0x20
 2613 08fb 08000000 		.4byte	.LASF104
 2614 08ff 01       		.byte	0x1
 2615 0900 35       		.byte	0x35
 2616 0901 720A0000 		.4byte	0xa72
 2617 0905 02       		.uleb128 0x2
 2618 0906 91       		.byte	0x91
 2619 0907 6C       		.sleb128 -20
 2620 0908 19       		.uleb128 0x19
ARM GAS  C:\Users\leoja\AppData\Local\Temp\cc39o2Na.s 			page 53


 2621 0909 4E000000 		.4byte	.LVL20
 2622 090d 15140000 		.4byte	0x1415
 2623 0911 2B090000 		.4byte	0x92b
 2624 0915 1A       		.uleb128 0x1a
 2625 0916 01       		.uleb128 0x1
 2626 0917 50       		.byte	0x50
 2627 0918 02       		.uleb128 0x2
 2628 0919 91       		.byte	0x91
 2629 091a 6C       		.sleb128 -20
 2630 091b 1A       		.uleb128 0x1a
 2631 091c 01       		.uleb128 0x1
 2632 091d 51       		.byte	0x51
 2633 091e 05       		.uleb128 0x5
 2634 091f 03       		.byte	0x3
 2635 0920 44000000 		.4byte	.LC16
 2636 0924 1A       		.uleb128 0x1a
 2637 0925 01       		.uleb128 0x1
 2638 0926 52       		.byte	0x52
 2639 0927 02       		.uleb128 0x2
 2640 0928 74       		.byte	0x74
 2641 0929 00       		.sleb128 0
 2642 092a 00       		.byte	0
 2643 092b 19       		.uleb128 0x19
 2644 092c 90000000 		.4byte	.LVL22
 2645 0930 F2130000 		.4byte	0x13f2
 2646 0934 57090000 		.4byte	0x957
 2647 0938 1A       		.uleb128 0x1a
 2648 0939 01       		.uleb128 0x1
 2649 093a 50       		.byte	0x50
 2650 093b 01       		.uleb128 0x1
 2651 093c 4E       		.byte	0x4e
 2652 093d 1A       		.uleb128 0x1a
 2653 093e 01       		.uleb128 0x1
 2654 093f 51       		.byte	0x51
 2655 0940 02       		.uleb128 0x2
 2656 0941 08       		.byte	0x8
 2657 0942 23       		.byte	0x23
 2658 0943 1A       		.uleb128 0x1a
 2659 0944 01       		.uleb128 0x1
 2660 0945 52       		.byte	0x52
 2661 0946 02       		.uleb128 0x2
 2662 0947 08       		.byte	0x8
 2663 0948 D2       		.byte	0xd2
 2664 0949 1A       		.uleb128 0x1a
 2665 094a 01       		.uleb128 0x1
 2666 094b 53       		.byte	0x53
 2667 094c 02       		.uleb128 0x2
 2668 094d 08       		.byte	0x8
 2669 094e AA       		.byte	0xaa
 2670 094f 1A       		.uleb128 0x1a
 2671 0950 02       		.uleb128 0x2
 2672 0951 7D       		.byte	0x7d
 2673 0952 00       		.sleb128 0
 2674 0953 02       		.uleb128 0x2
 2675 0954 74       		.byte	0x74
 2676 0955 00       		.sleb128 0
 2677 0956 00       		.byte	0
ARM GAS  C:\Users\leoja\AppData\Local\Temp\cc39o2Na.s 			page 54


 2678 0957 19       		.uleb128 0x19
 2679 0958 A2000000 		.4byte	.LVL23
 2680 095c 20140000 		.4byte	0x1420
 2681 0960 83090000 		.4byte	0x983
 2682 0964 1A       		.uleb128 0x1a
 2683 0965 01       		.uleb128 0x1
 2684 0966 50       		.byte	0x50
 2685 0967 02       		.uleb128 0x2
 2686 0968 08       		.byte	0x8
 2687 0969 46       		.byte	0x46
 2688 096a 1A       		.uleb128 0x1a
 2689 096b 01       		.uleb128 0x1
 2690 096c 51       		.byte	0x51
 2691 096d 02       		.uleb128 0x2
 2692 096e 08       		.byte	0x8
 2693 096f 50       		.byte	0x50
 2694 0970 1A       		.uleb128 0x1a
 2695 0971 01       		.uleb128 0x1
 2696 0972 52       		.byte	0x52
 2697 0973 02       		.uleb128 0x2
 2698 0974 91       		.byte	0x91
 2699 0975 6C       		.sleb128 -20
 2700 0976 1A       		.uleb128 0x1a
 2701 0977 01       		.uleb128 0x1
 2702 0978 53       		.byte	0x53
 2703 0979 01       		.uleb128 0x1
 2704 097a 30       		.byte	0x30
 2705 097b 1A       		.uleb128 0x1a
 2706 097c 02       		.uleb128 0x2
 2707 097d 7D       		.byte	0x7d
 2708 097e 00       		.sleb128 0
 2709 097f 02       		.uleb128 0x2
 2710 0980 74       		.byte	0x74
 2711 0981 00       		.sleb128 0
 2712 0982 00       		.byte	0
 2713 0983 19       		.uleb128 0x19
 2714 0984 BC000000 		.4byte	.LVL26
 2715 0988 F2130000 		.4byte	0x13f2
 2716 098c AE090000 		.4byte	0x9ae
 2717 0990 1A       		.uleb128 0x1a
 2718 0991 01       		.uleb128 0x1
 2719 0992 50       		.byte	0x50
 2720 0993 01       		.uleb128 0x1
 2721 0994 4E       		.byte	0x4e
 2722 0995 1A       		.uleb128 0x1a
 2723 0996 01       		.uleb128 0x1
 2724 0997 51       		.byte	0x51
 2725 0998 02       		.uleb128 0x2
 2726 0999 08       		.byte	0x8
 2727 099a 23       		.byte	0x23
 2728 099b 1A       		.uleb128 0x1a
 2729 099c 01       		.uleb128 0x1
 2730 099d 52       		.byte	0x52
 2731 099e 02       		.uleb128 0x2
 2732 099f 08       		.byte	0x8
 2733 09a0 D2       		.byte	0xd2
 2734 09a1 1A       		.uleb128 0x1a
ARM GAS  C:\Users\leoja\AppData\Local\Temp\cc39o2Na.s 			page 55


 2735 09a2 01       		.uleb128 0x1
 2736 09a3 53       		.byte	0x53
 2737 09a4 02       		.uleb128 0x2
 2738 09a5 08       		.byte	0x8
 2739 09a6 AA       		.byte	0xaa
 2740 09a7 1A       		.uleb128 0x1a
 2741 09a8 02       		.uleb128 0x2
 2742 09a9 7D       		.byte	0x7d
 2743 09aa 00       		.sleb128 0
 2744 09ab 01       		.uleb128 0x1
 2745 09ac 30       		.byte	0x30
 2746 09ad 00       		.byte	0
 2747 09ae 19       		.uleb128 0x19
 2748 09af CE000000 		.4byte	.LVL27
 2749 09b3 F2130000 		.4byte	0x13f2
 2750 09b7 DA090000 		.4byte	0x9da
 2751 09bb 1A       		.uleb128 0x1a
 2752 09bc 01       		.uleb128 0x1
 2753 09bd 50       		.byte	0x50
 2754 09be 01       		.uleb128 0x1
 2755 09bf 4E       		.byte	0x4e
 2756 09c0 1A       		.uleb128 0x1a
 2757 09c1 01       		.uleb128 0x1
 2758 09c2 51       		.byte	0x51
 2759 09c3 02       		.uleb128 0x2
 2760 09c4 08       		.byte	0x8
 2761 09c5 23       		.byte	0x23
 2762 09c6 1A       		.uleb128 0x1a
 2763 09c7 01       		.uleb128 0x1
 2764 09c8 52       		.byte	0x52
 2765 09c9 02       		.uleb128 0x2
 2766 09ca 08       		.byte	0x8
 2767 09cb D2       		.byte	0xd2
 2768 09cc 1A       		.uleb128 0x1a
 2769 09cd 01       		.uleb128 0x1
 2770 09ce 53       		.byte	0x53
 2771 09cf 02       		.uleb128 0x2
 2772 09d0 08       		.byte	0x8
 2773 09d1 AA       		.byte	0xaa
 2774 09d2 1A       		.uleb128 0x1a
 2775 09d3 02       		.uleb128 0x2
 2776 09d4 7D       		.byte	0x7d
 2777 09d5 00       		.sleb128 0
 2778 09d6 02       		.uleb128 0x2
 2779 09d7 75       		.byte	0x75
 2780 09d8 00       		.sleb128 0
 2781 09d9 00       		.byte	0
 2782 09da 1B       		.uleb128 0x1b
 2783 09db DC000000 		.4byte	.LVL28
 2784 09df 20140000 		.4byte	0x1420
 2785 09e3 1A       		.uleb128 0x1a
 2786 09e4 01       		.uleb128 0x1
 2787 09e5 50       		.byte	0x50
 2788 09e6 02       		.uleb128 0x2
 2789 09e7 08       		.byte	0x8
 2790 09e8 5A       		.byte	0x5a
 2791 09e9 1A       		.uleb128 0x1a
ARM GAS  C:\Users\leoja\AppData\Local\Temp\cc39o2Na.s 			page 56


 2792 09ea 01       		.uleb128 0x1
 2793 09eb 51       		.byte	0x51
 2794 09ec 02       		.uleb128 0x2
 2795 09ed 08       		.byte	0x8
 2796 09ee 50       		.byte	0x50
 2797 09ef 1A       		.uleb128 0x1a
 2798 09f0 01       		.uleb128 0x1
 2799 09f1 52       		.byte	0x52
 2800 09f2 02       		.uleb128 0x2
 2801 09f3 74       		.byte	0x74
 2802 09f4 00       		.sleb128 0
 2803 09f5 1A       		.uleb128 0x1a
 2804 09f6 01       		.uleb128 0x1
 2805 09f7 53       		.byte	0x53
 2806 09f8 01       		.uleb128 0x1
 2807 09f9 30       		.byte	0x30
 2808 09fa 1A       		.uleb128 0x1a
 2809 09fb 02       		.uleb128 0x2
 2810 09fc 7D       		.byte	0x7d
 2811 09fd 00       		.sleb128 0
 2812 09fe 02       		.uleb128 0x2
 2813 09ff 75       		.byte	0x75
 2814 0a00 00       		.sleb128 0
 2815 0a01 00       		.byte	0
 2816 0a02 00       		.byte	0
 2817 0a03 21       		.uleb128 0x21
 2818 0a04 0C000000 		.4byte	.LVL15
 2819 0a08 2C140000 		.4byte	0x142c
 2820 0a0c 19       		.uleb128 0x19
 2821 0a0d 2C000000 		.4byte	.LVL17
 2822 0a11 F2130000 		.4byte	0x13f2
 2823 0a15 380A0000 		.4byte	0xa38
 2824 0a19 1A       		.uleb128 0x1a
 2825 0a1a 01       		.uleb128 0x1
 2826 0a1b 50       		.byte	0x50
 2827 0a1c 01       		.uleb128 0x1
 2828 0a1d 4E       		.byte	0x4e
 2829 0a1e 1A       		.uleb128 0x1a
 2830 0a1f 01       		.uleb128 0x1
 2831 0a20 51       		.byte	0x51
 2832 0a21 02       		.uleb128 0x2
 2833 0a22 08       		.byte	0x8
 2834 0a23 23       		.byte	0x23
 2835 0a24 1A       		.uleb128 0x1a
 2836 0a25 01       		.uleb128 0x1
 2837 0a26 52       		.byte	0x52
 2838 0a27 02       		.uleb128 0x2
 2839 0a28 08       		.byte	0x8
 2840 0a29 D2       		.byte	0xd2
 2841 0a2a 1A       		.uleb128 0x1a
 2842 0a2b 01       		.uleb128 0x1
 2843 0a2c 53       		.byte	0x53
 2844 0a2d 02       		.uleb128 0x2
 2845 0a2e 08       		.byte	0x8
 2846 0a2f AA       		.byte	0xaa
 2847 0a30 1A       		.uleb128 0x1a
 2848 0a31 02       		.uleb128 0x2
ARM GAS  C:\Users\leoja\AppData\Local\Temp\cc39o2Na.s 			page 57


 2849 0a32 7D       		.byte	0x7d
 2850 0a33 00       		.sleb128 0
 2851 0a34 02       		.uleb128 0x2
 2852 0a35 74       		.byte	0x74
 2853 0a36 00       		.sleb128 0
 2854 0a37 00       		.byte	0
 2855 0a38 19       		.uleb128 0x19
 2856 0a39 42000000 		.4byte	.LVL18
 2857 0a3d 20140000 		.4byte	0x1420
 2858 0a41 680A0000 		.4byte	0xa68
 2859 0a45 1A       		.uleb128 0x1a
 2860 0a46 01       		.uleb128 0x1
 2861 0a47 50       		.byte	0x50
 2862 0a48 02       		.uleb128 0x2
 2863 0a49 08       		.byte	0x8
 2864 0a4a 37       		.byte	0x37
 2865 0a4b 1A       		.uleb128 0x1a
 2866 0a4c 01       		.uleb128 0x1
 2867 0a4d 51       		.byte	0x51
 2868 0a4e 02       		.uleb128 0x2
 2869 0a4f 08       		.byte	0x8
 2870 0a50 50       		.byte	0x50
 2871 0a51 1A       		.uleb128 0x1a
 2872 0a52 01       		.uleb128 0x1
 2873 0a53 52       		.byte	0x52
 2874 0a54 05       		.uleb128 0x5
 2875 0a55 03       		.byte	0x3
 2876 0a56 3C000000 		.4byte	.LC14
 2877 0a5a 1A       		.uleb128 0x1a
 2878 0a5b 01       		.uleb128 0x1
 2879 0a5c 53       		.byte	0x53
 2880 0a5d 01       		.uleb128 0x1
 2881 0a5e 30       		.byte	0x30
 2882 0a5f 1A       		.uleb128 0x1a
 2883 0a60 02       		.uleb128 0x2
 2884 0a61 7D       		.byte	0x7d
 2885 0a62 00       		.sleb128 0
 2886 0a63 03       		.uleb128 0x3
 2887 0a64 0A       		.byte	0xa
 2888 0a65 00FF     		.2byte	0xff00
 2889 0a67 00       		.byte	0
 2890 0a68 21       		.uleb128 0x21
 2891 0a69 E2000000 		.4byte	.LVL29
 2892 0a6d 2C140000 		.4byte	0x142c
 2893 0a71 00       		.byte	0
 2894 0a72 16       		.uleb128 0x16
 2895 0a73 F3000000 		.4byte	0xf3
 2896 0a77 820A0000 		.4byte	0xa82
 2897 0a7b 17       		.uleb128 0x17
 2898 0a7c 01010000 		.4byte	0x101
 2899 0a80 03       		.byte	0x3
 2900 0a81 00       		.byte	0
 2901 0a82 1C       		.uleb128 0x1c
 2902 0a83 08050000 		.4byte	.LASF106
 2903 0a87 01       		.byte	0x1
 2904 0a88 58       		.byte	0x58
 2905 0a89 00000000 		.4byte	.LFB38
ARM GAS  C:\Users\leoja\AppData\Local\Temp\cc39o2Na.s 			page 58


 2906 0a8d B4000000 		.4byte	.LFE38-.LFB38
 2907 0a91 01       		.uleb128 0x1
 2908 0a92 9C       		.byte	0x9c
 2909 0a93 AE0B0000 		.4byte	0xbae
 2910 0a97 1D       		.uleb128 0x1d
 2911 0a98 09030000 		.4byte	.LASF60
 2912 0a9c 01       		.byte	0x1
 2913 0a9d 58       		.byte	0x58
 2914 0a9e AD000000 		.4byte	0xad
 2915 0aa2 51000000 		.4byte	.LLST2
 2916 0aa6 1E       		.uleb128 0x1e
 2917 0aa7 20020000 		.4byte	.LASF103
 2918 0aab 01       		.byte	0x1
 2919 0aac 5A       		.byte	0x5a
 2920 0aad 77030000 		.4byte	0x377
 2921 0ab1 8B000000 		.4byte	.LLST3
 2922 0ab5 20       		.uleb128 0x20
 2923 0ab6 08000000 		.4byte	.LASF104
 2924 0aba 01       		.byte	0x1
 2925 0abb 6D       		.byte	0x6d
 2926 0abc 720A0000 		.4byte	0xa72
 2927 0ac0 02       		.uleb128 0x2
 2928 0ac1 91       		.byte	0x91
 2929 0ac2 64       		.sleb128 -28
 2930 0ac3 19       		.uleb128 0x19
 2931 0ac4 2A000000 		.4byte	.LVL33
 2932 0ac8 F2130000 		.4byte	0x13f2
 2933 0acc EF0A0000 		.4byte	0xaef
 2934 0ad0 1A       		.uleb128 0x1a
 2935 0ad1 01       		.uleb128 0x1
 2936 0ad2 50       		.byte	0x50
 2937 0ad3 02       		.uleb128 0x2
 2938 0ad4 74       		.byte	0x74
 2939 0ad5 00       		.sleb128 0
 2940 0ad6 1A       		.uleb128 0x1a
 2941 0ad7 01       		.uleb128 0x1
 2942 0ad8 51       		.byte	0x51
 2943 0ad9 02       		.uleb128 0x2
 2944 0ada 08       		.byte	0x8
 2945 0adb 23       		.byte	0x23
 2946 0adc 1A       		.uleb128 0x1a
 2947 0add 01       		.uleb128 0x1
 2948 0ade 52       		.byte	0x52
 2949 0adf 02       		.uleb128 0x2
 2950 0ae0 77       		.byte	0x77
 2951 0ae1 00       		.sleb128 0
 2952 0ae2 1A       		.uleb128 0x1a
 2953 0ae3 01       		.uleb128 0x1
 2954 0ae4 53       		.byte	0x53
 2955 0ae5 02       		.uleb128 0x2
 2956 0ae6 08       		.byte	0x8
 2957 0ae7 AA       		.byte	0xaa
 2958 0ae8 1A       		.uleb128 0x1a
 2959 0ae9 02       		.uleb128 0x2
 2960 0aea 7D       		.byte	0x7d
 2961 0aeb 00       		.sleb128 0
 2962 0aec 01       		.uleb128 0x1
ARM GAS  C:\Users\leoja\AppData\Local\Temp\cc39o2Na.s 			page 59


 2963 0aed 30       		.byte	0x30
 2964 0aee 00       		.byte	0
 2965 0aef 19       		.uleb128 0x19
 2966 0af0 3C000000 		.4byte	.LVL34
 2967 0af4 F2130000 		.4byte	0x13f2
 2968 0af8 1C0B0000 		.4byte	0xb1c
 2969 0afc 1A       		.uleb128 0x1a
 2970 0afd 01       		.uleb128 0x1
 2971 0afe 50       		.byte	0x50
 2972 0aff 02       		.uleb128 0x2
 2973 0b00 74       		.byte	0x74
 2974 0b01 00       		.sleb128 0
 2975 0b02 1A       		.uleb128 0x1a
 2976 0b03 01       		.uleb128 0x1
 2977 0b04 51       		.byte	0x51
 2978 0b05 02       		.uleb128 0x2
 2979 0b06 08       		.byte	0x8
 2980 0b07 23       		.byte	0x23
 2981 0b08 1A       		.uleb128 0x1a
 2982 0b09 01       		.uleb128 0x1
 2983 0b0a 52       		.byte	0x52
 2984 0b0b 02       		.uleb128 0x2
 2985 0b0c 77       		.byte	0x77
 2986 0b0d 00       		.sleb128 0
 2987 0b0e 1A       		.uleb128 0x1a
 2988 0b0f 01       		.uleb128 0x1
 2989 0b10 53       		.byte	0x53
 2990 0b11 02       		.uleb128 0x2
 2991 0b12 08       		.byte	0x8
 2992 0b13 AA       		.byte	0xaa
 2993 0b14 1A       		.uleb128 0x1a
 2994 0b15 02       		.uleb128 0x2
 2995 0b16 7D       		.byte	0x7d
 2996 0b17 00       		.sleb128 0
 2997 0b18 02       		.uleb128 0x2
 2998 0b19 75       		.byte	0x75
 2999 0b1a 00       		.sleb128 0
 3000 0b1b 00       		.byte	0
 3001 0b1c 19       		.uleb128 0x19
 3002 0b1d 64000000 		.4byte	.LVL37
 3003 0b21 F2130000 		.4byte	0x13f2
 3004 0b25 4B0B0000 		.4byte	0xb4b
 3005 0b29 1A       		.uleb128 0x1a
 3006 0b2a 01       		.uleb128 0x1
 3007 0b2b 50       		.byte	0x50
 3008 0b2c 03       		.uleb128 0x3
 3009 0b2d 0A       		.byte	0xa
 3010 0b2e 0E01     		.2byte	0x10e
 3011 0b30 1A       		.uleb128 0x1a
 3012 0b31 01       		.uleb128 0x1
 3013 0b32 51       		.byte	0x51
 3014 0b33 02       		.uleb128 0x2
 3015 0b34 08       		.byte	0x8
 3016 0b35 23       		.byte	0x23
 3017 0b36 1A       		.uleb128 0x1a
 3018 0b37 01       		.uleb128 0x1
 3019 0b38 52       		.byte	0x52
ARM GAS  C:\Users\leoja\AppData\Local\Temp\cc39o2Na.s 			page 60


 3020 0b39 03       		.uleb128 0x3
 3021 0b3a 0A       		.byte	0xa
 3022 0b3b C201     		.2byte	0x1c2
 3023 0b3d 1A       		.uleb128 0x1a
 3024 0b3e 01       		.uleb128 0x1
 3025 0b3f 53       		.byte	0x53
 3026 0b40 02       		.uleb128 0x2
 3027 0b41 08       		.byte	0x8
 3028 0b42 AA       		.byte	0xaa
 3029 0b43 1A       		.uleb128 0x1a
 3030 0b44 02       		.uleb128 0x2
 3031 0b45 7D       		.byte	0x7d
 3032 0b46 00       		.sleb128 0
 3033 0b47 02       		.uleb128 0x2
 3034 0b48 75       		.byte	0x75
 3035 0b49 00       		.sleb128 0
 3036 0b4a 00       		.byte	0
 3037 0b4b 21       		.uleb128 0x21
 3038 0b4c 6E000000 		.4byte	.LVL38
 3039 0b50 2C140000 		.4byte	0x142c
 3040 0b54 19       		.uleb128 0x19
 3041 0b55 7A000000 		.4byte	.LVL39
 3042 0b59 15140000 		.4byte	0x1415
 3043 0b5d 770B0000 		.4byte	0xb77
 3044 0b61 1A       		.uleb128 0x1a
 3045 0b62 01       		.uleb128 0x1
 3046 0b63 50       		.byte	0x50
 3047 0b64 02       		.uleb128 0x2
 3048 0b65 74       		.byte	0x74
 3049 0b66 00       		.sleb128 0
 3050 0b67 1A       		.uleb128 0x1a
 3051 0b68 01       		.uleb128 0x1
 3052 0b69 51       		.byte	0x51
 3053 0b6a 05       		.uleb128 0x5
 3054 0b6b 03       		.byte	0x3
 3055 0b6c 44000000 		.4byte	.LC16
 3056 0b70 1A       		.uleb128 0x1a
 3057 0b71 01       		.uleb128 0x1
 3058 0b72 52       		.byte	0x52
 3059 0b73 02       		.uleb128 0x2
 3060 0b74 76       		.byte	0x76
 3061 0b75 00       		.sleb128 0
 3062 0b76 00       		.byte	0
 3063 0b77 19       		.uleb128 0x19
 3064 0b78 90000000 		.4byte	.LVL40
 3065 0b7c 20140000 		.4byte	0x1420
 3066 0b80 A40B0000 		.4byte	0xba4
 3067 0b84 1A       		.uleb128 0x1a
 3068 0b85 01       		.uleb128 0x1
 3069 0b86 50       		.byte	0x50
 3070 0b87 03       		.uleb128 0x3
 3071 0b88 0A       		.byte	0xa
 3072 0b89 3601     		.2byte	0x136
 3073 0b8b 1A       		.uleb128 0x1a
 3074 0b8c 01       		.uleb128 0x1
 3075 0b8d 51       		.byte	0x51
 3076 0b8e 02       		.uleb128 0x2
ARM GAS  C:\Users\leoja\AppData\Local\Temp\cc39o2Na.s 			page 61


 3077 0b8f 08       		.byte	0x8
 3078 0b90 50       		.byte	0x50
 3079 0b91 1A       		.uleb128 0x1a
 3080 0b92 01       		.uleb128 0x1
 3081 0b93 52       		.byte	0x52
 3082 0b94 02       		.uleb128 0x2
 3083 0b95 74       		.byte	0x74
 3084 0b96 00       		.sleb128 0
 3085 0b97 1A       		.uleb128 0x1a
 3086 0b98 01       		.uleb128 0x1
 3087 0b99 53       		.byte	0x53
 3088 0b9a 01       		.uleb128 0x1
 3089 0b9b 30       		.byte	0x30
 3090 0b9c 1A       		.uleb128 0x1a
 3091 0b9d 02       		.uleb128 0x2
 3092 0b9e 7D       		.byte	0x7d
 3093 0b9f 00       		.sleb128 0
 3094 0ba0 02       		.uleb128 0x2
 3095 0ba1 75       		.byte	0x75
 3096 0ba2 00       		.sleb128 0
 3097 0ba3 00       		.byte	0
 3098 0ba4 21       		.uleb128 0x21
 3099 0ba5 96000000 		.4byte	.LVL41
 3100 0ba9 2C140000 		.4byte	0x142c
 3101 0bad 00       		.byte	0
 3102 0bae 1C       		.uleb128 0x1c
 3103 0baf 52050000 		.4byte	.LASF107
 3104 0bb3 01       		.byte	0x1
 3105 0bb4 75       		.byte	0x75
 3106 0bb5 00000000 		.4byte	.LFB39
 3107 0bb9 78020000 		.4byte	.LFE39-.LFB39
 3108 0bbd 01       		.uleb128 0x1
 3109 0bbe 9C       		.byte	0x9c
 3110 0bbf D60F0000 		.4byte	0xfd6
 3111 0bc3 1D       		.uleb128 0x1d
 3112 0bc4 8A050000 		.4byte	.LASF53
 3113 0bc8 01       		.byte	0x1
 3114 0bc9 75       		.byte	0x75
 3115 0bca AD000000 		.4byte	0xad
 3116 0bce AD000000 		.4byte	.LLST4
 3117 0bd2 1E       		.uleb128 0x1e
 3118 0bd3 20020000 		.4byte	.LASF103
 3119 0bd7 01       		.byte	0x1
 3120 0bd8 76       		.byte	0x76
 3121 0bd9 77030000 		.4byte	0x377
 3122 0bdd 96010000 		.4byte	.LLST5
 3123 0be1 1F       		.uleb128 0x1f
 3124 0be2 0E000000 		.4byte	.LBB3
 3125 0be6 AA010000 		.4byte	.LBE3-.LBB3
 3126 0bea EC0E0000 		.4byte	0xeec
 3127 0bee 1E       		.uleb128 0x1e
 3128 0bef 24060000 		.4byte	.LASF108
 3129 0bf3 01       		.byte	0x1
 3130 0bf4 7A       		.byte	0x7a
 3131 0bf5 D9000000 		.4byte	0xd9
 3132 0bf9 EA010000 		.4byte	.LLST6
 3133 0bfd 19       		.uleb128 0x19
ARM GAS  C:\Users\leoja\AppData\Local\Temp\cc39o2Na.s 			page 62


 3134 0bfe 3A000000 		.4byte	.LVL49
 3135 0c02 F2130000 		.4byte	0x13f2
 3136 0c06 2A0C0000 		.4byte	0xc2a
 3137 0c0a 1A       		.uleb128 0x1a
 3138 0c0b 01       		.uleb128 0x1
 3139 0c0c 50       		.byte	0x50
 3140 0c0d 02       		.uleb128 0x2
 3141 0c0e 08       		.byte	0x8
 3142 0c0f 5F       		.byte	0x5f
 3143 0c10 1A       		.uleb128 0x1a
 3144 0c11 01       		.uleb128 0x1
 3145 0c12 51       		.byte	0x51
 3146 0c13 02       		.uleb128 0x2
 3147 0c14 08       		.byte	0x8
 3148 0c15 B9       		.byte	0xb9
 3149 0c16 1A       		.uleb128 0x1a
 3150 0c17 01       		.uleb128 0x1
 3151 0c18 52       		.byte	0x52
 3152 0c19 02       		.uleb128 0x2
 3153 0c1a 08       		.byte	0x8
 3154 0c1b F0       		.byte	0xf0
 3155 0c1c 1A       		.uleb128 0x1a
 3156 0c1d 01       		.uleb128 0x1
 3157 0c1e 53       		.byte	0x53
 3158 0c1f 02       		.uleb128 0x2
 3159 0c20 08       		.byte	0x8
 3160 0c21 D7       		.byte	0xd7
 3161 0c22 1A       		.uleb128 0x1a
 3162 0c23 02       		.uleb128 0x2
 3163 0c24 7D       		.byte	0x7d
 3164 0c25 00       		.sleb128 0
 3165 0c26 02       		.uleb128 0x2
 3166 0c27 74       		.byte	0x74
 3167 0c28 00       		.sleb128 0
 3168 0c29 00       		.byte	0
 3169 0c2a 19       		.uleb128 0x19
 3170 0c2b 4E000000 		.4byte	.LVL50
 3171 0c2f 20140000 		.4byte	0x1420
 3172 0c33 5C0C0000 		.4byte	0xc5c
 3173 0c37 1A       		.uleb128 0x1a
 3174 0c38 01       		.uleb128 0x1
 3175 0c39 50       		.byte	0x50
 3176 0c3a 02       		.uleb128 0x2
 3177 0c3b 08       		.byte	0x8
 3178 0c3c 64       		.byte	0x64
 3179 0c3d 1A       		.uleb128 0x1a
 3180 0c3e 01       		.uleb128 0x1
 3181 0c3f 51       		.byte	0x51
 3182 0c40 02       		.uleb128 0x2
 3183 0c41 08       		.byte	0x8
 3184 0c42 C3       		.byte	0xc3
 3185 0c43 1A       		.uleb128 0x1a
 3186 0c44 01       		.uleb128 0x1
 3187 0c45 52       		.byte	0x52
 3188 0c46 05       		.uleb128 0x5
 3189 0c47 03       		.byte	0x3
 3190 0c48 48000000 		.4byte	.LC25
ARM GAS  C:\Users\leoja\AppData\Local\Temp\cc39o2Na.s 			page 63


 3191 0c4c 1A       		.uleb128 0x1a
 3192 0c4d 01       		.uleb128 0x1
 3193 0c4e 53       		.byte	0x53
 3194 0c4f 01       		.uleb128 0x1
 3195 0c50 30       		.byte	0x30
 3196 0c51 1A       		.uleb128 0x1a
 3197 0c52 02       		.uleb128 0x2
 3198 0c53 7D       		.byte	0x7d
 3199 0c54 00       		.sleb128 0
 3200 0c55 05       		.uleb128 0x5
 3201 0c56 0C       		.byte	0xc
 3202 0c57 00FFFF00 		.4byte	0xffff00
 3203 0c5b 00       		.byte	0
 3204 0c5c 19       		.uleb128 0x19
 3205 0c5d 6C000000 		.4byte	.LVL53
 3206 0c61 F2130000 		.4byte	0x13f2
 3207 0c65 890C0000 		.4byte	0xc89
 3208 0c69 1A       		.uleb128 0x1a
 3209 0c6a 01       		.uleb128 0x1
 3210 0c6b 50       		.byte	0x50
 3211 0c6c 02       		.uleb128 0x2
 3212 0c6d 08       		.byte	0x8
 3213 0c6e 5F       		.byte	0x5f
 3214 0c6f 1A       		.uleb128 0x1a
 3215 0c70 01       		.uleb128 0x1
 3216 0c71 51       		.byte	0x51
 3217 0c72 02       		.uleb128 0x2
 3218 0c73 08       		.byte	0x8
 3219 0c74 B9       		.byte	0xb9
 3220 0c75 1A       		.uleb128 0x1a
 3221 0c76 01       		.uleb128 0x1
 3222 0c77 52       		.byte	0x52
 3223 0c78 02       		.uleb128 0x2
 3224 0c79 08       		.byte	0x8
 3225 0c7a F0       		.byte	0xf0
 3226 0c7b 1A       		.uleb128 0x1a
 3227 0c7c 01       		.uleb128 0x1
 3228 0c7d 53       		.byte	0x53
 3229 0c7e 02       		.uleb128 0x2
 3230 0c7f 08       		.byte	0x8
 3231 0c80 D7       		.byte	0xd7
 3232 0c81 1A       		.uleb128 0x1a
 3233 0c82 02       		.uleb128 0x2
 3234 0c83 7D       		.byte	0x7d
 3235 0c84 00       		.sleb128 0
 3236 0c85 02       		.uleb128 0x2
 3237 0c86 74       		.byte	0x74
 3238 0c87 00       		.sleb128 0
 3239 0c88 00       		.byte	0
 3240 0c89 19       		.uleb128 0x19
 3241 0c8a 82000000 		.4byte	.LVL54
 3242 0c8e 20140000 		.4byte	0x1420
 3243 0c92 BA0C0000 		.4byte	0xcba
 3244 0c96 1A       		.uleb128 0x1a
 3245 0c97 01       		.uleb128 0x1
 3246 0c98 50       		.byte	0x50
 3247 0c99 02       		.uleb128 0x2
ARM GAS  C:\Users\leoja\AppData\Local\Temp\cc39o2Na.s 			page 64


 3248 0c9a 08       		.byte	0x8
 3249 0c9b 64       		.byte	0x64
 3250 0c9c 1A       		.uleb128 0x1a
 3251 0c9d 01       		.uleb128 0x1
 3252 0c9e 51       		.byte	0x51
 3253 0c9f 02       		.uleb128 0x2
 3254 0ca0 08       		.byte	0x8
 3255 0ca1 C3       		.byte	0xc3
 3256 0ca2 1A       		.uleb128 0x1a
 3257 0ca3 01       		.uleb128 0x1
 3258 0ca4 52       		.byte	0x52
 3259 0ca5 05       		.uleb128 0x5
 3260 0ca6 03       		.byte	0x3
 3261 0ca7 54000000 		.4byte	.LC27
 3262 0cab 1A       		.uleb128 0x1a
 3263 0cac 01       		.uleb128 0x1
 3264 0cad 53       		.byte	0x53
 3265 0cae 01       		.uleb128 0x1
 3266 0caf 30       		.byte	0x30
 3267 0cb0 1A       		.uleb128 0x1a
 3268 0cb1 02       		.uleb128 0x2
 3269 0cb2 7D       		.byte	0x7d
 3270 0cb3 00       		.sleb128 0
 3271 0cb4 04       		.uleb128 0x4
 3272 0cb5 08       		.byte	0x8
 3273 0cb6 FF       		.byte	0xff
 3274 0cb7 40       		.byte	0x40
 3275 0cb8 24       		.byte	0x24
 3276 0cb9 00       		.byte	0
 3277 0cba 19       		.uleb128 0x19
 3278 0cbb A0000000 		.4byte	.LVL57
 3279 0cbf F2130000 		.4byte	0x13f2
 3280 0cc3 E70C0000 		.4byte	0xce7
 3281 0cc7 1A       		.uleb128 0x1a
 3282 0cc8 01       		.uleb128 0x1
 3283 0cc9 50       		.byte	0x50
 3284 0cca 02       		.uleb128 0x2
 3285 0ccb 08       		.byte	0x8
 3286 0ccc 5F       		.byte	0x5f
 3287 0ccd 1A       		.uleb128 0x1a
 3288 0cce 01       		.uleb128 0x1
 3289 0ccf 51       		.byte	0x51
 3290 0cd0 02       		.uleb128 0x2
 3291 0cd1 08       		.byte	0x8
 3292 0cd2 B9       		.byte	0xb9
 3293 0cd3 1A       		.uleb128 0x1a
 3294 0cd4 01       		.uleb128 0x1
 3295 0cd5 52       		.byte	0x52
 3296 0cd6 02       		.uleb128 0x2
 3297 0cd7 08       		.byte	0x8
 3298 0cd8 F0       		.byte	0xf0
 3299 0cd9 1A       		.uleb128 0x1a
 3300 0cda 01       		.uleb128 0x1
 3301 0cdb 53       		.byte	0x53
 3302 0cdc 02       		.uleb128 0x2
 3303 0cdd 08       		.byte	0x8
 3304 0cde D7       		.byte	0xd7
ARM GAS  C:\Users\leoja\AppData\Local\Temp\cc39o2Na.s 			page 65


 3305 0cdf 1A       		.uleb128 0x1a
 3306 0ce0 02       		.uleb128 0x2
 3307 0ce1 7D       		.byte	0x7d
 3308 0ce2 00       		.sleb128 0
 3309 0ce3 02       		.uleb128 0x2
 3310 0ce4 74       		.byte	0x74
 3311 0ce5 00       		.sleb128 0
 3312 0ce6 00       		.byte	0
 3313 0ce7 19       		.uleb128 0x19
 3314 0ce8 B6000000 		.4byte	.LVL58
 3315 0cec 20140000 		.4byte	0x1420
 3316 0cf0 180D0000 		.4byte	0xd18
 3317 0cf4 1A       		.uleb128 0x1a
 3318 0cf5 01       		.uleb128 0x1
 3319 0cf6 50       		.byte	0x50
 3320 0cf7 02       		.uleb128 0x2
 3321 0cf8 08       		.byte	0x8
 3322 0cf9 64       		.byte	0x64
 3323 0cfa 1A       		.uleb128 0x1a
 3324 0cfb 01       		.uleb128 0x1
 3325 0cfc 51       		.byte	0x51
 3326 0cfd 02       		.uleb128 0x2
 3327 0cfe 08       		.byte	0x8
 3328 0cff C3       		.byte	0xc3
 3329 0d00 1A       		.uleb128 0x1a
 3330 0d01 01       		.uleb128 0x1
 3331 0d02 52       		.byte	0x52
 3332 0d03 05       		.uleb128 0x5
 3333 0d04 03       		.byte	0x3
 3334 0d05 60000000 		.4byte	.LC29
 3335 0d09 1A       		.uleb128 0x1a
 3336 0d0a 01       		.uleb128 0x1
 3337 0d0b 53       		.byte	0x53
 3338 0d0c 01       		.uleb128 0x1
 3339 0d0d 30       		.byte	0x30
 3340 0d0e 1A       		.uleb128 0x1a
 3341 0d0f 02       		.uleb128 0x2
 3342 0d10 7D       		.byte	0x7d
 3343 0d11 00       		.sleb128 0
 3344 0d12 04       		.uleb128 0x4
 3345 0d13 08       		.byte	0x8
 3346 0d14 FF       		.byte	0xff
 3347 0d15 40       		.byte	0x40
 3348 0d16 24       		.byte	0x24
 3349 0d17 00       		.byte	0
 3350 0d18 19       		.uleb128 0x19
 3351 0d19 D4000000 		.4byte	.LVL61
 3352 0d1d F2130000 		.4byte	0x13f2
 3353 0d21 450D0000 		.4byte	0xd45
 3354 0d25 1A       		.uleb128 0x1a
 3355 0d26 01       		.uleb128 0x1
 3356 0d27 50       		.byte	0x50
 3357 0d28 02       		.uleb128 0x2
 3358 0d29 08       		.byte	0x8
 3359 0d2a 5F       		.byte	0x5f
 3360 0d2b 1A       		.uleb128 0x1a
 3361 0d2c 01       		.uleb128 0x1
ARM GAS  C:\Users\leoja\AppData\Local\Temp\cc39o2Na.s 			page 66


 3362 0d2d 51       		.byte	0x51
 3363 0d2e 02       		.uleb128 0x2
 3364 0d2f 08       		.byte	0x8
 3365 0d30 B9       		.byte	0xb9
 3366 0d31 1A       		.uleb128 0x1a
 3367 0d32 01       		.uleb128 0x1
 3368 0d33 52       		.byte	0x52
 3369 0d34 02       		.uleb128 0x2
 3370 0d35 08       		.byte	0x8
 3371 0d36 F0       		.byte	0xf0
 3372 0d37 1A       		.uleb128 0x1a
 3373 0d38 01       		.uleb128 0x1
 3374 0d39 53       		.byte	0x53
 3375 0d3a 02       		.uleb128 0x2
 3376 0d3b 08       		.byte	0x8
 3377 0d3c D7       		.byte	0xd7
 3378 0d3d 1A       		.uleb128 0x1a
 3379 0d3e 02       		.uleb128 0x2
 3380 0d3f 7D       		.byte	0x7d
 3381 0d40 00       		.sleb128 0
 3382 0d41 02       		.uleb128 0x2
 3383 0d42 74       		.byte	0x74
 3384 0d43 00       		.sleb128 0
 3385 0d44 00       		.byte	0
 3386 0d45 19       		.uleb128 0x19
 3387 0d46 EA000000 		.4byte	.LVL62
 3388 0d4a 20140000 		.4byte	0x1420
 3389 0d4e 760D0000 		.4byte	0xd76
 3390 0d52 1A       		.uleb128 0x1a
 3391 0d53 01       		.uleb128 0x1
 3392 0d54 50       		.byte	0x50
 3393 0d55 02       		.uleb128 0x2
 3394 0d56 08       		.byte	0x8
 3395 0d57 64       		.byte	0x64
 3396 0d58 1A       		.uleb128 0x1a
 3397 0d59 01       		.uleb128 0x1
 3398 0d5a 51       		.byte	0x51
 3399 0d5b 02       		.uleb128 0x2
 3400 0d5c 08       		.byte	0x8
 3401 0d5d C3       		.byte	0xc3
 3402 0d5e 1A       		.uleb128 0x1a
 3403 0d5f 01       		.uleb128 0x1
 3404 0d60 52       		.byte	0x52
 3405 0d61 05       		.uleb128 0x5
 3406 0d62 03       		.byte	0x3
 3407 0d63 6C000000 		.4byte	.LC31
 3408 0d67 1A       		.uleb128 0x1a
 3409 0d68 01       		.uleb128 0x1
 3410 0d69 53       		.byte	0x53
 3411 0d6a 01       		.uleb128 0x1
 3412 0d6b 30       		.byte	0x30
 3413 0d6c 1A       		.uleb128 0x1a
 3414 0d6d 02       		.uleb128 0x2
 3415 0d6e 7D       		.byte	0x7d
 3416 0d6f 00       		.sleb128 0
 3417 0d70 04       		.uleb128 0x4
 3418 0d71 08       		.byte	0x8
ARM GAS  C:\Users\leoja\AppData\Local\Temp\cc39o2Na.s 			page 67


 3419 0d72 FF       		.byte	0xff
 3420 0d73 40       		.byte	0x40
 3421 0d74 24       		.byte	0x24
 3422 0d75 00       		.byte	0
 3423 0d76 19       		.uleb128 0x19
 3424 0d77 08010000 		.4byte	.LVL65
 3425 0d7b F2130000 		.4byte	0x13f2
 3426 0d7f A30D0000 		.4byte	0xda3
 3427 0d83 1A       		.uleb128 0x1a
 3428 0d84 01       		.uleb128 0x1
 3429 0d85 50       		.byte	0x50
 3430 0d86 02       		.uleb128 0x2
 3431 0d87 08       		.byte	0x8
 3432 0d88 5F       		.byte	0x5f
 3433 0d89 1A       		.uleb128 0x1a
 3434 0d8a 01       		.uleb128 0x1
 3435 0d8b 51       		.byte	0x51
 3436 0d8c 02       		.uleb128 0x2
 3437 0d8d 08       		.byte	0x8
 3438 0d8e B9       		.byte	0xb9
 3439 0d8f 1A       		.uleb128 0x1a
 3440 0d90 01       		.uleb128 0x1
 3441 0d91 52       		.byte	0x52
 3442 0d92 02       		.uleb128 0x2
 3443 0d93 08       		.byte	0x8
 3444 0d94 F0       		.byte	0xf0
 3445 0d95 1A       		.uleb128 0x1a
 3446 0d96 01       		.uleb128 0x1
 3447 0d97 53       		.byte	0x53
 3448 0d98 02       		.uleb128 0x2
 3449 0d99 08       		.byte	0x8
 3450 0d9a D7       		.byte	0xd7
 3451 0d9b 1A       		.uleb128 0x1a
 3452 0d9c 02       		.uleb128 0x2
 3453 0d9d 7D       		.byte	0x7d
 3454 0d9e 00       		.sleb128 0
 3455 0d9f 02       		.uleb128 0x2
 3456 0da0 74       		.byte	0x74
 3457 0da1 00       		.sleb128 0
 3458 0da2 00       		.byte	0
 3459 0da3 19       		.uleb128 0x19
 3460 0da4 1E010000 		.4byte	.LVL66
 3461 0da8 20140000 		.4byte	0x1420
 3462 0dac D40D0000 		.4byte	0xdd4
 3463 0db0 1A       		.uleb128 0x1a
 3464 0db1 01       		.uleb128 0x1
 3465 0db2 50       		.byte	0x50
 3466 0db3 02       		.uleb128 0x2
 3467 0db4 08       		.byte	0x8
 3468 0db5 64       		.byte	0x64
 3469 0db6 1A       		.uleb128 0x1a
 3470 0db7 01       		.uleb128 0x1
 3471 0db8 51       		.byte	0x51
 3472 0db9 02       		.uleb128 0x2
 3473 0dba 08       		.byte	0x8
 3474 0dbb C3       		.byte	0xc3
 3475 0dbc 1A       		.uleb128 0x1a
ARM GAS  C:\Users\leoja\AppData\Local\Temp\cc39o2Na.s 			page 68


 3476 0dbd 01       		.uleb128 0x1
 3477 0dbe 52       		.byte	0x52
 3478 0dbf 05       		.uleb128 0x5
 3479 0dc0 03       		.byte	0x3
 3480 0dc1 78000000 		.4byte	.LC33
 3481 0dc5 1A       		.uleb128 0x1a
 3482 0dc6 01       		.uleb128 0x1
 3483 0dc7 53       		.byte	0x53
 3484 0dc8 01       		.uleb128 0x1
 3485 0dc9 30       		.byte	0x30
 3486 0dca 1A       		.uleb128 0x1a
 3487 0dcb 02       		.uleb128 0x2
 3488 0dcc 7D       		.byte	0x7d
 3489 0dcd 00       		.sleb128 0
 3490 0dce 04       		.uleb128 0x4
 3491 0dcf 08       		.byte	0x8
 3492 0dd0 FF       		.byte	0xff
 3493 0dd1 40       		.byte	0x40
 3494 0dd2 24       		.byte	0x24
 3495 0dd3 00       		.byte	0
 3496 0dd4 19       		.uleb128 0x19
 3497 0dd5 3C010000 		.4byte	.LVL69
 3498 0dd9 F2130000 		.4byte	0x13f2
 3499 0ddd 010E0000 		.4byte	0xe01
 3500 0de1 1A       		.uleb128 0x1a
 3501 0de2 01       		.uleb128 0x1
 3502 0de3 50       		.byte	0x50
 3503 0de4 02       		.uleb128 0x2
 3504 0de5 08       		.byte	0x8
 3505 0de6 5F       		.byte	0x5f
 3506 0de7 1A       		.uleb128 0x1a
 3507 0de8 01       		.uleb128 0x1
 3508 0de9 51       		.byte	0x51
 3509 0dea 02       		.uleb128 0x2
 3510 0deb 08       		.byte	0x8
 3511 0dec B9       		.byte	0xb9
 3512 0ded 1A       		.uleb128 0x1a
 3513 0dee 01       		.uleb128 0x1
 3514 0def 52       		.byte	0x52
 3515 0df0 02       		.uleb128 0x2
 3516 0df1 08       		.byte	0x8
 3517 0df2 F0       		.byte	0xf0
 3518 0df3 1A       		.uleb128 0x1a
 3519 0df4 01       		.uleb128 0x1
 3520 0df5 53       		.byte	0x53
 3521 0df6 02       		.uleb128 0x2
 3522 0df7 08       		.byte	0x8
 3523 0df8 D7       		.byte	0xd7
 3524 0df9 1A       		.uleb128 0x1a
 3525 0dfa 02       		.uleb128 0x2
 3526 0dfb 7D       		.byte	0x7d
 3527 0dfc 00       		.sleb128 0
 3528 0dfd 02       		.uleb128 0x2
 3529 0dfe 74       		.byte	0x74
 3530 0dff 00       		.sleb128 0
 3531 0e00 00       		.byte	0
 3532 0e01 19       		.uleb128 0x19
ARM GAS  C:\Users\leoja\AppData\Local\Temp\cc39o2Na.s 			page 69


 3533 0e02 52010000 		.4byte	.LVL70
 3534 0e06 20140000 		.4byte	0x1420
 3535 0e0a 320E0000 		.4byte	0xe32
 3536 0e0e 1A       		.uleb128 0x1a
 3537 0e0f 01       		.uleb128 0x1
 3538 0e10 50       		.byte	0x50
 3539 0e11 02       		.uleb128 0x2
 3540 0e12 08       		.byte	0x8
 3541 0e13 64       		.byte	0x64
 3542 0e14 1A       		.uleb128 0x1a
 3543 0e15 01       		.uleb128 0x1
 3544 0e16 51       		.byte	0x51
 3545 0e17 02       		.uleb128 0x2
 3546 0e18 08       		.byte	0x8
 3547 0e19 C3       		.byte	0xc3
 3548 0e1a 1A       		.uleb128 0x1a
 3549 0e1b 01       		.uleb128 0x1
 3550 0e1c 52       		.byte	0x52
 3551 0e1d 05       		.uleb128 0x5
 3552 0e1e 03       		.byte	0x3
 3553 0e1f 84000000 		.4byte	.LC35
 3554 0e23 1A       		.uleb128 0x1a
 3555 0e24 01       		.uleb128 0x1
 3556 0e25 53       		.byte	0x53
 3557 0e26 01       		.uleb128 0x1
 3558 0e27 30       		.byte	0x30
 3559 0e28 1A       		.uleb128 0x1a
 3560 0e29 02       		.uleb128 0x2
 3561 0e2a 7D       		.byte	0x7d
 3562 0e2b 00       		.sleb128 0
 3563 0e2c 04       		.uleb128 0x4
 3564 0e2d 08       		.byte	0x8
 3565 0e2e FF       		.byte	0xff
 3566 0e2f 40       		.byte	0x40
 3567 0e30 24       		.byte	0x24
 3568 0e31 00       		.byte	0
 3569 0e32 19       		.uleb128 0x19
 3570 0e33 6E010000 		.4byte	.LVL73
 3571 0e37 F2130000 		.4byte	0x13f2
 3572 0e3b 5F0E0000 		.4byte	0xe5f
 3573 0e3f 1A       		.uleb128 0x1a
 3574 0e40 01       		.uleb128 0x1
 3575 0e41 50       		.byte	0x50
 3576 0e42 02       		.uleb128 0x2
 3577 0e43 08       		.byte	0x8
 3578 0e44 5F       		.byte	0x5f
 3579 0e45 1A       		.uleb128 0x1a
 3580 0e46 01       		.uleb128 0x1
 3581 0e47 51       		.byte	0x51
 3582 0e48 02       		.uleb128 0x2
 3583 0e49 08       		.byte	0x8
 3584 0e4a B9       		.byte	0xb9
 3585 0e4b 1A       		.uleb128 0x1a
 3586 0e4c 01       		.uleb128 0x1
 3587 0e4d 52       		.byte	0x52
 3588 0e4e 02       		.uleb128 0x2
 3589 0e4f 08       		.byte	0x8
ARM GAS  C:\Users\leoja\AppData\Local\Temp\cc39o2Na.s 			page 70


 3590 0e50 F0       		.byte	0xf0
 3591 0e51 1A       		.uleb128 0x1a
 3592 0e52 01       		.uleb128 0x1
 3593 0e53 53       		.byte	0x53
 3594 0e54 02       		.uleb128 0x2
 3595 0e55 08       		.byte	0x8
 3596 0e56 D7       		.byte	0xd7
 3597 0e57 1A       		.uleb128 0x1a
 3598 0e58 02       		.uleb128 0x2
 3599 0e59 7D       		.byte	0x7d
 3600 0e5a 00       		.sleb128 0
 3601 0e5b 02       		.uleb128 0x2
 3602 0e5c 74       		.byte	0x74
 3603 0e5d 00       		.sleb128 0
 3604 0e5e 00       		.byte	0
 3605 0e5f 19       		.uleb128 0x19
 3606 0e60 82010000 		.4byte	.LVL74
 3607 0e64 20140000 		.4byte	0x1420
 3608 0e68 910E0000 		.4byte	0xe91
 3609 0e6c 1A       		.uleb128 0x1a
 3610 0e6d 01       		.uleb128 0x1
 3611 0e6e 50       		.byte	0x50
 3612 0e6f 02       		.uleb128 0x2
 3613 0e70 08       		.byte	0x8
 3614 0e71 64       		.byte	0x64
 3615 0e72 1A       		.uleb128 0x1a
 3616 0e73 01       		.uleb128 0x1
 3617 0e74 51       		.byte	0x51
 3618 0e75 02       		.uleb128 0x2
 3619 0e76 08       		.byte	0x8
 3620 0e77 C3       		.byte	0xc3
 3621 0e78 1A       		.uleb128 0x1a
 3622 0e79 01       		.uleb128 0x1
 3623 0e7a 52       		.byte	0x52
 3624 0e7b 05       		.uleb128 0x5
 3625 0e7c 03       		.byte	0x3
 3626 0e7d 90000000 		.4byte	.LC37
 3627 0e81 1A       		.uleb128 0x1a
 3628 0e82 01       		.uleb128 0x1
 3629 0e83 53       		.byte	0x53
 3630 0e84 01       		.uleb128 0x1
 3631 0e85 30       		.byte	0x30
 3632 0e86 1A       		.uleb128 0x1a
 3633 0e87 02       		.uleb128 0x2
 3634 0e88 7D       		.byte	0x7d
 3635 0e89 00       		.sleb128 0
 3636 0e8a 05       		.uleb128 0x5
 3637 0e8b 0C       		.byte	0xc
 3638 0e8c 00FFFF00 		.4byte	0xffff00
 3639 0e90 00       		.byte	0
 3640 0e91 19       		.uleb128 0x19
 3641 0e92 A0010000 		.4byte	.LVL77
 3642 0e96 F2130000 		.4byte	0x13f2
 3643 0e9a BE0E0000 		.4byte	0xebe
 3644 0e9e 1A       		.uleb128 0x1a
 3645 0e9f 01       		.uleb128 0x1
 3646 0ea0 50       		.byte	0x50
ARM GAS  C:\Users\leoja\AppData\Local\Temp\cc39o2Na.s 			page 71


 3647 0ea1 02       		.uleb128 0x2
 3648 0ea2 08       		.byte	0x8
 3649 0ea3 5F       		.byte	0x5f
 3650 0ea4 1A       		.uleb128 0x1a
 3651 0ea5 01       		.uleb128 0x1
 3652 0ea6 51       		.byte	0x51
 3653 0ea7 02       		.uleb128 0x2
 3654 0ea8 08       		.byte	0x8
 3655 0ea9 B9       		.byte	0xb9
 3656 0eaa 1A       		.uleb128 0x1a
 3657 0eab 01       		.uleb128 0x1
 3658 0eac 52       		.byte	0x52
 3659 0ead 02       		.uleb128 0x2
 3660 0eae 08       		.byte	0x8
 3661 0eaf F0       		.byte	0xf0
 3662 0eb0 1A       		.uleb128 0x1a
 3663 0eb1 01       		.uleb128 0x1
 3664 0eb2 53       		.byte	0x53
 3665 0eb3 02       		.uleb128 0x2
 3666 0eb4 08       		.byte	0x8
 3667 0eb5 D7       		.byte	0xd7
 3668 0eb6 1A       		.uleb128 0x1a
 3669 0eb7 02       		.uleb128 0x2
 3670 0eb8 7D       		.byte	0x7d
 3671 0eb9 00       		.sleb128 0
 3672 0eba 02       		.uleb128 0x2
 3673 0ebb 74       		.byte	0x74
 3674 0ebc 00       		.sleb128 0
 3675 0ebd 00       		.byte	0
 3676 0ebe 1B       		.uleb128 0x1b
 3677 0ebf B6010000 		.4byte	.LVL78
 3678 0ec3 20140000 		.4byte	0x1420
 3679 0ec7 1A       		.uleb128 0x1a
 3680 0ec8 01       		.uleb128 0x1
 3681 0ec9 50       		.byte	0x50
 3682 0eca 02       		.uleb128 0x2
 3683 0ecb 08       		.byte	0x8
 3684 0ecc 64       		.byte	0x64
 3685 0ecd 1A       		.uleb128 0x1a
 3686 0ece 01       		.uleb128 0x1
 3687 0ecf 51       		.byte	0x51
 3688 0ed0 02       		.uleb128 0x2
 3689 0ed1 08       		.byte	0x8
 3690 0ed2 C3       		.byte	0xc3
 3691 0ed3 1A       		.uleb128 0x1a
 3692 0ed4 01       		.uleb128 0x1
 3693 0ed5 52       		.byte	0x52
 3694 0ed6 05       		.uleb128 0x5
 3695 0ed7 03       		.byte	0x3
 3696 0ed8 9C000000 		.4byte	.LC39
 3697 0edc 1A       		.uleb128 0x1a
 3698 0edd 01       		.uleb128 0x1
 3699 0ede 53       		.byte	0x53
 3700 0edf 01       		.uleb128 0x1
 3701 0ee0 30       		.byte	0x30
 3702 0ee1 1A       		.uleb128 0x1a
 3703 0ee2 02       		.uleb128 0x2
ARM GAS  C:\Users\leoja\AppData\Local\Temp\cc39o2Na.s 			page 72


 3704 0ee3 7D       		.byte	0x7d
 3705 0ee4 00       		.sleb128 0
 3706 0ee5 04       		.uleb128 0x4
 3707 0ee6 08       		.byte	0x8
 3708 0ee7 FF       		.byte	0xff
 3709 0ee8 40       		.byte	0x40
 3710 0ee9 24       		.byte	0x24
 3711 0eea 00       		.byte	0
 3712 0eeb 00       		.byte	0
 3713 0eec 19       		.uleb128 0x19
 3714 0eed D4010000 		.4byte	.LVL81
 3715 0ef1 F2130000 		.4byte	0x13f2
 3716 0ef5 190F0000 		.4byte	0xf19
 3717 0ef9 1A       		.uleb128 0x1a
 3718 0efa 01       		.uleb128 0x1
 3719 0efb 50       		.byte	0x50
 3720 0efc 02       		.uleb128 0x2
 3721 0efd 08       		.byte	0x8
 3722 0efe 5F       		.byte	0x5f
 3723 0eff 1A       		.uleb128 0x1a
 3724 0f00 01       		.uleb128 0x1
 3725 0f01 51       		.byte	0x51
 3726 0f02 02       		.uleb128 0x2
 3727 0f03 08       		.byte	0x8
 3728 0f04 B9       		.byte	0xb9
 3729 0f05 1A       		.uleb128 0x1a
 3730 0f06 01       		.uleb128 0x1
 3731 0f07 52       		.byte	0x52
 3732 0f08 02       		.uleb128 0x2
 3733 0f09 08       		.byte	0x8
 3734 0f0a F0       		.byte	0xf0
 3735 0f0b 1A       		.uleb128 0x1a
 3736 0f0c 01       		.uleb128 0x1
 3737 0f0d 53       		.byte	0x53
 3738 0f0e 02       		.uleb128 0x2
 3739 0f0f 08       		.byte	0x8
 3740 0f10 D7       		.byte	0xd7
 3741 0f11 1A       		.uleb128 0x1a
 3742 0f12 02       		.uleb128 0x2
 3743 0f13 7D       		.byte	0x7d
 3744 0f14 00       		.sleb128 0
 3745 0f15 02       		.uleb128 0x2
 3746 0f16 75       		.byte	0x75
 3747 0f17 00       		.sleb128 0
 3748 0f18 00       		.byte	0
 3749 0f19 19       		.uleb128 0x19
 3750 0f1a FC010000 		.4byte	.LVL82
 3751 0f1e 20140000 		.4byte	0x1420
 3752 0f22 490F0000 		.4byte	0xf49
 3753 0f26 1A       		.uleb128 0x1a
 3754 0f27 01       		.uleb128 0x1
 3755 0f28 50       		.byte	0x50
 3756 0f29 02       		.uleb128 0x2
 3757 0f2a 08       		.byte	0x8
 3758 0f2b 64       		.byte	0x64
 3759 0f2c 1A       		.uleb128 0x1a
 3760 0f2d 01       		.uleb128 0x1
ARM GAS  C:\Users\leoja\AppData\Local\Temp\cc39o2Na.s 			page 73


 3761 0f2e 51       		.byte	0x51
 3762 0f2f 02       		.uleb128 0x2
 3763 0f30 08       		.byte	0x8
 3764 0f31 C3       		.byte	0xc3
 3765 0f32 1A       		.uleb128 0x1a
 3766 0f33 01       		.uleb128 0x1
 3767 0f34 52       		.byte	0x52
 3768 0f35 05       		.uleb128 0x5
 3769 0f36 03       		.byte	0x3
 3770 0f37 A8000000 		.4byte	.LC41
 3771 0f3b 1A       		.uleb128 0x1a
 3772 0f3c 01       		.uleb128 0x1
 3773 0f3d 53       		.byte	0x53
 3774 0f3e 01       		.uleb128 0x1
 3775 0f3f 30       		.byte	0x30
 3776 0f40 1A       		.uleb128 0x1a
 3777 0f41 02       		.uleb128 0x2
 3778 0f42 7D       		.byte	0x7d
 3779 0f43 00       		.sleb128 0
 3780 0f44 03       		.uleb128 0x3
 3781 0f45 0A       		.byte	0xa
 3782 0f46 00FF     		.2byte	0xff00
 3783 0f48 00       		.byte	0
 3784 0f49 19       		.uleb128 0x19
 3785 0f4a 10020000 		.4byte	.LVL83
 3786 0f4e 20140000 		.4byte	0x1420
 3787 0f52 790F0000 		.4byte	0xf79
 3788 0f56 1A       		.uleb128 0x1a
 3789 0f57 01       		.uleb128 0x1
 3790 0f58 50       		.byte	0x50
 3791 0f59 02       		.uleb128 0x2
 3792 0f5a 08       		.byte	0x8
 3793 0f5b 64       		.byte	0x64
 3794 0f5c 1A       		.uleb128 0x1a
 3795 0f5d 01       		.uleb128 0x1
 3796 0f5e 51       		.byte	0x51
 3797 0f5f 02       		.uleb128 0x2
 3798 0f60 08       		.byte	0x8
 3799 0f61 C3       		.byte	0xc3
 3800 0f62 1A       		.uleb128 0x1a
 3801 0f63 01       		.uleb128 0x1
 3802 0f64 52       		.byte	0x52
 3803 0f65 05       		.uleb128 0x5
 3804 0f66 03       		.byte	0x3
 3805 0f67 B4000000 		.4byte	.LC43
 3806 0f6b 1A       		.uleb128 0x1a
 3807 0f6c 01       		.uleb128 0x1
 3808 0f6d 53       		.byte	0x53
 3809 0f6e 01       		.uleb128 0x1
 3810 0f6f 30       		.byte	0x30
 3811 0f70 1A       		.uleb128 0x1a
 3812 0f71 02       		.uleb128 0x2
 3813 0f72 7D       		.byte	0x7d
 3814 0f73 00       		.sleb128 0
 3815 0f74 03       		.uleb128 0x3
 3816 0f75 0A       		.byte	0xa
 3817 0f76 00FF     		.2byte	0xff00
ARM GAS  C:\Users\leoja\AppData\Local\Temp\cc39o2Na.s 			page 74


 3818 0f78 00       		.byte	0
 3819 0f79 19       		.uleb128 0x19
 3820 0f7a 24020000 		.4byte	.LVL84
 3821 0f7e 20140000 		.4byte	0x1420
 3822 0f82 A90F0000 		.4byte	0xfa9
 3823 0f86 1A       		.uleb128 0x1a
 3824 0f87 01       		.uleb128 0x1
 3825 0f88 50       		.byte	0x50
 3826 0f89 02       		.uleb128 0x2
 3827 0f8a 08       		.byte	0x8
 3828 0f8b 64       		.byte	0x64
 3829 0f8c 1A       		.uleb128 0x1a
 3830 0f8d 01       		.uleb128 0x1
 3831 0f8e 51       		.byte	0x51
 3832 0f8f 02       		.uleb128 0x2
 3833 0f90 08       		.byte	0x8
 3834 0f91 C3       		.byte	0xc3
 3835 0f92 1A       		.uleb128 0x1a
 3836 0f93 01       		.uleb128 0x1
 3837 0f94 52       		.byte	0x52
 3838 0f95 05       		.uleb128 0x5
 3839 0f96 03       		.byte	0x3
 3840 0f97 C0000000 		.4byte	.LC45
 3841 0f9b 1A       		.uleb128 0x1a
 3842 0f9c 01       		.uleb128 0x1
 3843 0f9d 53       		.byte	0x53
 3844 0f9e 01       		.uleb128 0x1
 3845 0f9f 30       		.byte	0x30
 3846 0fa0 1A       		.uleb128 0x1a
 3847 0fa1 02       		.uleb128 0x2
 3848 0fa2 7D       		.byte	0x7d
 3849 0fa3 00       		.sleb128 0
 3850 0fa4 03       		.uleb128 0x3
 3851 0fa5 0A       		.byte	0xa
 3852 0fa6 00FF     		.2byte	0xff00
 3853 0fa8 00       		.byte	0
 3854 0fa9 1B       		.uleb128 0x1b
 3855 0faa 38020000 		.4byte	.LVL85
 3856 0fae 20140000 		.4byte	0x1420
 3857 0fb2 1A       		.uleb128 0x1a
 3858 0fb3 01       		.uleb128 0x1
 3859 0fb4 50       		.byte	0x50
 3860 0fb5 02       		.uleb128 0x2
 3861 0fb6 08       		.byte	0x8
 3862 0fb7 64       		.byte	0x64
 3863 0fb8 1A       		.uleb128 0x1a
 3864 0fb9 01       		.uleb128 0x1
 3865 0fba 51       		.byte	0x51
 3866 0fbb 02       		.uleb128 0x2
 3867 0fbc 08       		.byte	0x8
 3868 0fbd C3       		.byte	0xc3
 3869 0fbe 1A       		.uleb128 0x1a
 3870 0fbf 01       		.uleb128 0x1
 3871 0fc0 52       		.byte	0x52
 3872 0fc1 05       		.uleb128 0x5
 3873 0fc2 03       		.byte	0x3
 3874 0fc3 CC000000 		.4byte	.LC47
ARM GAS  C:\Users\leoja\AppData\Local\Temp\cc39o2Na.s 			page 75


 3875 0fc7 1A       		.uleb128 0x1a
 3876 0fc8 01       		.uleb128 0x1
 3877 0fc9 53       		.byte	0x53
 3878 0fca 01       		.uleb128 0x1
 3879 0fcb 30       		.byte	0x30
 3880 0fcc 1A       		.uleb128 0x1a
 3881 0fcd 02       		.uleb128 0x2
 3882 0fce 7D       		.byte	0x7d
 3883 0fcf 00       		.sleb128 0
 3884 0fd0 03       		.uleb128 0x3
 3885 0fd1 0A       		.byte	0xa
 3886 0fd2 00FF     		.2byte	0xff00
 3887 0fd4 00       		.byte	0
 3888 0fd5 00       		.byte	0
 3889 0fd6 22       		.uleb128 0x22
 3890 0fd7 92020000 		.4byte	.LASF109
 3891 0fdb 01       		.byte	0x1
 3892 0fdc E1       		.byte	0xe1
 3893 0fdd 00000000 		.4byte	.LFB40
 3894 0fe1 C0000000 		.4byte	.LFE40-.LFB40
 3895 0fe5 01       		.uleb128 0x1
 3896 0fe6 9C       		.byte	0x9c
 3897 0fe7 91100000 		.4byte	0x1091
 3898 0feb 1D       		.uleb128 0x1d
 3899 0fec 09030000 		.4byte	.LASF60
 3900 0ff0 01       		.byte	0x1
 3901 0ff1 E1       		.byte	0xe1
 3902 0ff2 CE000000 		.4byte	0xce
 3903 0ff6 8D020000 		.4byte	.LLST7
 3904 0ffa 1E       		.uleb128 0x1e
 3905 0ffb 20020000 		.4byte	.LASF103
 3906 0fff 01       		.byte	0x1
 3907 1000 E7       		.byte	0xe7
 3908 1001 77030000 		.4byte	0x377
 3909 1005 EB020000 		.4byte	.LLST8
 3910 1009 20       		.uleb128 0x20
 3911 100a 08000000 		.4byte	.LASF104
 3912 100e 01       		.byte	0x1
 3913 100f F6       		.byte	0xf6
 3914 1010 91100000 		.4byte	0x1091
 3915 1014 02       		.uleb128 0x2
 3916 1015 91       		.byte	0x91
 3917 1016 68       		.sleb128 -24
 3918 1017 19       		.uleb128 0x19
 3919 1018 50000000 		.4byte	.LVL93
 3920 101c F2130000 		.4byte	0x13f2
 3921 1020 45100000 		.4byte	0x1045
 3922 1024 1A       		.uleb128 0x1a
 3923 1025 01       		.uleb128 0x1
 3924 1026 50       		.byte	0x50
 3925 1027 02       		.uleb128 0x2
 3926 1028 08       		.byte	0x8
 3927 1029 5F       		.byte	0x5f
 3928 102a 1A       		.uleb128 0x1a
 3929 102b 01       		.uleb128 0x1
 3930 102c 51       		.byte	0x51
 3931 102d 02       		.uleb128 0x2
ARM GAS  C:\Users\leoja\AppData\Local\Temp\cc39o2Na.s 			page 76


 3932 102e 08       		.byte	0x8
 3933 102f E6       		.byte	0xe6
 3934 1030 1A       		.uleb128 0x1a
 3935 1031 01       		.uleb128 0x1
 3936 1032 52       		.byte	0x52
 3937 1033 02       		.uleb128 0x2
 3938 1034 08       		.byte	0x8
 3939 1035 B6       		.byte	0xb6
 3940 1036 1A       		.uleb128 0x1a
 3941 1037 01       		.uleb128 0x1
 3942 1038 53       		.byte	0x53
 3943 1039 03       		.uleb128 0x3
 3944 103a 0A       		.byte	0xa
 3945 103b 0401     		.2byte	0x104
 3946 103d 1A       		.uleb128 0x1a
 3947 103e 02       		.uleb128 0x2
 3948 103f 7D       		.byte	0x7d
 3949 1040 00       		.sleb128 0
 3950 1041 02       		.uleb128 0x2
 3951 1042 75       		.byte	0x75
 3952 1043 00       		.sleb128 0
 3953 1044 00       		.byte	0
 3954 1045 19       		.uleb128 0x19
 3955 1046 5E000000 		.4byte	.LVL94
 3956 104a 15140000 		.4byte	0x1415
 3957 104e 68100000 		.4byte	0x1068
 3958 1052 1A       		.uleb128 0x1a
 3959 1053 01       		.uleb128 0x1
 3960 1054 50       		.byte	0x50
 3961 1055 02       		.uleb128 0x2
 3962 1056 91       		.byte	0x91
 3963 1057 68       		.sleb128 -24
 3964 1058 1A       		.uleb128 0x1a
 3965 1059 01       		.uleb128 0x1
 3966 105a 51       		.byte	0x51
 3967 105b 05       		.uleb128 0x5
 3968 105c 03       		.byte	0x3
 3969 105d 44000000 		.4byte	.LC16
 3970 1061 1A       		.uleb128 0x1a
 3971 1062 01       		.uleb128 0x1
 3972 1063 52       		.byte	0x52
 3973 1064 02       		.uleb128 0x2
 3974 1065 74       		.byte	0x74
 3975 1066 00       		.sleb128 0
 3976 1067 00       		.byte	0
 3977 1068 1B       		.uleb128 0x1b
 3978 1069 96000000 		.4byte	.LVL95
 3979 106d 20140000 		.4byte	0x1420
 3980 1071 1A       		.uleb128 0x1a
 3981 1072 01       		.uleb128 0x1
 3982 1073 50       		.byte	0x50
 3983 1074 02       		.uleb128 0x2
 3984 1075 08       		.byte	0x8
 3985 1076 64       		.byte	0x64
 3986 1077 1A       		.uleb128 0x1a
 3987 1078 01       		.uleb128 0x1
 3988 1079 51       		.byte	0x51
ARM GAS  C:\Users\leoja\AppData\Local\Temp\cc39o2Na.s 			page 77


 3989 107a 02       		.uleb128 0x2
 3990 107b 08       		.byte	0x8
 3991 107c F0       		.byte	0xf0
 3992 107d 1A       		.uleb128 0x1a
 3993 107e 01       		.uleb128 0x1
 3994 107f 52       		.byte	0x52
 3995 1080 02       		.uleb128 0x2
 3996 1081 91       		.byte	0x91
 3997 1082 68       		.sleb128 -24
 3998 1083 1A       		.uleb128 0x1a
 3999 1084 01       		.uleb128 0x1
 4000 1085 53       		.byte	0x53
 4001 1086 01       		.uleb128 0x1
 4002 1087 30       		.byte	0x30
 4003 1088 1A       		.uleb128 0x1a
 4004 1089 02       		.uleb128 0x2
 4005 108a 7D       		.byte	0x7d
 4006 108b 00       		.sleb128 0
 4007 108c 02       		.uleb128 0x2
 4008 108d 75       		.byte	0x75
 4009 108e 00       		.sleb128 0
 4010 108f 00       		.byte	0
 4011 1090 00       		.byte	0
 4012 1091 16       		.uleb128 0x16
 4013 1092 F3000000 		.4byte	0xf3
 4014 1096 A1100000 		.4byte	0x10a1
 4015 109a 17       		.uleb128 0x17
 4016 109b 01010000 		.4byte	0x101
 4017 109f 06       		.byte	0x6
 4018 10a0 00       		.byte	0
 4019 10a1 23       		.uleb128 0x23
 4020 10a2 F0040000 		.4byte	.LASF110
 4021 10a6 01       		.byte	0x1
 4022 10a7 0901     		.2byte	0x109
 4023 10a9 00000000 		.4byte	.LFB41
 4024 10ad 84000000 		.4byte	.LFE41-.LFB41
 4025 10b1 01       		.uleb128 0x1
 4026 10b2 9C       		.byte	0x9c
 4027 10b3 F4110000 		.4byte	0x11f4
 4028 10b7 24       		.uleb128 0x24
 4029 10b8 09030000 		.4byte	.LASF60
 4030 10bc 01       		.byte	0x1
 4031 10bd 0901     		.2byte	0x109
 4032 10bf C3000000 		.4byte	0xc3
 4033 10c3 FE020000 		.4byte	.LLST9
 4034 10c7 1F       		.uleb128 0x1f
 4035 10c8 0A000000 		.4byte	.LBB4
 4036 10cc 38000000 		.4byte	.LBE4-.LBB4
 4037 10d0 5F110000 		.4byte	0x115f
 4038 10d4 25       		.uleb128 0x25
 4039 10d5 08000000 		.4byte	.LASF104
 4040 10d9 01       		.byte	0x1
 4041 10da 0D01     		.2byte	0x10d
 4042 10dc F4110000 		.4byte	0x11f4
 4043 10e0 02       		.uleb128 0x2
 4044 10e1 91       		.byte	0x91
 4045 10e2 68       		.sleb128 -24
ARM GAS  C:\Users\leoja\AppData\Local\Temp\cc39o2Na.s 			page 78


 4046 10e3 19       		.uleb128 0x19
 4047 10e4 20000000 		.4byte	.LVL100
 4048 10e8 F2130000 		.4byte	0x13f2
 4049 10ec 12110000 		.4byte	0x1112
 4050 10f0 1A       		.uleb128 0x1a
 4051 10f1 01       		.uleb128 0x1
 4052 10f2 50       		.byte	0x50
 4053 10f3 03       		.uleb128 0x3
 4054 10f4 0A       		.byte	0xa
 4055 10f5 9A01     		.2byte	0x19a
 4056 10f7 1A       		.uleb128 0x1a
 4057 10f8 01       		.uleb128 0x1
 4058 10f9 51       		.byte	0x51
 4059 10fa 02       		.uleb128 0x2
 4060 10fb 08       		.byte	0x8
 4061 10fc B9       		.byte	0xb9
 4062 10fd 1A       		.uleb128 0x1a
 4063 10fe 01       		.uleb128 0x1
 4064 10ff 52       		.byte	0x52
 4065 1100 03       		.uleb128 0x3
 4066 1101 0A       		.byte	0xa
 4067 1102 D601     		.2byte	0x1d6
 4068 1104 1A       		.uleb128 0x1a
 4069 1105 01       		.uleb128 0x1
 4070 1106 53       		.byte	0x53
 4071 1107 02       		.uleb128 0x2
 4072 1108 08       		.byte	0x8
 4073 1109 D7       		.byte	0xd7
 4074 110a 1A       		.uleb128 0x1a
 4075 110b 02       		.uleb128 0x2
 4076 110c 7D       		.byte	0x7d
 4077 110d 00       		.sleb128 0
 4078 110e 02       		.uleb128 0x2
 4079 110f 76       		.byte	0x76
 4080 1110 00       		.sleb128 0
 4081 1111 00       		.byte	0
 4082 1112 19       		.uleb128 0x19
 4083 1113 2C000000 		.4byte	.LVL101
 4084 1117 15140000 		.4byte	0x1415
 4085 111b 35110000 		.4byte	0x1135
 4086 111f 1A       		.uleb128 0x1a
 4087 1120 01       		.uleb128 0x1
 4088 1121 50       		.byte	0x50
 4089 1122 02       		.uleb128 0x2
 4090 1123 74       		.byte	0x74
 4091 1124 00       		.sleb128 0
 4092 1125 1A       		.uleb128 0x1a
 4093 1126 01       		.uleb128 0x1
 4094 1127 51       		.byte	0x51
 4095 1128 05       		.uleb128 0x5
 4096 1129 03       		.byte	0x3
 4097 112a 44000000 		.4byte	.LC16
 4098 112e 1A       		.uleb128 0x1a
 4099 112f 01       		.uleb128 0x1
 4100 1130 52       		.byte	0x52
 4101 1131 02       		.uleb128 0x2
 4102 1132 75       		.byte	0x75
ARM GAS  C:\Users\leoja\AppData\Local\Temp\cc39o2Na.s 			page 79


 4103 1133 00       		.sleb128 0
 4104 1134 00       		.byte	0
 4105 1135 1B       		.uleb128 0x1b
 4106 1136 42000000 		.4byte	.LVL102
 4107 113a 20140000 		.4byte	0x1420
 4108 113e 1A       		.uleb128 0x1a
 4109 113f 01       		.uleb128 0x1
 4110 1140 50       		.byte	0x50
 4111 1141 03       		.uleb128 0x3
 4112 1142 0A       		.byte	0xa
 4113 1143 9F01     		.2byte	0x19f
 4114 1145 1A       		.uleb128 0x1a
 4115 1146 01       		.uleb128 0x1
 4116 1147 51       		.byte	0x51
 4117 1148 02       		.uleb128 0x2
 4118 1149 08       		.byte	0x8
 4119 114a C3       		.byte	0xc3
 4120 114b 1A       		.uleb128 0x1a
 4121 114c 01       		.uleb128 0x1
 4122 114d 52       		.byte	0x52
 4123 114e 02       		.uleb128 0x2
 4124 114f 74       		.byte	0x74
 4125 1150 00       		.sleb128 0
 4126 1151 1A       		.uleb128 0x1a
 4127 1152 01       		.uleb128 0x1
 4128 1153 53       		.byte	0x53
 4129 1154 01       		.uleb128 0x1
 4130 1155 30       		.byte	0x30
 4131 1156 1A       		.uleb128 0x1a
 4132 1157 02       		.uleb128 0x2
 4133 1158 7D       		.byte	0x7d
 4134 1159 00       		.sleb128 0
 4135 115a 02       		.uleb128 0x2
 4136 115b 76       		.byte	0x76
 4137 115c 00       		.sleb128 0
 4138 115d 00       		.byte	0
 4139 115e 00       		.byte	0
 4140 115f 26       		.uleb128 0x26
 4141 1160 44000000 		.4byte	.LBB5
 4142 1164 38000000 		.4byte	.LBE5-.LBB5
 4143 1168 25       		.uleb128 0x25
 4144 1169 08000000 		.4byte	.LASF104
 4145 116d 01       		.byte	0x1
 4146 116e 1501     		.2byte	0x115
 4147 1170 720A0000 		.4byte	0xa72
 4148 1174 02       		.uleb128 0x2
 4149 1175 91       		.byte	0x91
 4150 1176 68       		.sleb128 -24
 4151 1177 19       		.uleb128 0x19
 4152 1178 5A000000 		.4byte	.LVL105
 4153 117c F2130000 		.4byte	0x13f2
 4154 1180 A6110000 		.4byte	0x11a6
 4155 1184 1A       		.uleb128 0x1a
 4156 1185 01       		.uleb128 0x1
 4157 1186 50       		.byte	0x50
 4158 1187 03       		.uleb128 0x3
 4159 1188 0A       		.byte	0xa
ARM GAS  C:\Users\leoja\AppData\Local\Temp\cc39o2Na.s 			page 80


 4160 1189 9A01     		.2byte	0x19a
 4161 118b 1A       		.uleb128 0x1a
 4162 118c 01       		.uleb128 0x1
 4163 118d 51       		.byte	0x51
 4164 118e 02       		.uleb128 0x2
 4165 118f 08       		.byte	0x8
 4166 1190 B9       		.byte	0xb9
 4167 1191 1A       		.uleb128 0x1a
 4168 1192 01       		.uleb128 0x1
 4169 1193 52       		.byte	0x52
 4170 1194 03       		.uleb128 0x3
 4171 1195 0A       		.byte	0xa
 4172 1196 D601     		.2byte	0x1d6
 4173 1198 1A       		.uleb128 0x1a
 4174 1199 01       		.uleb128 0x1
 4175 119a 53       		.byte	0x53
 4176 119b 02       		.uleb128 0x2
 4177 119c 08       		.byte	0x8
 4178 119d D7       		.byte	0xd7
 4179 119e 1A       		.uleb128 0x1a
 4180 119f 02       		.uleb128 0x2
 4181 11a0 7D       		.byte	0x7d
 4182 11a1 00       		.sleb128 0
 4183 11a2 02       		.uleb128 0x2
 4184 11a3 76       		.byte	0x76
 4185 11a4 00       		.sleb128 0
 4186 11a5 00       		.byte	0
 4187 11a6 19       		.uleb128 0x19
 4188 11a7 66000000 		.4byte	.LVL106
 4189 11ab 15140000 		.4byte	0x1415
 4190 11af C9110000 		.4byte	0x11c9
 4191 11b3 1A       		.uleb128 0x1a
 4192 11b4 01       		.uleb128 0x1
 4193 11b5 50       		.byte	0x50
 4194 11b6 02       		.uleb128 0x2
 4195 11b7 74       		.byte	0x74
 4196 11b8 00       		.sleb128 0
 4197 11b9 1A       		.uleb128 0x1a
 4198 11ba 01       		.uleb128 0x1
 4199 11bb 51       		.byte	0x51
 4200 11bc 05       		.uleb128 0x5
 4201 11bd 03       		.byte	0x3
 4202 11be 44000000 		.4byte	.LC16
 4203 11c2 1A       		.uleb128 0x1a
 4204 11c3 01       		.uleb128 0x1
 4205 11c4 52       		.byte	0x52
 4206 11c5 02       		.uleb128 0x2
 4207 11c6 75       		.byte	0x75
 4208 11c7 00       		.sleb128 0
 4209 11c8 00       		.byte	0
 4210 11c9 1B       		.uleb128 0x1b
 4211 11ca 7C000000 		.4byte	.LVL107
 4212 11ce 20140000 		.4byte	0x1420
 4213 11d2 1A       		.uleb128 0x1a
 4214 11d3 01       		.uleb128 0x1
 4215 11d4 50       		.byte	0x50
 4216 11d5 03       		.uleb128 0x3
ARM GAS  C:\Users\leoja\AppData\Local\Temp\cc39o2Na.s 			page 81


 4217 11d6 0A       		.byte	0xa
 4218 11d7 A601     		.2byte	0x1a6
 4219 11d9 1A       		.uleb128 0x1a
 4220 11da 01       		.uleb128 0x1
 4221 11db 51       		.byte	0x51
 4222 11dc 02       		.uleb128 0x2
 4223 11dd 08       		.byte	0x8
 4224 11de C3       		.byte	0xc3
 4225 11df 1A       		.uleb128 0x1a
 4226 11e0 01       		.uleb128 0x1
 4227 11e1 52       		.byte	0x52
 4228 11e2 02       		.uleb128 0x2
 4229 11e3 74       		.byte	0x74
 4230 11e4 00       		.sleb128 0
 4231 11e5 1A       		.uleb128 0x1a
 4232 11e6 01       		.uleb128 0x1
 4233 11e7 53       		.byte	0x53
 4234 11e8 01       		.uleb128 0x1
 4235 11e9 30       		.byte	0x30
 4236 11ea 1A       		.uleb128 0x1a
 4237 11eb 02       		.uleb128 0x2
 4238 11ec 7D       		.byte	0x7d
 4239 11ed 00       		.sleb128 0
 4240 11ee 02       		.uleb128 0x2
 4241 11ef 76       		.byte	0x76
 4242 11f0 00       		.sleb128 0
 4243 11f1 00       		.byte	0
 4244 11f2 00       		.byte	0
 4245 11f3 00       		.byte	0
 4246 11f4 16       		.uleb128 0x16
 4247 11f5 F3000000 		.4byte	0xf3
 4248 11f9 04120000 		.4byte	0x1204
 4249 11fd 17       		.uleb128 0x17
 4250 11fe 01010000 		.4byte	0x101
 4251 1202 04       		.byte	0x4
 4252 1203 00       		.byte	0
 4253 1204 23       		.uleb128 0x23
 4254 1205 94040000 		.4byte	.LASF111
 4255 1209 01       		.byte	0x1
 4256 120a 1D01     		.2byte	0x11d
 4257 120c 00000000 		.4byte	.LFB42
 4258 1210 88000000 		.4byte	.LFE42-.LFB42
 4259 1214 01       		.uleb128 0x1
 4260 1215 9C       		.byte	0x9c
 4261 1216 59130000 		.4byte	0x1359
 4262 121a 24       		.uleb128 0x24
 4263 121b 09030000 		.4byte	.LASF60
 4264 121f 01       		.byte	0x1
 4265 1220 1D01     		.2byte	0x11d
 4266 1222 C3000000 		.4byte	0xc3
 4267 1226 38030000 		.4byte	.LLST10
 4268 122a 1F       		.uleb128 0x1f
 4269 122b 0A000000 		.4byte	.LBB6
 4270 122f 3A000000 		.4byte	.LBE6-.LBB6
 4271 1233 C3120000 		.4byte	0x12c3
 4272 1237 25       		.uleb128 0x25
 4273 1238 08000000 		.4byte	.LASF104
ARM GAS  C:\Users\leoja\AppData\Local\Temp\cc39o2Na.s 			page 82


 4274 123c 01       		.byte	0x1
 4275 123d 2101     		.2byte	0x121
 4276 123f F4110000 		.4byte	0x11f4
 4277 1243 02       		.uleb128 0x2
 4278 1244 91       		.byte	0x91
 4279 1245 68       		.sleb128 -24
 4280 1246 19       		.uleb128 0x19
 4281 1247 22000000 		.4byte	.LVL110
 4282 124b F2130000 		.4byte	0x13f2
 4283 124f 76120000 		.4byte	0x1276
 4284 1253 1A       		.uleb128 0x1a
 4285 1254 01       		.uleb128 0x1
 4286 1255 50       		.byte	0x50
 4287 1256 03       		.uleb128 0x3
 4288 1257 0A       		.byte	0xa
 4289 1258 9A01     		.2byte	0x19a
 4290 125a 1A       		.uleb128 0x1a
 4291 125b 01       		.uleb128 0x1
 4292 125c 51       		.byte	0x51
 4293 125d 02       		.uleb128 0x2
 4294 125e 08       		.byte	0x8
 4295 125f E6       		.byte	0xe6
 4296 1260 1A       		.uleb128 0x1a
 4297 1261 01       		.uleb128 0x1
 4298 1262 52       		.byte	0x52
 4299 1263 03       		.uleb128 0x3
 4300 1264 0A       		.byte	0xa
 4301 1265 D601     		.2byte	0x1d6
 4302 1267 1A       		.uleb128 0x1a
 4303 1268 01       		.uleb128 0x1
 4304 1269 53       		.byte	0x53
 4305 126a 03       		.uleb128 0x3
 4306 126b 0A       		.byte	0xa
 4307 126c 0401     		.2byte	0x104
 4308 126e 1A       		.uleb128 0x1a
 4309 126f 02       		.uleb128 0x2
 4310 1270 7D       		.byte	0x7d
 4311 1271 00       		.sleb128 0
 4312 1272 02       		.uleb128 0x2
 4313 1273 76       		.byte	0x76
 4314 1274 00       		.sleb128 0
 4315 1275 00       		.byte	0
 4316 1276 19       		.uleb128 0x19
 4317 1277 2E000000 		.4byte	.LVL111
 4318 127b 15140000 		.4byte	0x1415
 4319 127f 99120000 		.4byte	0x1299
 4320 1283 1A       		.uleb128 0x1a
 4321 1284 01       		.uleb128 0x1
 4322 1285 50       		.byte	0x50
 4323 1286 02       		.uleb128 0x2
 4324 1287 74       		.byte	0x74
 4325 1288 00       		.sleb128 0
 4326 1289 1A       		.uleb128 0x1a
 4327 128a 01       		.uleb128 0x1
 4328 128b 51       		.byte	0x51
 4329 128c 05       		.uleb128 0x5
 4330 128d 03       		.byte	0x3
ARM GAS  C:\Users\leoja\AppData\Local\Temp\cc39o2Na.s 			page 83


 4331 128e 44000000 		.4byte	.LC16
 4332 1292 1A       		.uleb128 0x1a
 4333 1293 01       		.uleb128 0x1
 4334 1294 52       		.byte	0x52
 4335 1295 02       		.uleb128 0x2
 4336 1296 75       		.byte	0x75
 4337 1297 00       		.sleb128 0
 4338 1298 00       		.byte	0
 4339 1299 1B       		.uleb128 0x1b
 4340 129a 44000000 		.4byte	.LVL112
 4341 129e 20140000 		.4byte	0x1420
 4342 12a2 1A       		.uleb128 0x1a
 4343 12a3 01       		.uleb128 0x1
 4344 12a4 50       		.byte	0x50
 4345 12a5 03       		.uleb128 0x3
 4346 12a6 0A       		.byte	0xa
 4347 12a7 9F01     		.2byte	0x19f
 4348 12a9 1A       		.uleb128 0x1a
 4349 12aa 01       		.uleb128 0x1
 4350 12ab 51       		.byte	0x51
 4351 12ac 02       		.uleb128 0x2
 4352 12ad 08       		.byte	0x8
 4353 12ae F0       		.byte	0xf0
 4354 12af 1A       		.uleb128 0x1a
 4355 12b0 01       		.uleb128 0x1
 4356 12b1 52       		.byte	0x52
 4357 12b2 02       		.uleb128 0x2
 4358 12b3 74       		.byte	0x74
 4359 12b4 00       		.sleb128 0
 4360 12b5 1A       		.uleb128 0x1a
 4361 12b6 01       		.uleb128 0x1
 4362 12b7 53       		.byte	0x53
 4363 12b8 01       		.uleb128 0x1
 4364 12b9 30       		.byte	0x30
 4365 12ba 1A       		.uleb128 0x1a
 4366 12bb 02       		.uleb128 0x2
 4367 12bc 7D       		.byte	0x7d
 4368 12bd 00       		.sleb128 0
 4369 12be 02       		.uleb128 0x2
 4370 12bf 76       		.byte	0x76
 4371 12c0 00       		.sleb128 0
 4372 12c1 00       		.byte	0
 4373 12c2 00       		.byte	0
 4374 12c3 26       		.uleb128 0x26
 4375 12c4 46000000 		.4byte	.LBB7
 4376 12c8 3A000000 		.4byte	.LBE7-.LBB7
 4377 12cc 25       		.uleb128 0x25
 4378 12cd 08000000 		.4byte	.LASF104
 4379 12d1 01       		.byte	0x1
 4380 12d2 2901     		.2byte	0x129
 4381 12d4 720A0000 		.4byte	0xa72
 4382 12d8 02       		.uleb128 0x2
 4383 12d9 91       		.byte	0x91
 4384 12da 68       		.sleb128 -24
 4385 12db 19       		.uleb128 0x19
 4386 12dc 5E000000 		.4byte	.LVL115
 4387 12e0 F2130000 		.4byte	0x13f2
ARM GAS  C:\Users\leoja\AppData\Local\Temp\cc39o2Na.s 			page 84


 4388 12e4 0B130000 		.4byte	0x130b
 4389 12e8 1A       		.uleb128 0x1a
 4390 12e9 01       		.uleb128 0x1
 4391 12ea 50       		.byte	0x50
 4392 12eb 03       		.uleb128 0x3
 4393 12ec 0A       		.byte	0xa
 4394 12ed 9A01     		.2byte	0x19a
 4395 12ef 1A       		.uleb128 0x1a
 4396 12f0 01       		.uleb128 0x1
 4397 12f1 51       		.byte	0x51
 4398 12f2 02       		.uleb128 0x2
 4399 12f3 08       		.byte	0x8
 4400 12f4 E6       		.byte	0xe6
 4401 12f5 1A       		.uleb128 0x1a
 4402 12f6 01       		.uleb128 0x1
 4403 12f7 52       		.byte	0x52
 4404 12f8 03       		.uleb128 0x3
 4405 12f9 0A       		.byte	0xa
 4406 12fa D601     		.2byte	0x1d6
 4407 12fc 1A       		.uleb128 0x1a
 4408 12fd 01       		.uleb128 0x1
 4409 12fe 53       		.byte	0x53
 4410 12ff 03       		.uleb128 0x3
 4411 1300 0A       		.byte	0xa
 4412 1301 0401     		.2byte	0x104
 4413 1303 1A       		.uleb128 0x1a
 4414 1304 02       		.uleb128 0x2
 4415 1305 7D       		.byte	0x7d
 4416 1306 00       		.sleb128 0
 4417 1307 02       		.uleb128 0x2
 4418 1308 76       		.byte	0x76
 4419 1309 00       		.sleb128 0
 4420 130a 00       		.byte	0
 4421 130b 19       		.uleb128 0x19
 4422 130c 6A000000 		.4byte	.LVL116
 4423 1310 15140000 		.4byte	0x1415
 4424 1314 2E130000 		.4byte	0x132e
 4425 1318 1A       		.uleb128 0x1a
 4426 1319 01       		.uleb128 0x1
 4427 131a 50       		.byte	0x50
 4428 131b 02       		.uleb128 0x2
 4429 131c 74       		.byte	0x74
 4430 131d 00       		.sleb128 0
 4431 131e 1A       		.uleb128 0x1a
 4432 131f 01       		.uleb128 0x1
 4433 1320 51       		.byte	0x51
 4434 1321 05       		.uleb128 0x5
 4435 1322 03       		.byte	0x3
 4436 1323 44000000 		.4byte	.LC16
 4437 1327 1A       		.uleb128 0x1a
 4438 1328 01       		.uleb128 0x1
 4439 1329 52       		.byte	0x52
 4440 132a 02       		.uleb128 0x2
 4441 132b 75       		.byte	0x75
 4442 132c 00       		.sleb128 0
 4443 132d 00       		.byte	0
 4444 132e 1B       		.uleb128 0x1b
ARM GAS  C:\Users\leoja\AppData\Local\Temp\cc39o2Na.s 			page 85


 4445 132f 80000000 		.4byte	.LVL117
 4446 1333 20140000 		.4byte	0x1420
 4447 1337 1A       		.uleb128 0x1a
 4448 1338 01       		.uleb128 0x1
 4449 1339 50       		.byte	0x50
 4450 133a 03       		.uleb128 0x3
 4451 133b 0A       		.byte	0xa
 4452 133c A601     		.2byte	0x1a6
 4453 133e 1A       		.uleb128 0x1a
 4454 133f 01       		.uleb128 0x1
 4455 1340 51       		.byte	0x51
 4456 1341 02       		.uleb128 0x2
 4457 1342 08       		.byte	0x8
 4458 1343 F0       		.byte	0xf0
 4459 1344 1A       		.uleb128 0x1a
 4460 1345 01       		.uleb128 0x1
 4461 1346 52       		.byte	0x52
 4462 1347 02       		.uleb128 0x2
 4463 1348 74       		.byte	0x74
 4464 1349 00       		.sleb128 0
 4465 134a 1A       		.uleb128 0x1a
 4466 134b 01       		.uleb128 0x1
 4467 134c 53       		.byte	0x53
 4468 134d 01       		.uleb128 0x1
 4469 134e 30       		.byte	0x30
 4470 134f 1A       		.uleb128 0x1a
 4471 1350 02       		.uleb128 0x2
 4472 1351 7D       		.byte	0x7d
 4473 1352 00       		.sleb128 0
 4474 1353 02       		.uleb128 0x2
 4475 1354 76       		.byte	0x76
 4476 1355 00       		.sleb128 0
 4477 1356 00       		.byte	0
 4478 1357 00       		.byte	0
 4479 1358 00       		.byte	0
 4480 1359 27       		.uleb128 0x27
 4481 135a 2E010000 		.4byte	.LASF112
 4482 135e 07       		.byte	0x7
 4483 135f 51       		.byte	0x51
 4484 1360 C8030000 		.4byte	0x3c8
 4485 1364 27       		.uleb128 0x27
 4486 1365 FD040000 		.4byte	.LASF113
 4487 1369 07       		.byte	0x7
 4488 136a 60       		.byte	0x60
 4489 136b C8030000 		.4byte	0x3c8
 4490 136f 28       		.uleb128 0x28
 4491 1370 D4030000 		.4byte	.LASF114
 4492 1374 08       		.byte	0x8
 4493 1375 33       		.byte	0x33
 4494 1376 C8060000 		.4byte	0x6c8
 4495 137a 05       		.uleb128 0x5
 4496 137b 03       		.byte	0x3
 4497 137c 00000000 		.4byte	gui1963
 4498 1380 28       		.uleb128 0x28
 4499 1381 58020000 		.4byte	.LASF115
 4500 1385 09       		.byte	0x9
 4501 1386 0F       		.byte	0xf
ARM GAS  C:\Users\leoja\AppData\Local\Temp\cc39o2Na.s 			page 86


 4502 1387 77030000 		.4byte	0x377
 4503 138b 05       		.uleb128 0x5
 4504 138c 03       		.byte	0x3
 4505 138d 00000000 		.4byte	last_SOC_color
 4506 1391 28       		.uleb128 0x28
 4507 1392 3D030000 		.4byte	.LASF116
 4508 1396 09       		.byte	0x9
 4509 1397 10       		.byte	0x10
 4510 1398 77030000 		.4byte	0x377
 4511 139c 05       		.uleb128 0x5
 4512 139d 03       		.byte	0x3
 4513 139e 00000000 		.4byte	last_max_pack_temp_color
 4514 13a2 28       		.uleb128 0x28
 4515 13a3 70040000 		.4byte	.LASF117
 4516 13a7 09       		.byte	0x9
 4517 13a8 11       		.byte	0x11
 4518 13a9 77030000 		.4byte	0x377
 4519 13ad 05       		.uleb128 0x5
 4520 13ae 03       		.byte	0x3
 4521 13af 00000000 		.4byte	last_state_color
 4522 13b3 28       		.uleb128 0x28
 4523 13b4 1B050000 		.4byte	.LASF118
 4524 13b8 09       		.byte	0x9
 4525 13b9 12       		.byte	0x12
 4526 13ba 77030000 		.4byte	0x377
 4527 13be 05       		.uleb128 0x5
 4528 13bf 03       		.byte	0x3
 4529 13c0 00000000 		.4byte	last_glv_v_color
 4530 13c4 28       		.uleb128 0x28
 4531 13c5 71050000 		.4byte	.LASF119
 4532 13c9 09       		.byte	0x9
 4533 13ca 13       		.byte	0x13
 4534 13cb 77030000 		.4byte	0x377
 4535 13cf 05       		.uleb128 0x5
 4536 13d0 03       		.byte	0x3
 4537 13d1 00000000 		.4byte	last_mc_temp_color
 4538 13d5 28       		.uleb128 0x28
 4539 13d6 9D020000 		.4byte	.LASF120
 4540 13da 09       		.byte	0x9
 4541 13db 14       		.byte	0x14
 4542 13dc 77030000 		.4byte	0x377
 4543 13e0 05       		.uleb128 0x5
 4544 13e1 03       		.byte	0x3
 4545 13e2 00000000 		.4byte	last_motor_temp_color
 4546 13e6 29       		.uleb128 0x29
 4547 13e7 4A020000 		.4byte	.LASF121
 4548 13eb 4A020000 		.4byte	.LASF121
 4549 13ef 07       		.byte	0x7
 4550 13f0 EC02     		.2byte	0x2ec
 4551 13f2 29       		.uleb128 0x29
 4552 13f3 BA000000 		.4byte	.LASF122
 4553 13f7 BA000000 		.4byte	.LASF122
 4554 13fb 07       		.byte	0x7
 4555 13fc ED02     		.2byte	0x2ed
 4556 13fe 2A       		.uleb128 0x2a
 4557 13ff 00000000 		.4byte	.LASF123
 4558 1403 00000000 		.4byte	.LASF123
ARM GAS  C:\Users\leoja\AppData\Local\Temp\cc39o2Na.s 			page 87


 4559 1407 0A       		.byte	0xa
 4560 1408 EC       		.byte	0xec
 4561 1409 29       		.uleb128 0x29
 4562 140a AA030000 		.4byte	.LASF124
 4563 140e AA030000 		.4byte	.LASF124
 4564 1412 07       		.byte	0x7
 4565 1413 F702     		.2byte	0x2f7
 4566 1415 2A       		.uleb128 0x2a
 4567 1416 C3030000 		.4byte	.LASF125
 4568 141a C3030000 		.4byte	.LASF125
 4569 141e 0B       		.byte	0xb
 4570 141f E7       		.byte	0xe7
 4571 1420 29       		.uleb128 0x29
 4572 1421 26020000 		.4byte	.LASF126
 4573 1425 26020000 		.4byte	.LASF126
 4574 1429 07       		.byte	0x7
 4575 142a F802     		.2byte	0x2f8
 4576 142c 29       		.uleb128 0x29
 4577 142d EB050000 		.4byte	.LASF127
 4578 1431 EB050000 		.4byte	.LASF127
 4579 1435 07       		.byte	0x7
 4580 1436 EB02     		.2byte	0x2eb
 4581 1438 00       		.byte	0
 4582              		.section	.debug_abbrev,"",%progbits
 4583              	.Ldebug_abbrev0:
 4584 0000 01       		.uleb128 0x1
 4585 0001 11       		.uleb128 0x11
 4586 0002 01       		.byte	0x1
 4587 0003 25       		.uleb128 0x25
 4588 0004 0E       		.uleb128 0xe
 4589 0005 13       		.uleb128 0x13
 4590 0006 0B       		.uleb128 0xb
 4591 0007 03       		.uleb128 0x3
 4592 0008 0E       		.uleb128 0xe
 4593 0009 1B       		.uleb128 0x1b
 4594 000a 0E       		.uleb128 0xe
 4595 000b 55       		.uleb128 0x55
 4596 000c 17       		.uleb128 0x17
 4597 000d 11       		.uleb128 0x11
 4598 000e 01       		.uleb128 0x1
 4599 000f 10       		.uleb128 0x10
 4600 0010 17       		.uleb128 0x17
 4601 0011 00       		.byte	0
 4602 0012 00       		.byte	0
 4603 0013 02       		.uleb128 0x2
 4604 0014 16       		.uleb128 0x16
 4605 0015 00       		.byte	0
 4606 0016 03       		.uleb128 0x3
 4607 0017 0E       		.uleb128 0xe
 4608 0018 3A       		.uleb128 0x3a
 4609 0019 0B       		.uleb128 0xb
 4610 001a 3B       		.uleb128 0x3b
 4611 001b 0B       		.uleb128 0xb
 4612 001c 49       		.uleb128 0x49
 4613 001d 13       		.uleb128 0x13
 4614 001e 00       		.byte	0
 4615 001f 00       		.byte	0
ARM GAS  C:\Users\leoja\AppData\Local\Temp\cc39o2Na.s 			page 88


 4616 0020 03       		.uleb128 0x3
 4617 0021 24       		.uleb128 0x24
 4618 0022 00       		.byte	0
 4619 0023 0B       		.uleb128 0xb
 4620 0024 0B       		.uleb128 0xb
 4621 0025 3E       		.uleb128 0x3e
 4622 0026 0B       		.uleb128 0xb
 4623 0027 03       		.uleb128 0x3
 4624 0028 0E       		.uleb128 0xe
 4625 0029 00       		.byte	0
 4626 002a 00       		.byte	0
 4627 002b 04       		.uleb128 0x4
 4628 002c 24       		.uleb128 0x24
 4629 002d 00       		.byte	0
 4630 002e 0B       		.uleb128 0xb
 4631 002f 0B       		.uleb128 0xb
 4632 0030 3E       		.uleb128 0x3e
 4633 0031 0B       		.uleb128 0xb
 4634 0032 03       		.uleb128 0x3
 4635 0033 08       		.uleb128 0x8
 4636 0034 00       		.byte	0
 4637 0035 00       		.byte	0
 4638 0036 05       		.uleb128 0x5
 4639 0037 16       		.uleb128 0x16
 4640 0038 00       		.byte	0
 4641 0039 03       		.uleb128 0x3
 4642 003a 0E       		.uleb128 0xe
 4643 003b 3A       		.uleb128 0x3a
 4644 003c 0B       		.uleb128 0xb
 4645 003d 3B       		.uleb128 0x3b
 4646 003e 05       		.uleb128 0x5
 4647 003f 49       		.uleb128 0x49
 4648 0040 13       		.uleb128 0x13
 4649 0041 00       		.byte	0
 4650 0042 00       		.byte	0
 4651 0043 06       		.uleb128 0x6
 4652 0044 0F       		.uleb128 0xf
 4653 0045 00       		.byte	0
 4654 0046 0B       		.uleb128 0xb
 4655 0047 0B       		.uleb128 0xb
 4656 0048 00       		.byte	0
 4657 0049 00       		.byte	0
 4658 004a 07       		.uleb128 0x7
 4659 004b 0F       		.uleb128 0xf
 4660 004c 00       		.byte	0
 4661 004d 0B       		.uleb128 0xb
 4662 004e 0B       		.uleb128 0xb
 4663 004f 49       		.uleb128 0x49
 4664 0050 13       		.uleb128 0x13
 4665 0051 00       		.byte	0
 4666 0052 00       		.byte	0
 4667 0053 08       		.uleb128 0x8
 4668 0054 04       		.uleb128 0x4
 4669 0055 01       		.byte	0x1
 4670 0056 0B       		.uleb128 0xb
 4671 0057 0B       		.uleb128 0xb
 4672 0058 49       		.uleb128 0x49
ARM GAS  C:\Users\leoja\AppData\Local\Temp\cc39o2Na.s 			page 89


 4673 0059 13       		.uleb128 0x13
 4674 005a 3A       		.uleb128 0x3a
 4675 005b 0B       		.uleb128 0xb
 4676 005c 3B       		.uleb128 0x3b
 4677 005d 0B       		.uleb128 0xb
 4678 005e 01       		.uleb128 0x1
 4679 005f 13       		.uleb128 0x13
 4680 0060 00       		.byte	0
 4681 0061 00       		.byte	0
 4682 0062 09       		.uleb128 0x9
 4683 0063 28       		.uleb128 0x28
 4684 0064 00       		.byte	0
 4685 0065 03       		.uleb128 0x3
 4686 0066 08       		.uleb128 0x8
 4687 0067 1C       		.uleb128 0x1c
 4688 0068 0B       		.uleb128 0xb
 4689 0069 00       		.byte	0
 4690 006a 00       		.byte	0
 4691 006b 0A       		.uleb128 0xa
 4692 006c 28       		.uleb128 0x28
 4693 006d 00       		.byte	0
 4694 006e 03       		.uleb128 0x3
 4695 006f 0E       		.uleb128 0xe
 4696 0070 1C       		.uleb128 0x1c
 4697 0071 0B       		.uleb128 0xb
 4698 0072 00       		.byte	0
 4699 0073 00       		.byte	0
 4700 0074 0B       		.uleb128 0xb
 4701 0075 13       		.uleb128 0x13
 4702 0076 01       		.byte	0x1
 4703 0077 0B       		.uleb128 0xb
 4704 0078 0B       		.uleb128 0xb
 4705 0079 3A       		.uleb128 0x3a
 4706 007a 0B       		.uleb128 0xb
 4707 007b 3B       		.uleb128 0x3b
 4708 007c 0B       		.uleb128 0xb
 4709 007d 01       		.uleb128 0x1
 4710 007e 13       		.uleb128 0x13
 4711 007f 00       		.byte	0
 4712 0080 00       		.byte	0
 4713 0081 0C       		.uleb128 0xc
 4714 0082 0D       		.uleb128 0xd
 4715 0083 00       		.byte	0
 4716 0084 03       		.uleb128 0x3
 4717 0085 08       		.uleb128 0x8
 4718 0086 3A       		.uleb128 0x3a
 4719 0087 0B       		.uleb128 0xb
 4720 0088 3B       		.uleb128 0x3b
 4721 0089 0B       		.uleb128 0xb
 4722 008a 49       		.uleb128 0x49
 4723 008b 13       		.uleb128 0x13
 4724 008c 38       		.uleb128 0x38
 4725 008d 0B       		.uleb128 0xb
 4726 008e 00       		.byte	0
 4727 008f 00       		.byte	0
 4728 0090 0D       		.uleb128 0xd
 4729 0091 0D       		.uleb128 0xd
ARM GAS  C:\Users\leoja\AppData\Local\Temp\cc39o2Na.s 			page 90


 4730 0092 00       		.byte	0
 4731 0093 03       		.uleb128 0x3
 4732 0094 0E       		.uleb128 0xe
 4733 0095 3A       		.uleb128 0x3a
 4734 0096 0B       		.uleb128 0xb
 4735 0097 3B       		.uleb128 0x3b
 4736 0098 0B       		.uleb128 0xb
 4737 0099 49       		.uleb128 0x49
 4738 009a 13       		.uleb128 0x13
 4739 009b 38       		.uleb128 0x38
 4740 009c 0B       		.uleb128 0xb
 4741 009d 00       		.byte	0
 4742 009e 00       		.byte	0
 4743 009f 0E       		.uleb128 0xe
 4744 00a0 13       		.uleb128 0x13
 4745 00a1 01       		.byte	0x1
 4746 00a2 03       		.uleb128 0x3
 4747 00a3 0E       		.uleb128 0xe
 4748 00a4 0B       		.uleb128 0xb
 4749 00a5 0B       		.uleb128 0xb
 4750 00a6 3A       		.uleb128 0x3a
 4751 00a7 0B       		.uleb128 0xb
 4752 00a8 3B       		.uleb128 0x3b
 4753 00a9 0B       		.uleb128 0xb
 4754 00aa 01       		.uleb128 0x1
 4755 00ab 13       		.uleb128 0x13
 4756 00ac 00       		.byte	0
 4757 00ad 00       		.byte	0
 4758 00ae 0F       		.uleb128 0xf
 4759 00af 0D       		.uleb128 0xd
 4760 00b0 00       		.byte	0
 4761 00b1 03       		.uleb128 0x3
 4762 00b2 0E       		.uleb128 0xe
 4763 00b3 3A       		.uleb128 0x3a
 4764 00b4 0B       		.uleb128 0xb
 4765 00b5 3B       		.uleb128 0x3b
 4766 00b6 05       		.uleb128 0x5
 4767 00b7 49       		.uleb128 0x49
 4768 00b8 13       		.uleb128 0x13
 4769 00b9 38       		.uleb128 0x38
 4770 00ba 0B       		.uleb128 0xb
 4771 00bb 00       		.byte	0
 4772 00bc 00       		.byte	0
 4773 00bd 10       		.uleb128 0x10
 4774 00be 13       		.uleb128 0x13
 4775 00bf 01       		.byte	0x1
 4776 00c0 03       		.uleb128 0x3
 4777 00c1 0E       		.uleb128 0xe
 4778 00c2 0B       		.uleb128 0xb
 4779 00c3 0B       		.uleb128 0xb
 4780 00c4 3A       		.uleb128 0x3a
 4781 00c5 0B       		.uleb128 0xb
 4782 00c6 3B       		.uleb128 0x3b
 4783 00c7 05       		.uleb128 0x5
 4784 00c8 01       		.uleb128 0x1
 4785 00c9 13       		.uleb128 0x13
 4786 00ca 00       		.byte	0
ARM GAS  C:\Users\leoja\AppData\Local\Temp\cc39o2Na.s 			page 91


 4787 00cb 00       		.byte	0
 4788 00cc 11       		.uleb128 0x11
 4789 00cd 0D       		.uleb128 0xd
 4790 00ce 00       		.byte	0
 4791 00cf 03       		.uleb128 0x3
 4792 00d0 08       		.uleb128 0x8
 4793 00d1 3A       		.uleb128 0x3a
 4794 00d2 0B       		.uleb128 0xb
 4795 00d3 3B       		.uleb128 0x3b
 4796 00d4 05       		.uleb128 0x5
 4797 00d5 49       		.uleb128 0x49
 4798 00d6 13       		.uleb128 0x13
 4799 00d7 38       		.uleb128 0x38
 4800 00d8 0B       		.uleb128 0xb
 4801 00d9 00       		.byte	0
 4802 00da 00       		.byte	0
 4803 00db 12       		.uleb128 0x12
 4804 00dc 26       		.uleb128 0x26
 4805 00dd 00       		.byte	0
 4806 00de 49       		.uleb128 0x49
 4807 00df 13       		.uleb128 0x13
 4808 00e0 00       		.byte	0
 4809 00e1 00       		.byte	0
 4810 00e2 13       		.uleb128 0x13
 4811 00e3 15       		.uleb128 0x15
 4812 00e4 01       		.byte	0x1
 4813 00e5 27       		.uleb128 0x27
 4814 00e6 19       		.uleb128 0x19
 4815 00e7 01       		.uleb128 0x1
 4816 00e8 13       		.uleb128 0x13
 4817 00e9 00       		.byte	0
 4818 00ea 00       		.byte	0
 4819 00eb 14       		.uleb128 0x14
 4820 00ec 05       		.uleb128 0x5
 4821 00ed 00       		.byte	0
 4822 00ee 49       		.uleb128 0x49
 4823 00ef 13       		.uleb128 0x13
 4824 00f0 00       		.byte	0
 4825 00f1 00       		.byte	0
 4826 00f2 15       		.uleb128 0x15
 4827 00f3 13       		.uleb128 0x13
 4828 00f4 01       		.byte	0x1
 4829 00f5 0B       		.uleb128 0xb
 4830 00f6 0B       		.uleb128 0xb
 4831 00f7 3A       		.uleb128 0x3a
 4832 00f8 0B       		.uleb128 0xb
 4833 00f9 3B       		.uleb128 0x3b
 4834 00fa 05       		.uleb128 0x5
 4835 00fb 01       		.uleb128 0x1
 4836 00fc 13       		.uleb128 0x13
 4837 00fd 00       		.byte	0
 4838 00fe 00       		.byte	0
 4839 00ff 16       		.uleb128 0x16
 4840 0100 01       		.uleb128 0x1
 4841 0101 01       		.byte	0x1
 4842 0102 49       		.uleb128 0x49
 4843 0103 13       		.uleb128 0x13
ARM GAS  C:\Users\leoja\AppData\Local\Temp\cc39o2Na.s 			page 92


 4844 0104 01       		.uleb128 0x1
 4845 0105 13       		.uleb128 0x13
 4846 0106 00       		.byte	0
 4847 0107 00       		.byte	0
 4848 0108 17       		.uleb128 0x17
 4849 0109 21       		.uleb128 0x21
 4850 010a 00       		.byte	0
 4851 010b 49       		.uleb128 0x49
 4852 010c 13       		.uleb128 0x13
 4853 010d 2F       		.uleb128 0x2f
 4854 010e 0B       		.uleb128 0xb
 4855 010f 00       		.byte	0
 4856 0110 00       		.byte	0
 4857 0111 18       		.uleb128 0x18
 4858 0112 2E       		.uleb128 0x2e
 4859 0113 01       		.byte	0x1
 4860 0114 3F       		.uleb128 0x3f
 4861 0115 19       		.uleb128 0x19
 4862 0116 03       		.uleb128 0x3
 4863 0117 0E       		.uleb128 0xe
 4864 0118 3A       		.uleb128 0x3a
 4865 0119 0B       		.uleb128 0xb
 4866 011a 3B       		.uleb128 0x3b
 4867 011b 0B       		.uleb128 0xb
 4868 011c 11       		.uleb128 0x11
 4869 011d 01       		.uleb128 0x1
 4870 011e 12       		.uleb128 0x12
 4871 011f 06       		.uleb128 0x6
 4872 0120 40       		.uleb128 0x40
 4873 0121 18       		.uleb128 0x18
 4874 0122 9742     		.uleb128 0x2117
 4875 0124 19       		.uleb128 0x19
 4876 0125 01       		.uleb128 0x1
 4877 0126 13       		.uleb128 0x13
 4878 0127 00       		.byte	0
 4879 0128 00       		.byte	0
 4880 0129 19       		.uleb128 0x19
 4881 012a 898201   		.uleb128 0x4109
 4882 012d 01       		.byte	0x1
 4883 012e 11       		.uleb128 0x11
 4884 012f 01       		.uleb128 0x1
 4885 0130 31       		.uleb128 0x31
 4886 0131 13       		.uleb128 0x13
 4887 0132 01       		.uleb128 0x1
 4888 0133 13       		.uleb128 0x13
 4889 0134 00       		.byte	0
 4890 0135 00       		.byte	0
 4891 0136 1A       		.uleb128 0x1a
 4892 0137 8A8201   		.uleb128 0x410a
 4893 013a 00       		.byte	0
 4894 013b 02       		.uleb128 0x2
 4895 013c 18       		.uleb128 0x18
 4896 013d 9142     		.uleb128 0x2111
 4897 013f 18       		.uleb128 0x18
 4898 0140 00       		.byte	0
 4899 0141 00       		.byte	0
 4900 0142 1B       		.uleb128 0x1b
ARM GAS  C:\Users\leoja\AppData\Local\Temp\cc39o2Na.s 			page 93


 4901 0143 898201   		.uleb128 0x4109
 4902 0146 01       		.byte	0x1
 4903 0147 11       		.uleb128 0x11
 4904 0148 01       		.uleb128 0x1
 4905 0149 31       		.uleb128 0x31
 4906 014a 13       		.uleb128 0x13
 4907 014b 00       		.byte	0
 4908 014c 00       		.byte	0
 4909 014d 1C       		.uleb128 0x1c
 4910 014e 2E       		.uleb128 0x2e
 4911 014f 01       		.byte	0x1
 4912 0150 3F       		.uleb128 0x3f
 4913 0151 19       		.uleb128 0x19
 4914 0152 03       		.uleb128 0x3
 4915 0153 0E       		.uleb128 0xe
 4916 0154 3A       		.uleb128 0x3a
 4917 0155 0B       		.uleb128 0xb
 4918 0156 3B       		.uleb128 0x3b
 4919 0157 0B       		.uleb128 0xb
 4920 0158 27       		.uleb128 0x27
 4921 0159 19       		.uleb128 0x19
 4922 015a 11       		.uleb128 0x11
 4923 015b 01       		.uleb128 0x1
 4924 015c 12       		.uleb128 0x12
 4925 015d 06       		.uleb128 0x6
 4926 015e 40       		.uleb128 0x40
 4927 015f 18       		.uleb128 0x18
 4928 0160 9742     		.uleb128 0x2117
 4929 0162 19       		.uleb128 0x19
 4930 0163 01       		.uleb128 0x1
 4931 0164 13       		.uleb128 0x13
 4932 0165 00       		.byte	0
 4933 0166 00       		.byte	0
 4934 0167 1D       		.uleb128 0x1d
 4935 0168 05       		.uleb128 0x5
 4936 0169 00       		.byte	0
 4937 016a 03       		.uleb128 0x3
 4938 016b 0E       		.uleb128 0xe
 4939 016c 3A       		.uleb128 0x3a
 4940 016d 0B       		.uleb128 0xb
 4941 016e 3B       		.uleb128 0x3b
 4942 016f 0B       		.uleb128 0xb
 4943 0170 49       		.uleb128 0x49
 4944 0171 13       		.uleb128 0x13
 4945 0172 02       		.uleb128 0x2
 4946 0173 17       		.uleb128 0x17
 4947 0174 00       		.byte	0
 4948 0175 00       		.byte	0
 4949 0176 1E       		.uleb128 0x1e
 4950 0177 34       		.uleb128 0x34
 4951 0178 00       		.byte	0
 4952 0179 03       		.uleb128 0x3
 4953 017a 0E       		.uleb128 0xe
 4954 017b 3A       		.uleb128 0x3a
 4955 017c 0B       		.uleb128 0xb
 4956 017d 3B       		.uleb128 0x3b
 4957 017e 0B       		.uleb128 0xb
ARM GAS  C:\Users\leoja\AppData\Local\Temp\cc39o2Na.s 			page 94


 4958 017f 49       		.uleb128 0x49
 4959 0180 13       		.uleb128 0x13
 4960 0181 02       		.uleb128 0x2
 4961 0182 17       		.uleb128 0x17
 4962 0183 00       		.byte	0
 4963 0184 00       		.byte	0
 4964 0185 1F       		.uleb128 0x1f
 4965 0186 0B       		.uleb128 0xb
 4966 0187 01       		.byte	0x1
 4967 0188 11       		.uleb128 0x11
 4968 0189 01       		.uleb128 0x1
 4969 018a 12       		.uleb128 0x12
 4970 018b 06       		.uleb128 0x6
 4971 018c 01       		.uleb128 0x1
 4972 018d 13       		.uleb128 0x13
 4973 018e 00       		.byte	0
 4974 018f 00       		.byte	0
 4975 0190 20       		.uleb128 0x20
 4976 0191 34       		.uleb128 0x34
 4977 0192 00       		.byte	0
 4978 0193 03       		.uleb128 0x3
 4979 0194 0E       		.uleb128 0xe
 4980 0195 3A       		.uleb128 0x3a
 4981 0196 0B       		.uleb128 0xb
 4982 0197 3B       		.uleb128 0x3b
 4983 0198 0B       		.uleb128 0xb
 4984 0199 49       		.uleb128 0x49
 4985 019a 13       		.uleb128 0x13
 4986 019b 02       		.uleb128 0x2
 4987 019c 18       		.uleb128 0x18
 4988 019d 00       		.byte	0
 4989 019e 00       		.byte	0
 4990 019f 21       		.uleb128 0x21
 4991 01a0 898201   		.uleb128 0x4109
 4992 01a3 00       		.byte	0
 4993 01a4 11       		.uleb128 0x11
 4994 01a5 01       		.uleb128 0x1
 4995 01a6 31       		.uleb128 0x31
 4996 01a7 13       		.uleb128 0x13
 4997 01a8 00       		.byte	0
 4998 01a9 00       		.byte	0
 4999 01aa 22       		.uleb128 0x22
 5000 01ab 2E       		.uleb128 0x2e
 5001 01ac 01       		.byte	0x1
 5002 01ad 3F       		.uleb128 0x3f
 5003 01ae 19       		.uleb128 0x19
 5004 01af 03       		.uleb128 0x3
 5005 01b0 0E       		.uleb128 0xe
 5006 01b1 3A       		.uleb128 0x3a
 5007 01b2 0B       		.uleb128 0xb
 5008 01b3 3B       		.uleb128 0x3b
 5009 01b4 0B       		.uleb128 0xb
 5010 01b5 27       		.uleb128 0x27
 5011 01b6 19       		.uleb128 0x19
 5012 01b7 11       		.uleb128 0x11
 5013 01b8 01       		.uleb128 0x1
 5014 01b9 12       		.uleb128 0x12
ARM GAS  C:\Users\leoja\AppData\Local\Temp\cc39o2Na.s 			page 95


 5015 01ba 06       		.uleb128 0x6
 5016 01bb 40       		.uleb128 0x40
 5017 01bc 18       		.uleb128 0x18
 5018 01bd 9642     		.uleb128 0x2116
 5019 01bf 19       		.uleb128 0x19
 5020 01c0 01       		.uleb128 0x1
 5021 01c1 13       		.uleb128 0x13
 5022 01c2 00       		.byte	0
 5023 01c3 00       		.byte	0
 5024 01c4 23       		.uleb128 0x23
 5025 01c5 2E       		.uleb128 0x2e
 5026 01c6 01       		.byte	0x1
 5027 01c7 3F       		.uleb128 0x3f
 5028 01c8 19       		.uleb128 0x19
 5029 01c9 03       		.uleb128 0x3
 5030 01ca 0E       		.uleb128 0xe
 5031 01cb 3A       		.uleb128 0x3a
 5032 01cc 0B       		.uleb128 0xb
 5033 01cd 3B       		.uleb128 0x3b
 5034 01ce 05       		.uleb128 0x5
 5035 01cf 27       		.uleb128 0x27
 5036 01d0 19       		.uleb128 0x19
 5037 01d1 11       		.uleb128 0x11
 5038 01d2 01       		.uleb128 0x1
 5039 01d3 12       		.uleb128 0x12
 5040 01d4 06       		.uleb128 0x6
 5041 01d5 40       		.uleb128 0x40
 5042 01d6 18       		.uleb128 0x18
 5043 01d7 9742     		.uleb128 0x2117
 5044 01d9 19       		.uleb128 0x19
 5045 01da 01       		.uleb128 0x1
 5046 01db 13       		.uleb128 0x13
 5047 01dc 00       		.byte	0
 5048 01dd 00       		.byte	0
 5049 01de 24       		.uleb128 0x24
 5050 01df 05       		.uleb128 0x5
 5051 01e0 00       		.byte	0
 5052 01e1 03       		.uleb128 0x3
 5053 01e2 0E       		.uleb128 0xe
 5054 01e3 3A       		.uleb128 0x3a
 5055 01e4 0B       		.uleb128 0xb
 5056 01e5 3B       		.uleb128 0x3b
 5057 01e6 05       		.uleb128 0x5
 5058 01e7 49       		.uleb128 0x49
 5059 01e8 13       		.uleb128 0x13
 5060 01e9 02       		.uleb128 0x2
 5061 01ea 17       		.uleb128 0x17
 5062 01eb 00       		.byte	0
 5063 01ec 00       		.byte	0
 5064 01ed 25       		.uleb128 0x25
 5065 01ee 34       		.uleb128 0x34
 5066 01ef 00       		.byte	0
 5067 01f0 03       		.uleb128 0x3
 5068 01f1 0E       		.uleb128 0xe
 5069 01f2 3A       		.uleb128 0x3a
 5070 01f3 0B       		.uleb128 0xb
 5071 01f4 3B       		.uleb128 0x3b
ARM GAS  C:\Users\leoja\AppData\Local\Temp\cc39o2Na.s 			page 96


 5072 01f5 05       		.uleb128 0x5
 5073 01f6 49       		.uleb128 0x49
 5074 01f7 13       		.uleb128 0x13
 5075 01f8 02       		.uleb128 0x2
 5076 01f9 18       		.uleb128 0x18
 5077 01fa 00       		.byte	0
 5078 01fb 00       		.byte	0
 5079 01fc 26       		.uleb128 0x26
 5080 01fd 0B       		.uleb128 0xb
 5081 01fe 01       		.byte	0x1
 5082 01ff 11       		.uleb128 0x11
 5083 0200 01       		.uleb128 0x1
 5084 0201 12       		.uleb128 0x12
 5085 0202 06       		.uleb128 0x6
 5086 0203 00       		.byte	0
 5087 0204 00       		.byte	0
 5088 0205 27       		.uleb128 0x27
 5089 0206 34       		.uleb128 0x34
 5090 0207 00       		.byte	0
 5091 0208 03       		.uleb128 0x3
 5092 0209 0E       		.uleb128 0xe
 5093 020a 3A       		.uleb128 0x3a
 5094 020b 0B       		.uleb128 0xb
 5095 020c 3B       		.uleb128 0x3b
 5096 020d 0B       		.uleb128 0xb
 5097 020e 49       		.uleb128 0x49
 5098 020f 13       		.uleb128 0x13
 5099 0210 3F       		.uleb128 0x3f
 5100 0211 19       		.uleb128 0x19
 5101 0212 3C       		.uleb128 0x3c
 5102 0213 19       		.uleb128 0x19
 5103 0214 00       		.byte	0
 5104 0215 00       		.byte	0
 5105 0216 28       		.uleb128 0x28
 5106 0217 34       		.uleb128 0x34
 5107 0218 00       		.byte	0
 5108 0219 03       		.uleb128 0x3
 5109 021a 0E       		.uleb128 0xe
 5110 021b 3A       		.uleb128 0x3a
 5111 021c 0B       		.uleb128 0xb
 5112 021d 3B       		.uleb128 0x3b
 5113 021e 0B       		.uleb128 0xb
 5114 021f 49       		.uleb128 0x49
 5115 0220 13       		.uleb128 0x13
 5116 0221 3F       		.uleb128 0x3f
 5117 0222 19       		.uleb128 0x19
 5118 0223 02       		.uleb128 0x2
 5119 0224 18       		.uleb128 0x18
 5120 0225 00       		.byte	0
 5121 0226 00       		.byte	0
 5122 0227 29       		.uleb128 0x29
 5123 0228 2E       		.uleb128 0x2e
 5124 0229 00       		.byte	0
 5125 022a 3F       		.uleb128 0x3f
 5126 022b 19       		.uleb128 0x19
 5127 022c 3C       		.uleb128 0x3c
 5128 022d 19       		.uleb128 0x19
ARM GAS  C:\Users\leoja\AppData\Local\Temp\cc39o2Na.s 			page 97


 5129 022e 6E       		.uleb128 0x6e
 5130 022f 0E       		.uleb128 0xe
 5131 0230 03       		.uleb128 0x3
 5132 0231 0E       		.uleb128 0xe
 5133 0232 3A       		.uleb128 0x3a
 5134 0233 0B       		.uleb128 0xb
 5135 0234 3B       		.uleb128 0x3b
 5136 0235 05       		.uleb128 0x5
 5137 0236 00       		.byte	0
 5138 0237 00       		.byte	0
 5139 0238 2A       		.uleb128 0x2a
 5140 0239 2E       		.uleb128 0x2e
 5141 023a 00       		.byte	0
 5142 023b 3F       		.uleb128 0x3f
 5143 023c 19       		.uleb128 0x19
 5144 023d 3C       		.uleb128 0x3c
 5145 023e 19       		.uleb128 0x19
 5146 023f 6E       		.uleb128 0x6e
 5147 0240 0E       		.uleb128 0xe
 5148 0241 03       		.uleb128 0x3
 5149 0242 0E       		.uleb128 0xe
 5150 0243 3A       		.uleb128 0x3a
 5151 0244 0B       		.uleb128 0xb
 5152 0245 3B       		.uleb128 0x3b
 5153 0246 0B       		.uleb128 0xb
 5154 0247 00       		.byte	0
 5155 0248 00       		.byte	0
 5156 0249 00       		.byte	0
 5157              		.section	.debug_loc,"",%progbits
 5158              	.Ldebug_loc0:
 5159              	.LLST0:
 5160 0000 00000000 		.4byte	.LVL13
 5161 0004 08000000 		.4byte	.LVL14
 5162 0008 0100     		.2byte	0x1
 5163 000a 50       		.byte	0x50
 5164 000b 08000000 		.4byte	.LVL14
 5165 000f 04010000 		.4byte	.LFE37
 5166 0013 0400     		.2byte	0x4
 5167 0015 F3       		.byte	0xf3
 5168 0016 01       		.uleb128 0x1
 5169 0017 50       		.byte	0x50
 5170 0018 9F       		.byte	0x9f
 5171 0019 00000000 		.4byte	0
 5172 001d 00000000 		.4byte	0
 5173              	.LLST1:
 5174 0021 10000000 		.4byte	.LVL16
 5175 0025 44000000 		.4byte	.LVL19
 5176 0029 0400     		.2byte	0x4
 5177 002b 0A       		.byte	0xa
 5178 002c 00FF     		.2byte	0xff00
 5179 002e 9F       		.byte	0x9f
 5180 002f 70000000 		.4byte	.LVL21
 5181 0033 A4000000 		.4byte	.LVL24
 5182 0037 0100     		.2byte	0x1
 5183 0039 54       		.byte	0x54
 5184 003a AE000000 		.4byte	.LVL25
 5185 003e DC000000 		.4byte	.LVL28
ARM GAS  C:\Users\leoja\AppData\Local\Temp\cc39o2Na.s 			page 98


 5186 0042 0500     		.2byte	0x5
 5187 0044 08       		.byte	0x8
 5188 0045 FF       		.byte	0xff
 5189 0046 40       		.byte	0x40
 5190 0047 24       		.byte	0x24
 5191 0048 9F       		.byte	0x9f
 5192 0049 00000000 		.4byte	0
 5193 004d 00000000 		.4byte	0
 5194              	.LLST2:
 5195 0051 00000000 		.4byte	.LVL30
 5196 0055 26000000 		.4byte	.LVL32
 5197 0059 0100     		.2byte	0x1
 5198 005b 50       		.byte	0x50
 5199 005c 26000000 		.4byte	.LVL32
 5200 0060 3E000000 		.4byte	.LVL35
 5201 0064 0400     		.2byte	0x4
 5202 0066 F3       		.byte	0xf3
 5203 0067 01       		.uleb128 0x1
 5204 0068 50       		.byte	0x50
 5205 0069 9F       		.byte	0x9f
 5206 006a 3E000000 		.4byte	.LVL35
 5207 006e 4A000000 		.4byte	.LVL36
 5208 0072 0100     		.2byte	0x1
 5209 0074 50       		.byte	0x50
 5210 0075 4A000000 		.4byte	.LVL36
 5211 0079 B4000000 		.4byte	.LFE38
 5212 007d 0400     		.2byte	0x4
 5213 007f F3       		.byte	0xf3
 5214 0080 01       		.uleb128 0x1
 5215 0081 50       		.byte	0x50
 5216 0082 9F       		.byte	0x9f
 5217 0083 00000000 		.4byte	0
 5218 0087 00000000 		.4byte	0
 5219              	.LLST3:
 5220 008b 12000000 		.4byte	.LVL31
 5221 008f 3E000000 		.4byte	.LVL35
 5222 0093 0500     		.2byte	0x5
 5223 0095 08       		.byte	0x8
 5224 0096 FF       		.byte	0xff
 5225 0097 40       		.byte	0x40
 5226 0098 24       		.byte	0x24
 5227 0099 9F       		.byte	0x9f
 5228 009a 4A000000 		.4byte	.LVL36
 5229 009e 98000000 		.4byte	.LVL42
 5230 00a2 0100     		.2byte	0x1
 5231 00a4 55       		.byte	0x55
 5232 00a5 00000000 		.4byte	0
 5233 00a9 00000000 		.4byte	0
 5234              	.LLST4:
 5235 00ad 00000000 		.4byte	.LVL43
 5236 00b1 36000000 		.4byte	.LVL48
 5237 00b5 0100     		.2byte	0x1
 5238 00b7 50       		.byte	0x50
 5239 00b8 36000000 		.4byte	.LVL48
 5240 00bc 50000000 		.4byte	.LVL51
 5241 00c0 0400     		.2byte	0x4
 5242 00c2 F3       		.byte	0xf3
ARM GAS  C:\Users\leoja\AppData\Local\Temp\cc39o2Na.s 			page 99


 5243 00c3 01       		.uleb128 0x1
 5244 00c4 50       		.byte	0x50
 5245 00c5 9F       		.byte	0x9f
 5246 00c6 50000000 		.4byte	.LVL51
 5247 00ca 68000000 		.4byte	.LVL52
 5248 00ce 0100     		.2byte	0x1
 5249 00d0 50       		.byte	0x50
 5250 00d1 68000000 		.4byte	.LVL52
 5251 00d5 84000000 		.4byte	.LVL55
 5252 00d9 0400     		.2byte	0x4
 5253 00db F3       		.byte	0xf3
 5254 00dc 01       		.uleb128 0x1
 5255 00dd 50       		.byte	0x50
 5256 00de 9F       		.byte	0x9f
 5257 00df 84000000 		.4byte	.LVL55
 5258 00e3 9C000000 		.4byte	.LVL56
 5259 00e7 0100     		.2byte	0x1
 5260 00e9 50       		.byte	0x50
 5261 00ea 9C000000 		.4byte	.LVL56
 5262 00ee B8000000 		.4byte	.LVL59
 5263 00f2 0400     		.2byte	0x4
 5264 00f4 F3       		.byte	0xf3
 5265 00f5 01       		.uleb128 0x1
 5266 00f6 50       		.byte	0x50
 5267 00f7 9F       		.byte	0x9f
 5268 00f8 B8000000 		.4byte	.LVL59
 5269 00fc D0000000 		.4byte	.LVL60
 5270 0100 0100     		.2byte	0x1
 5271 0102 50       		.byte	0x50
 5272 0103 D0000000 		.4byte	.LVL60
 5273 0107 EC000000 		.4byte	.LVL63
 5274 010b 0400     		.2byte	0x4
 5275 010d F3       		.byte	0xf3
 5276 010e 01       		.uleb128 0x1
 5277 010f 50       		.byte	0x50
 5278 0110 9F       		.byte	0x9f
 5279 0111 EC000000 		.4byte	.LVL63
 5280 0115 04010000 		.4byte	.LVL64
 5281 0119 0100     		.2byte	0x1
 5282 011b 50       		.byte	0x50
 5283 011c 04010000 		.4byte	.LVL64
 5284 0120 20010000 		.4byte	.LVL67
 5285 0124 0400     		.2byte	0x4
 5286 0126 F3       		.byte	0xf3
 5287 0127 01       		.uleb128 0x1
 5288 0128 50       		.byte	0x50
 5289 0129 9F       		.byte	0x9f
 5290 012a 20010000 		.4byte	.LVL67
 5291 012e 38010000 		.4byte	.LVL68
 5292 0132 0100     		.2byte	0x1
 5293 0134 50       		.byte	0x50
 5294 0135 38010000 		.4byte	.LVL68
 5295 0139 54010000 		.4byte	.LVL71
 5296 013d 0400     		.2byte	0x4
 5297 013f F3       		.byte	0xf3
 5298 0140 01       		.uleb128 0x1
 5299 0141 50       		.byte	0x50
ARM GAS  C:\Users\leoja\AppData\Local\Temp\cc39o2Na.s 			page 100


 5300 0142 9F       		.byte	0x9f
 5301 0143 54010000 		.4byte	.LVL71
 5302 0147 6A010000 		.4byte	.LVL72
 5303 014b 0100     		.2byte	0x1
 5304 014d 50       		.byte	0x50
 5305 014e 6A010000 		.4byte	.LVL72
 5306 0152 84010000 		.4byte	.LVL75
 5307 0156 0400     		.2byte	0x4
 5308 0158 F3       		.byte	0xf3
 5309 0159 01       		.uleb128 0x1
 5310 015a 50       		.byte	0x50
 5311 015b 9F       		.byte	0x9f
 5312 015c 84010000 		.4byte	.LVL75
 5313 0160 9C010000 		.4byte	.LVL76
 5314 0164 0100     		.2byte	0x1
 5315 0166 50       		.byte	0x50
 5316 0167 9C010000 		.4byte	.LVL76
 5317 016b B8010000 		.4byte	.LVL79
 5318 016f 0400     		.2byte	0x4
 5319 0171 F3       		.byte	0xf3
 5320 0172 01       		.uleb128 0x1
 5321 0173 50       		.byte	0x50
 5322 0174 9F       		.byte	0x9f
 5323 0175 B8010000 		.4byte	.LVL79
 5324 0179 D0010000 		.4byte	.LVL80
 5325 017d 0100     		.2byte	0x1
 5326 017f 50       		.byte	0x50
 5327 0180 D0010000 		.4byte	.LVL80
 5328 0184 78020000 		.4byte	.LFE39
 5329 0188 0400     		.2byte	0x4
 5330 018a F3       		.byte	0xf3
 5331 018b 01       		.uleb128 0x1
 5332 018c 50       		.byte	0x50
 5333 018d 9F       		.byte	0x9f
 5334 018e 00000000 		.4byte	0
 5335 0192 00000000 		.4byte	0
 5336              	.LLST5:
 5337 0196 20000000 		.4byte	.LVL47
 5338 019a 50000000 		.4byte	.LVL51
 5339 019e 0600     		.2byte	0x6
 5340 01a0 0C       		.byte	0xc
 5341 01a1 00FFFF00 		.4byte	0xffff00
 5342 01a5 9F       		.byte	0x9f
 5343 01a6 50000000 		.4byte	.LVL51
 5344 01aa 54010000 		.4byte	.LVL71
 5345 01ae 0500     		.2byte	0x5
 5346 01b0 08       		.byte	0x8
 5347 01b1 FF       		.byte	0xff
 5348 01b2 40       		.byte	0x40
 5349 01b3 24       		.byte	0x24
 5350 01b4 9F       		.byte	0x9f
 5351 01b5 54010000 		.4byte	.LVL71
 5352 01b9 84010000 		.4byte	.LVL75
 5353 01bd 0600     		.2byte	0x6
 5354 01bf 0C       		.byte	0xc
 5355 01c0 00FFFF00 		.4byte	0xffff00
 5356 01c4 9F       		.byte	0x9f
ARM GAS  C:\Users\leoja\AppData\Local\Temp\cc39o2Na.s 			page 101


 5357 01c5 84010000 		.4byte	.LVL75
 5358 01c9 B8010000 		.4byte	.LVL79
 5359 01cd 0500     		.2byte	0x5
 5360 01cf 08       		.byte	0x8
 5361 01d0 FF       		.byte	0xff
 5362 01d1 40       		.byte	0x40
 5363 01d2 24       		.byte	0x24
 5364 01d3 9F       		.byte	0x9f
 5365 01d4 B8010000 		.4byte	.LVL79
 5366 01d8 38020000 		.4byte	.LVL85
 5367 01dc 0400     		.2byte	0x4
 5368 01de 0A       		.byte	0xa
 5369 01df 00FF     		.2byte	0xff00
 5370 01e1 9F       		.byte	0x9f
 5371 01e2 00000000 		.4byte	0
 5372 01e6 00000000 		.4byte	0
 5373              	.LLST6:
 5374 01ea 12000000 		.4byte	.LVL44
 5375 01ee 1A000000 		.4byte	.LVL45
 5376 01f2 0100     		.2byte	0x1
 5377 01f4 54       		.byte	0x54
 5378 01f5 1A000000 		.4byte	.LVL45
 5379 01f9 1C000000 		.4byte	.LVL46
 5380 01fd 0600     		.2byte	0x6
 5381 01ff 70       		.byte	0x70
 5382 0200 00       		.sleb128 0
 5383 0201 73       		.byte	0x73
 5384 0202 00       		.sleb128 0
 5385 0203 1A       		.byte	0x1a
 5386 0204 9F       		.byte	0x9f
 5387 0205 1C000000 		.4byte	.LVL46
 5388 0209 36000000 		.4byte	.LVL48
 5389 020d 0600     		.2byte	0x6
 5390 020f 70       		.byte	0x70
 5391 0210 00       		.sleb128 0
 5392 0211 08       		.byte	0x8
 5393 0212 7F       		.byte	0x7f
 5394 0213 1A       		.byte	0x1a
 5395 0214 9F       		.byte	0x9f
 5396 0215 50000000 		.4byte	.LVL51
 5397 0219 68000000 		.4byte	.LVL52
 5398 021d 0600     		.2byte	0x6
 5399 021f 70       		.byte	0x70
 5400 0220 00       		.sleb128 0
 5401 0221 08       		.byte	0x8
 5402 0222 7F       		.byte	0x7f
 5403 0223 1A       		.byte	0x1a
 5404 0224 9F       		.byte	0x9f
 5405 0225 84000000 		.4byte	.LVL55
 5406 0229 9C000000 		.4byte	.LVL56
 5407 022d 0600     		.2byte	0x6
 5408 022f 70       		.byte	0x70
 5409 0230 00       		.sleb128 0
 5410 0231 08       		.byte	0x8
 5411 0232 7F       		.byte	0x7f
 5412 0233 1A       		.byte	0x1a
 5413 0234 9F       		.byte	0x9f
ARM GAS  C:\Users\leoja\AppData\Local\Temp\cc39o2Na.s 			page 102


 5414 0235 B8000000 		.4byte	.LVL59
 5415 0239 D0000000 		.4byte	.LVL60
 5416 023d 0600     		.2byte	0x6
 5417 023f 70       		.byte	0x70
 5418 0240 00       		.sleb128 0
 5419 0241 08       		.byte	0x8
 5420 0242 7F       		.byte	0x7f
 5421 0243 1A       		.byte	0x1a
 5422 0244 9F       		.byte	0x9f
 5423 0245 EC000000 		.4byte	.LVL63
 5424 0249 04010000 		.4byte	.LVL64
 5425 024d 0600     		.2byte	0x6
 5426 024f 70       		.byte	0x70
 5427 0250 00       		.sleb128 0
 5428 0251 08       		.byte	0x8
 5429 0252 7F       		.byte	0x7f
 5430 0253 1A       		.byte	0x1a
 5431 0254 9F       		.byte	0x9f
 5432 0255 20010000 		.4byte	.LVL67
 5433 0259 38010000 		.4byte	.LVL68
 5434 025d 0600     		.2byte	0x6
 5435 025f 70       		.byte	0x70
 5436 0260 00       		.sleb128 0
 5437 0261 08       		.byte	0x8
 5438 0262 7F       		.byte	0x7f
 5439 0263 1A       		.byte	0x1a
 5440 0264 9F       		.byte	0x9f
 5441 0265 54010000 		.4byte	.LVL71
 5442 0269 6A010000 		.4byte	.LVL72
 5443 026d 0600     		.2byte	0x6
 5444 026f 70       		.byte	0x70
 5445 0270 00       		.sleb128 0
 5446 0271 08       		.byte	0x8
 5447 0272 7F       		.byte	0x7f
 5448 0273 1A       		.byte	0x1a
 5449 0274 9F       		.byte	0x9f
 5450 0275 84010000 		.4byte	.LVL75
 5451 0279 9C010000 		.4byte	.LVL76
 5452 027d 0600     		.2byte	0x6
 5453 027f 70       		.byte	0x70
 5454 0280 00       		.sleb128 0
 5455 0281 08       		.byte	0x8
 5456 0282 7F       		.byte	0x7f
 5457 0283 1A       		.byte	0x1a
 5458 0284 9F       		.byte	0x9f
 5459 0285 00000000 		.4byte	0
 5460 0289 00000000 		.4byte	0
 5461              	.LLST7:
 5462 028d 00000000 		.4byte	.LVL86
 5463 0291 08000000 		.4byte	.LVL87
 5464 0295 0100     		.2byte	0x1
 5465 0297 50       		.byte	0x50
 5466 0298 08000000 		.4byte	.LVL87
 5467 029c 0F000000 		.4byte	.LVL88-1
 5468 02a0 0100     		.2byte	0x1
 5469 02a2 50       		.byte	0x50
 5470 02a3 0F000000 		.4byte	.LVL88-1
ARM GAS  C:\Users\leoja\AppData\Local\Temp\cc39o2Na.s 			page 103


 5471 02a7 10000000 		.4byte	.LVL88
 5472 02ab 0800     		.2byte	0x8
 5473 02ad F3       		.byte	0xf3
 5474 02ae 01       		.uleb128 0x1
 5475 02af 50       		.byte	0x50
 5476 02b0 0A       		.byte	0xa
 5477 02b1 5B03     		.2byte	0x35b
 5478 02b3 1E       		.byte	0x1e
 5479 02b4 9F       		.byte	0x9f
 5480 02b5 10000000 		.4byte	.LVL88
 5481 02b9 12000000 		.4byte	.LVL89
 5482 02bd 0100     		.2byte	0x1
 5483 02bf 50       		.byte	0x50
 5484 02c0 12000000 		.4byte	.LVL89
 5485 02c4 14000000 		.4byte	.LVL90
 5486 02c8 0300     		.2byte	0x3
 5487 02ca 70       		.byte	0x70
 5488 02cb 6E       		.sleb128 -18
 5489 02cc 9F       		.byte	0x9f
 5490 02cd 14000000 		.4byte	.LVL90
 5491 02d1 4C000000 		.4byte	.LVL92
 5492 02d5 0100     		.2byte	0x1
 5493 02d7 50       		.byte	0x50
 5494 02d8 4C000000 		.4byte	.LVL92
 5495 02dc 98000000 		.4byte	.LVL96
 5496 02e0 0100     		.2byte	0x1
 5497 02e2 54       		.byte	0x54
 5498 02e3 00000000 		.4byte	0
 5499 02e7 00000000 		.4byte	0
 5500              	.LLST8:
 5501 02eb 38000000 		.4byte	.LVL91
 5502 02ef 98000000 		.4byte	.LVL97
 5503 02f3 0100     		.2byte	0x1
 5504 02f5 55       		.byte	0x55
 5505 02f6 00000000 		.4byte	0
 5506 02fa 00000000 		.4byte	0
 5507              	.LLST9:
 5508 02fe 00000000 		.4byte	.LVL98
 5509 0302 1A000000 		.4byte	.LVL99
 5510 0306 0100     		.2byte	0x1
 5511 0308 50       		.byte	0x50
 5512 0309 1A000000 		.4byte	.LVL99
 5513 030d 44000000 		.4byte	.LVL103
 5514 0311 0400     		.2byte	0x4
 5515 0313 F3       		.byte	0xf3
 5516 0314 01       		.uleb128 0x1
 5517 0315 50       		.byte	0x50
 5518 0316 9F       		.byte	0x9f
 5519 0317 44000000 		.4byte	.LVL103
 5520 031b 54000000 		.4byte	.LVL104
 5521 031f 0100     		.2byte	0x1
 5522 0321 50       		.byte	0x50
 5523 0322 54000000 		.4byte	.LVL104
 5524 0326 84000000 		.4byte	.LFE41
 5525 032a 0400     		.2byte	0x4
 5526 032c F3       		.byte	0xf3
 5527 032d 01       		.uleb128 0x1
ARM GAS  C:\Users\leoja\AppData\Local\Temp\cc39o2Na.s 			page 104


 5528 032e 50       		.byte	0x50
 5529 032f 9F       		.byte	0x9f
 5530 0330 00000000 		.4byte	0
 5531 0334 00000000 		.4byte	0
 5532              	.LLST10:
 5533 0338 00000000 		.4byte	.LVL108
 5534 033c 1C000000 		.4byte	.LVL109
 5535 0340 0100     		.2byte	0x1
 5536 0342 50       		.byte	0x50
 5537 0343 1C000000 		.4byte	.LVL109
 5538 0347 46000000 		.4byte	.LVL113
 5539 034b 0400     		.2byte	0x4
 5540 034d F3       		.byte	0xf3
 5541 034e 01       		.uleb128 0x1
 5542 034f 50       		.byte	0x50
 5543 0350 9F       		.byte	0x9f
 5544 0351 46000000 		.4byte	.LVL113
 5545 0355 58000000 		.4byte	.LVL114
 5546 0359 0100     		.2byte	0x1
 5547 035b 50       		.byte	0x50
 5548 035c 58000000 		.4byte	.LVL114
 5549 0360 88000000 		.4byte	.LFE42
 5550 0364 0400     		.2byte	0x4
 5551 0366 F3       		.byte	0xf3
 5552 0367 01       		.uleb128 0x1
 5553 0368 50       		.byte	0x50
 5554 0369 9F       		.byte	0x9f
 5555 036a 00000000 		.4byte	0
 5556 036e 00000000 		.4byte	0
 5557              		.section	.debug_aranges,"",%progbits
 5558 0000 54000000 		.4byte	0x54
 5559 0004 0200     		.2byte	0x2
 5560 0006 00000000 		.4byte	.Ldebug_info0
 5561 000a 04       		.byte	0x4
 5562 000b 00       		.byte	0
 5563 000c 0000     		.2byte	0
 5564 000e 0000     		.2byte	0
 5565 0010 00000000 		.4byte	.LFB35
 5566 0014 74000000 		.4byte	.LFE35-.LFB35
 5567 0018 00000000 		.4byte	.LFB36
 5568 001c 64000000 		.4byte	.LFE36-.LFB36
 5569 0020 00000000 		.4byte	.LFB37
 5570 0024 04010000 		.4byte	.LFE37-.LFB37
 5571 0028 00000000 		.4byte	.LFB38
 5572 002c B4000000 		.4byte	.LFE38-.LFB38
 5573 0030 00000000 		.4byte	.LFB39
 5574 0034 78020000 		.4byte	.LFE39-.LFB39
 5575 0038 00000000 		.4byte	.LFB40
 5576 003c C0000000 		.4byte	.LFE40-.LFB40
 5577 0040 00000000 		.4byte	.LFB41
 5578 0044 84000000 		.4byte	.LFE41-.LFB41
 5579 0048 00000000 		.4byte	.LFB42
 5580 004c 88000000 		.4byte	.LFE42-.LFB42
 5581 0050 00000000 		.4byte	0
 5582 0054 00000000 		.4byte	0
 5583              		.section	.debug_ranges,"",%progbits
 5584              	.Ldebug_ranges0:
ARM GAS  C:\Users\leoja\AppData\Local\Temp\cc39o2Na.s 			page 105


 5585 0000 00000000 		.4byte	.LFB35
 5586 0004 74000000 		.4byte	.LFE35
 5587 0008 00000000 		.4byte	.LFB36
 5588 000c 64000000 		.4byte	.LFE36
 5589 0010 00000000 		.4byte	.LFB37
 5590 0014 04010000 		.4byte	.LFE37
 5591 0018 00000000 		.4byte	.LFB38
 5592 001c B4000000 		.4byte	.LFE38
 5593 0020 00000000 		.4byte	.LFB39
 5594 0024 78020000 		.4byte	.LFE39
 5595 0028 00000000 		.4byte	.LFB40
 5596 002c C0000000 		.4byte	.LFE40
 5597 0030 00000000 		.4byte	.LFB41
 5598 0034 84000000 		.4byte	.LFE41
 5599 0038 00000000 		.4byte	.LFB42
 5600 003c 88000000 		.4byte	.LFE42
 5601 0040 00000000 		.4byte	0
 5602 0044 00000000 		.4byte	0
 5603              		.section	.debug_line,"",%progbits
 5604              	.Ldebug_line0:
 5605 0000 39030000 		.section	.debug_str,"MS",%progbits,1
 5605      02000F02 
 5605      00000201 
 5605      FB0E0D00 
 5605      01010101 
 5606              	.LASF123:
 5607 0000 43794465 		.ascii	"CyDelay\000"
 5607      6C617900 
 5608              	.LASF104:
 5609 0008 64617461 		.ascii	"data_s\000"
 5609      5F7300
 5610              	.LASF43:
 5611 000f 464F4E54 		.ascii	"FONT_TYPE_8BPP\000"
 5611      5F545950 
 5611      455F3842 
 5611      505000
 5612              	.LASF99:
 5613 001e 6465736B 		.ascii	"desktop_color\000"
 5613      746F705F 
 5613      636F6C6F 
 5613      7200
 5614              	.LASF54:
 5615 002c 746F7563 		.ascii	"touch_state\000"
 5615      685F7374 
 5615      61746500 
 5616              	.LASF68:
 5617 0038 55475F43 		.ascii	"UG_COLOR\000"
 5617      4F4C4F52 
 5617      00
 5618              	.LASF39:
 5619 0041 55475F55 		.ascii	"UG_U16\000"
 5619      313600
 5620              	.LASF13:
 5621 0048 756E7369 		.ascii	"unsigned int\000"
 5621      676E6564 
 5621      20696E74 
 5621      00
ARM GAS  C:\Users\leoja\AppData\Local\Temp\cc39o2Na.s 			page 106


 5622              	.LASF98:
 5623 0055 63686172 		.ascii	"char_v_space\000"
 5623      5F765F73 
 5623      70616365 
 5623      00
 5624              	.LASF82:
 5625 0062 795F706F 		.ascii	"y_pos\000"
 5625      7300
 5626              	.LASF29:
 5627 0068 4E4F4E45 		.ascii	"NONE\000"
 5627      00
 5628              	.LASF96:
 5629 006d 636F6E73 		.ascii	"console\000"
 5629      6F6C6500 
 5630              	.LASF63:
 5631 0075 535F5749 		.ascii	"S_WINDOW\000"
 5631      4E444F57 
 5631      00
 5632              	.LASF34:
 5633 007e 53454E53 		.ascii	"SENSOR_DISCREPANCY\000"
 5633      4F525F44 
 5633      49534352 
 5633      4550414E 
 5633      435900
 5634              	.LASF55:
 5635 0091 75706461 		.ascii	"update\000"
 5635      746500
 5636              	.LASF91:
 5637 0098 795F6469 		.ascii	"y_dim\000"
 5637      6D00
 5638              	.LASF44:
 5639 009e 464F4E54 		.ascii	"FONT_TYPE\000"
 5639      5F545950 
 5639      4500
 5640              	.LASF35:
 5641 00a8 4252414B 		.ascii	"BRAKE_IMPLAUSIBLE\000"
 5641      455F494D 
 5641      504C4155 
 5641      5349424C 
 5641      4500
 5642              	.LASF122:
 5643 00ba 55475F46 		.ascii	"UG_FillFrame\000"
 5643      696C6C46 
 5643      72616D65 
 5643      00
 5644              	.LASF65:
 5645 00c7 6F626A6C 		.ascii	"objlst\000"
 5645      737400
 5646              	.LASF93:
 5647 00ce 6E657874 		.ascii	"next_window\000"
 5647      5F77696E 
 5647      646F7700 
 5648              	.LASF67:
 5649 00da 7469746C 		.ascii	"title\000"
 5649      6500
 5650              	.LASF18:
 5651 00e0 75696E74 		.ascii	"uint32_t\000"
ARM GAS  C:\Users\leoja\AppData\Local\Temp\cc39o2Na.s 			page 107


 5651      33325F74 
 5651      00
 5652              	.LASF14:
 5653 00e9 696E7438 		.ascii	"int8_t\000"
 5653      5F7400
 5654              	.LASF41:
 5655 00f0 55475F55 		.ascii	"UG_U32\000"
 5655      333200
 5656              	.LASF85:
 5657 00f7 785F656E 		.ascii	"x_end\000"
 5657      6400
 5658              	.LASF20:
 5659 00fd 666C6F61 		.ascii	"float\000"
 5659      7400
 5660              	.LASF59:
 5661 0103 6576656E 		.ascii	"event\000"
 5661      7400
 5662              	.LASF95:
 5663 0109 6C617374 		.ascii	"last_window\000"
 5663      5F77696E 
 5663      646F7700 
 5664              	.LASF88:
 5665 0115 6261636B 		.ascii	"back_color\000"
 5665      5F636F6C 
 5665      6F7200
 5666              	.LASF27:
 5667 0120 44524956 		.ascii	"DRIVE\000"
 5667      4500
 5668              	.LASF16:
 5669 0126 696E7431 		.ascii	"int16_t\000"
 5669      365F7400 
 5670              	.LASF112:
 5671 012e 464F4E54 		.ascii	"FONT_12X16\000"
 5671      5F313258 
 5671      313600
 5672              	.LASF12:
 5673 0139 6C6F6E67 		.ascii	"long long unsigned int\000"
 5673      206C6F6E 
 5673      6720756E 
 5673      7369676E 
 5673      65642069 
 5674              	.LASF101:
 5675 0150 63616C69 		.ascii	"calibrateScreen\000"
 5675      62726174 
 5675      65536372 
 5675      65656E00 
 5676              	.LASF6:
 5677 0160 5F5F7569 		.ascii	"__uint16_t\000"
 5677      6E743136 
 5677      5F7400
 5678              	.LASF94:
 5679 016b 61637469 		.ascii	"active_window\000"
 5679      76655F77 
 5679      696E646F 
 5679      7700
 5680              	.LASF64:
 5681 0179 6F626A63 		.ascii	"objcnt\000"
ARM GAS  C:\Users\leoja\AppData\Local\Temp\cc39o2Na.s 			page 108


 5681      6E7400
 5682              	.LASF40:
 5683 0180 55475F53 		.ascii	"UG_S16\000"
 5683      313600
 5684              	.LASF87:
 5685 0187 666F7265 		.ascii	"fore_color\000"
 5685      5F636F6C 
 5685      6F7200
 5686              	.LASF128:
 5687 0192 474E5520 		.ascii	"GNU C11 5.4.1 20160609 (release) [ARM/embedded-5-br"
 5687      43313120 
 5687      352E342E 
 5687      31203230 
 5687      31363036 
 5688 01c5 616E6368 		.ascii	"anch revision 237715] -mcpu=cortex-m0 -mthumb -g -O"
 5688      20726576 
 5688      6973696F 
 5688      6E203233 
 5688      37373135 
 5689 01f8 67202D66 		.ascii	"g -ffunction-sections -ffat-lto-objects\000"
 5689      66756E63 
 5689      74696F6E 
 5689      2D736563 
 5689      74696F6E 
 5690              	.LASF103:
 5691 0220 636F6C6F 		.ascii	"color\000"
 5691      7200
 5692              	.LASF126:
 5693 0226 55475F50 		.ascii	"UG_PutColorString\000"
 5693      7574436F 
 5693      6C6F7253 
 5693      7472696E 
 5693      6700
 5694              	.LASF32:
 5695 0238 4252414B 		.ascii	"BRAKE_NOT_PRESSED\000"
 5695      455F4E4F 
 5695      545F5052 
 5695      45535345 
 5695      4400
 5696              	.LASF121:
 5697 024a 55475F46 		.ascii	"UG_FillScreen\000"
 5697      696C6C53 
 5697      63726565 
 5697      6E00
 5698              	.LASF115:
 5699 0258 6C617374 		.ascii	"last_SOC_color\000"
 5699      5F534F43 
 5699      5F636F6C 
 5699      6F7200
 5700              	.LASF46:
 5701 0267 63686172 		.ascii	"char_width\000"
 5701      5F776964 
 5701      746800
 5702              	.LASF33:
 5703 0272 48565F44 		.ascii	"HV_DISABLED_WHILE_DRIVING\000"
 5703      49534142 
 5703      4C45445F 
ARM GAS  C:\Users\leoja\AppData\Local\Temp\cc39o2Na.s 			page 109


 5703      5748494C 
 5703      455F4452 
 5704              	.LASF36:
 5705 028c 4553544F 		.ascii	"ESTOP\000"
 5705      5000
 5706              	.LASF109:
 5707 0292 64697370 		.ascii	"disp_glv_v\000"
 5707      5F676C76 
 5707      5F7600
 5708              	.LASF120:
 5709 029d 6C617374 		.ascii	"last_motor_temp_color\000"
 5709      5F6D6F74 
 5709      6F725F74 
 5709      656D705F 
 5709      636F6C6F 
 5710              	.LASF26:
 5711 02b3 48565F45 		.ascii	"HV_ENABLED\000"
 5711      4E41424C 
 5711      454400
 5712              	.LASF84:
 5713 02be 795F7374 		.ascii	"y_start\000"
 5713      61727400 
 5714              	.LASF75:
 5715 02c6 765F7370 		.ascii	"v_space\000"
 5715      61636500 
 5716              	.LASF22:
 5717 02ce 63686172 		.ascii	"char\000"
 5717      00
 5718              	.LASF31:
 5719 02d3 434F4E53 		.ascii	"CONSERVATIVE_TIMER_MAXED\000"
 5719      45525641 
 5719      54495645 
 5719      5F54494D 
 5719      45525F4D 
 5720              	.LASF45:
 5721 02ec 666F6E74 		.ascii	"font_type\000"
 5721      5F747970 
 5721      6500
 5722              	.LASF69:
 5723 02f6 55475F41 		.ascii	"UG_AREA\000"
 5723      52454100 
 5724              	.LASF71:
 5725 02fe 55475F4D 		.ascii	"UG_MESSAGE\000"
 5725      45535341 
 5725      474500
 5726              	.LASF60:
 5727 0309 64617461 		.ascii	"data\000"
 5727      00
 5728              	.LASF15:
 5729 030e 75696E74 		.ascii	"uint8_t\000"
 5729      385F7400 
 5730              	.LASF92:
 5731 0316 746F7563 		.ascii	"touch\000"
 5731      6800
 5732              	.LASF79:
 5733 031c 64726976 		.ascii	"driver\000"
 5733      657200
ARM GAS  C:\Users\leoja\AppData\Local\Temp\cc39o2Na.s 			page 110


 5734              	.LASF38:
 5735 0323 55475F53 		.ascii	"UG_S8\000"
 5735      3800
 5736              	.LASF90:
 5737 0329 785F6469 		.ascii	"x_dim\000"
 5737      6D00
 5738              	.LASF11:
 5739 032f 6C6F6E67 		.ascii	"long long int\000"
 5739      206C6F6E 
 5739      6720696E 
 5739      7400
 5740              	.LASF116:
 5741 033d 6C617374 		.ascii	"last_max_pack_temp_color\000"
 5741      5F6D6178 
 5741      5F706163 
 5741      6B5F7465 
 5741      6D705F63 
 5742              	.LASF4:
 5743 0356 5F5F696E 		.ascii	"__int16_t\000"
 5743      7431365F 
 5743      7400
 5744              	.LASF52:
 5745 0360 55475F4F 		.ascii	"UG_OBJECT\000"
 5745      424A4543 
 5745      5400
 5746              	.LASF89:
 5747 036a 70736574 		.ascii	"pset\000"
 5747      00
 5748              	.LASF70:
 5749 036f 7375625F 		.ascii	"sub_id\000"
 5749      696400
 5750              	.LASF77:
 5751 0376 68656967 		.ascii	"height\000"
 5751      687400
 5752              	.LASF48:
 5753 037d 73746172 		.ascii	"start_char\000"
 5753      745F6368 
 5753      617200
 5754              	.LASF25:
 5755 0388 50524543 		.ascii	"PRECHARGING\000"
 5755      48415247 
 5755      494E4700 
 5756              	.LASF37:
 5757 0394 55475F55 		.ascii	"UG_U8\000"
 5757      3800
 5758              	.LASF0:
 5759 039a 5F5F696E 		.ascii	"__int8_t\000"
 5759      74385F74 
 5759      00
 5760              	.LASF50:
 5761 03a3 77696474 		.ascii	"widths\000"
 5761      687300
 5762              	.LASF124:
 5763 03aa 55475F50 		.ascii	"UG_PutString\000"
 5763      75745374 
 5763      72696E67 
 5763      00
ARM GAS  C:\Users\leoja\AppData\Local\Temp\cc39o2Na.s 			page 111


 5764              	.LASF23:
 5765 03b7 6C6F6E67 		.ascii	"long double\000"
 5765      20646F75 
 5765      626C6500 
 5766              	.LASF125:
 5767 03c3 73707269 		.ascii	"sprintf\000"
 5767      6E746600 
 5768              	.LASF17:
 5769 03cb 75696E74 		.ascii	"uint16_t\000"
 5769      31365F74 
 5769      00
 5770              	.LASF114:
 5771 03d4 67756931 		.ascii	"gui1963\000"
 5771      39363300 
 5772              	.LASF78:
 5773 03dc 55475F54 		.ascii	"UG_TITLE\000"
 5773      49544C45 
 5773      00
 5774              	.LASF80:
 5775 03e5 55475F44 		.ascii	"UG_DRIVER\000"
 5775      52495645 
 5775      5200
 5776              	.LASF81:
 5777 03ef 785F706F 		.ascii	"x_pos\000"
 5777      7300
 5778              	.LASF47:
 5779 03f5 63686172 		.ascii	"char_height\000"
 5779      5F686569 
 5779      67687400 
 5780              	.LASF5:
 5781 0401 73686F72 		.ascii	"short int\000"
 5781      7420696E 
 5781      7400
 5782              	.LASF130:
 5783 040b 443A5C55 		.ascii	"D:\\Users\\leoja\\Documents\\GitHub\\Dashboard-Firm"
 5783      73657273 
 5783      5C6C656F 
 5783      6A615C44 
 5783      6F63756D 
 5784 0439 77617265 		.ascii	"ware-FE9-CURSED\\Dashboard-Firmware-FE9\\Dashboard."
 5784      2D464539 
 5784      2D435552 
 5784      5345445C 
 5784      44617368 
 5785 046a 63796473 		.ascii	"cydsn\000"
 5785      6E00
 5786              	.LASF117:
 5787 0470 6C617374 		.ascii	"last_state_color\000"
 5787      5F737461 
 5787      74655F63 
 5787      6F6C6F72 
 5787      00
 5788              	.LASF8:
 5789 0481 6C6F6E67 		.ascii	"long int\000"
 5789      20696E74 
 5789      00
 5790              	.LASF61:
ARM GAS  C:\Users\leoja\AppData\Local\Temp\cc39o2Na.s 			page 112


 5791 048a 55475F57 		.ascii	"UG_WINDOW\000"
 5791      494E444F 
 5791      5700
 5792              	.LASF111:
 5793 0494 64697370 		.ascii	"disp_motor_temp\000"
 5793      5F6D6F74 
 5793      6F725F74 
 5793      656D7000 
 5794              	.LASF49:
 5795 04a4 656E645F 		.ascii	"end_char\000"
 5795      63686172 
 5795      00
 5796              	.LASF51:
 5797 04ad 55475F46 		.ascii	"UG_FONT\000"
 5797      4F4E5400 
 5798              	.LASF1:
 5799 04b5 5F5F7569 		.ascii	"__uint8_t\000"
 5799      6E74385F 
 5799      7400
 5800              	.LASF73:
 5801 04bf 666F6E74 		.ascii	"font\000"
 5801      00
 5802              	.LASF24:
 5803 04c4 73697A65 		.ascii	"sizetype\000"
 5803      74797065 
 5803      00
 5804              	.LASF102:
 5805 04cd 696E6974 		.ascii	"initDashTemplate\000"
 5805      44617368 
 5805      54656D70 
 5805      6C617465 
 5805      00
 5806              	.LASF10:
 5807 04de 6C6F6E67 		.ascii	"long unsigned int\000"
 5807      20756E73 
 5807      69676E65 
 5807      6420696E 
 5807      7400
 5808              	.LASF110:
 5809 04f0 64697370 		.ascii	"disp_mc_temp\000"
 5809      5F6D635F 
 5809      74656D70 
 5809      00
 5810              	.LASF113:
 5811 04fd 464F4E54 		.ascii	"FONT_32X53\000"
 5811      5F333258 
 5811      353300
 5812              	.LASF106:
 5813 0508 64697370 		.ascii	"disp_max_pack_temp\000"
 5813      5F6D6178 
 5813      5F706163 
 5813      6B5F7465 
 5813      6D7000
 5814              	.LASF118:
 5815 051b 6C617374 		.ascii	"last_glv_v_color\000"
 5815      5F676C76 
 5815      5F765F63 
ARM GAS  C:\Users\leoja\AppData\Local\Temp\cc39o2Na.s 			page 113


 5815      6F6C6F72 
 5815      00
 5816              	.LASF58:
 5817 052c 74797065 		.ascii	"type\000"
 5817      00
 5818              	.LASF3:
 5819 0531 756E7369 		.ascii	"unsigned char\000"
 5819      676E6564 
 5819      20636861 
 5819      7200
 5820              	.LASF9:
 5821 053f 5F5F7569 		.ascii	"__uint32_t\000"
 5821      6E743332 
 5821      5F7400
 5822              	.LASF74:
 5823 054a 685F7370 		.ascii	"h_space\000"
 5823      61636500 
 5824              	.LASF107:
 5825 0552 64697370 		.ascii	"disp_state\000"
 5825      5F737461 
 5825      746500
 5826              	.LASF83:
 5827 055d 785F7374 		.ascii	"x_start\000"
 5827      61727400 
 5828              	.LASF28:
 5829 0565 4641554C 		.ascii	"FAULT\000"
 5829      5400
 5830              	.LASF86:
 5831 056b 795F656E 		.ascii	"y_end\000"
 5831      6400
 5832              	.LASF119:
 5833 0571 6C617374 		.ascii	"last_mc_temp_color\000"
 5833      5F6D635F 
 5833      74656D70 
 5833      5F636F6C 
 5833      6F7200
 5834              	.LASF66:
 5835 0584 7374796C 		.ascii	"style\000"
 5835      6500
 5836              	.LASF53:
 5837 058a 73746174 		.ascii	"state\000"
 5837      6500
 5838              	.LASF105:
 5839 0590 64697370 		.ascii	"disp_SOC\000"
 5839      5F534F43 
 5839      00
 5840              	.LASF100:
 5841 0599 55475F47 		.ascii	"UG_GUI\000"
 5841      554900
 5842              	.LASF57:
 5843 05a0 615F7265 		.ascii	"a_rel\000"
 5843      6C00
 5844              	.LASF72:
 5845 05a6 55475F54 		.ascii	"UG_TOUCH\000"
 5845      4F554348 
 5845      00
 5846              	.LASF2:
ARM GAS  C:\Users\leoja\AppData\Local\Temp\cc39o2Na.s 			page 114


 5847 05af 7369676E 		.ascii	"signed char\000"
 5847      65642063 
 5847      68617200 
 5848              	.LASF7:
 5849 05bb 73686F72 		.ascii	"short unsigned int\000"
 5849      7420756E 
 5849      7369676E 
 5849      65642069 
 5849      6E7400
 5850              	.LASF129:
 5851 05ce 66727563 		.ascii	"frucd_display.c\000"
 5851      645F6469 
 5851      73706C61 
 5851      792E6300 
 5852              	.LASF19:
 5853 05de 75696E74 		.ascii	"uint8\000"
 5853      3800
 5854              	.LASF21:
 5855 05e4 646F7562 		.ascii	"double\000"
 5855      6C6500
 5856              	.LASF127:
 5857 05eb 55475F46 		.ascii	"UG_FontSelect\000"
 5857      6F6E7453 
 5857      656C6563 
 5857      7400
 5858              	.LASF30:
 5859 05f9 44524956 		.ascii	"DRIVE_REQUEST_FROM_LV\000"
 5859      455F5245 
 5859      51554553 
 5859      545F4652 
 5859      4F4D5F4C 
 5860              	.LASF62:
 5861 060f 535F4F42 		.ascii	"S_OBJECT\000"
 5861      4A454354 
 5861      00
 5862              	.LASF76:
 5863 0618 616C6967 		.ascii	"align\000"
 5863      6E00
 5864              	.LASF56:
 5865 061e 615F6162 		.ascii	"a_abs\000"
 5865      7300
 5866              	.LASF108:
 5867 0624 6661756C 		.ascii	"fault\000"
 5867      7400
 5868              	.LASF42:
 5869 062a 464F4E54 		.ascii	"FONT_TYPE_1BPP\000"
 5869      5F545950 
 5869      455F3142 
 5869      505000
 5870              	.LASF97:
 5871 0639 63686172 		.ascii	"char_h_space\000"
 5871      5F685F73 
 5871      70616365 
 5871      00
 5872              		.ident	"GCC: (GNU Tools for ARM Embedded Processors) 5.4.1 20160609 (release) [ARM/embedded-5-bran
