ARM GAS  C:\Users\leoja\AppData\Local\Temp\cc39o2Na.s 			page 1


   1              		.syntax unified
   2              		.cpu cortex-m0
   3              		.fpu softvfp
   4              		.eabi_attribute 20, 1
   5              		.eabi_attribute 21, 1
   6              		.eabi_attribute 23, 3
   7              		.eabi_attribute 24, 1
   8              		.eabi_attribute 25, 1
   9              		.eabi_attribute 26, 1
  10              		.eabi_attribute 30, 1
  11              		.eabi_attribute 34, 0
  12              		.eabi_attribute 18, 4
  13              		.thumb
  14              		.syntax unified
  15              		.file	"frucd_display.c"
  16              		.text
  17              	.Ltext0:
  18              		.cfi_sections	.debug_frame
  19              		.section	.text.calibrateScreen,"ax",%progbits
  20              		.align	2
  21              		.global	calibrateScreen
  22              		.code	16
  23              		.thumb_func
  24              		.type	calibrateScreen, %function
  25              	calibrateScreen:
  26              	.LFB35:
  27              		.file 1 "frucd_display.c"
   1:frucd_display.c **** /* ========================================
   2:frucd_display.c ****  *
   3:frucd_display.c ****  * APIs for updating FRUCD Dashboard display
   4:frucd_display.c ****  *
   5:frucd_display.c ****  * ========================================
   6:frucd_display.c **** */
   7:frucd_display.c **** #include "frucd_display.h"
   8:frucd_display.c **** 
   9:frucd_display.c **** // Just a test function that displays elements at the supposed corners of the screen
  10:frucd_display.c **** void calibrateScreen() {
  28              		.loc 1 10 0
  29              		.cfi_startproc
  30              		@ args = 0, pretend = 0, frame = 0
  31              		@ frame_needed = 0, uses_anonymous_args = 0
  32 0000 F0B5     		push	{r4, r5, r6, r7, lr}
  33              		.cfi_def_cfa_offset 20
  34              		.cfi_offset 4, -20
  35              		.cfi_offset 5, -16
  36              		.cfi_offset 6, -12
  37              		.cfi_offset 7, -8
  38              		.cfi_offset 14, -4
  39 0002 83B0     		sub	sp, sp, #12
  40              		.cfi_def_cfa_offset 32
  11:frucd_display.c ****     UG_FillScreen(C_WHITE);
  41              		.loc 1 11 0
  42 0004 1948     		ldr	r0, .L2
  43 0006 FFF7FEFF 		bl	UG_FillScreen
  44              	.LVL0:
  12:frucd_display.c ****     //libTFT_FillRectangle(0, 0, 10, 10, RED);
  13:frucd_display.c ****     UG_FillFrame(0, 0, 10, 10, C_RED);
ARM GAS  C:\Users\leoja\AppData\Local\Temp\cc39o2Na.s 			page 2


  45              		.loc 1 13 0
  46 000a FF23     		movs	r3, #255
  47 000c 1B04     		lsls	r3, r3, #16
  48 000e 0093     		str	r3, [sp]
  49 0010 0A23     		movs	r3, #10
  50 0012 0A22     		movs	r2, #10
  51 0014 0021     		movs	r1, #0
  52 0016 0020     		movs	r0, #0
  53 0018 FFF7FEFF 		bl	UG_FillFrame
  54              	.LVL1:
  14:frucd_display.c ****     //libTFT_FillRectangle(0, 262, 10, 10, BLUE);
  15:frucd_display.c ****     UG_FillFrame(0, 262, 10, 272, C_BLUE);
  55              		.loc 1 15 0
  56 001c 8827     		movs	r7, #136
  57 001e 7F00     		lsls	r7, r7, #1
  58 0020 8325     		movs	r5, #131
  59 0022 6D00     		lsls	r5, r5, #1
  60 0024 FF23     		movs	r3, #255
  61 0026 0093     		str	r3, [sp]
  62 0028 3B00     		movs	r3, r7
  63 002a 0A22     		movs	r2, #10
  64 002c 2900     		movs	r1, r5
  65 002e 0020     		movs	r0, #0
  66 0030 FFF7FEFF 		bl	UG_FillFrame
  67              	.LVL2:
  16:frucd_display.c ****     //libTFT_FillRectangle(470, 0, 10, 10, GREEN);
  17:frucd_display.c ****     UG_FillFrame(470, 0, 480, 10, C_GREEN);
  68              		.loc 1 17 0
  69 0034 F026     		movs	r6, #240
  70 0036 7600     		lsls	r6, r6, #1
  71 0038 EB24     		movs	r4, #235
  72 003a 6400     		lsls	r4, r4, #1
  73 003c FF23     		movs	r3, #255
  74 003e 1B02     		lsls	r3, r3, #8
  75 0040 0093     		str	r3, [sp]
  76 0042 0A23     		movs	r3, #10
  77 0044 3200     		movs	r2, r6
  78 0046 0021     		movs	r1, #0
  79 0048 2000     		movs	r0, r4
  80 004a FFF7FEFF 		bl	UG_FillFrame
  81              	.LVL3:
  18:frucd_display.c ****     //libTFT_FillRectangle(470, 262, 10, 10, YELLOW);
  19:frucd_display.c ****     UG_FillFrame(470, 262, 480, 272, C_YELLOW);
  82              		.loc 1 19 0
  83 004e 084B     		ldr	r3, .L2+4
  84 0050 0093     		str	r3, [sp]
  85 0052 3B00     		movs	r3, r7
  86 0054 3200     		movs	r2, r6
  87 0056 2900     		movs	r1, r5
  88 0058 2000     		movs	r0, r4
  89 005a FFF7FEFF 		bl	UG_FillFrame
  90              	.LVL4:
  20:frucd_display.c ****     CyDelay(300);
  91              		.loc 1 20 0
  92 005e 9620     		movs	r0, #150
  93 0060 4000     		lsls	r0, r0, #1
  94 0062 FFF7FEFF 		bl	CyDelay
ARM GAS  C:\Users\leoja\AppData\Local\Temp\cc39o2Na.s 			page 3


  95              	.LVL5:
  21:frucd_display.c **** }
  96              		.loc 1 21 0
  97 0066 03B0     		add	sp, sp, #12
  98              		@ sp needed
  99 0068 F0BD     		pop	{r4, r5, r6, r7, pc}
 100              	.L3:
 101 006a C046     		.align	2
 102              	.L2:
 103 006c FFFFFF00 		.word	16777215
 104 0070 00FFFF00 		.word	16776960
 105              		.cfi_endproc
 106              	.LFE35:
 107              		.size	calibrateScreen, .-calibrateScreen
 108              		.section	.text.initDashTemplate,"ax",%progbits
 109              		.align	2
 110              		.global	initDashTemplate
 111              		.code	16
 112              		.thumb_func
 113              		.type	initDashTemplate, %function
 114              	initDashTemplate:
 115              	.LFB36:
  22:frucd_display.c **** 
  23:frucd_display.c **** // Initializes dashboard layout/labels
  24:frucd_display.c **** void initDashTemplate() {
 116              		.loc 1 24 0
 117              		.cfi_startproc
 118              		@ args = 0, pretend = 0, frame = 0
 119              		@ frame_needed = 0, uses_anonymous_args = 0
 120 0000 10B5     		push	{r4, lr}
 121              		.cfi_def_cfa_offset 8
 122              		.cfi_offset 4, -8
 123              		.cfi_offset 14, -4
  25:frucd_display.c ****     UG_FillScreen(C_BLACK);
 124              		.loc 1 25 0
 125 0002 0020     		movs	r0, #0
 126 0004 FFF7FEFF 		bl	UG_FillScreen
 127              	.LVL6:
  26:frucd_display.c ****     UG_PutString(68, 10, "PACK SOC");
 128              		.loc 1 26 0
 129 0008 104A     		ldr	r2, .L5
 130 000a 0A21     		movs	r1, #10
 131 000c 4420     		movs	r0, #68
 132 000e FFF7FEFF 		bl	UG_PutString
 133              	.LVL7:
  27:frucd_display.c ****     UG_PutString(297, 10, "MAX PACK T");
 134              		.loc 1 27 0
 135 0012 0F4A     		ldr	r2, .L5+4
 136 0014 0A21     		movs	r1, #10
 137 0016 2A20     		movs	r0, #42
 138 0018 FF30     		adds	r0, r0, #255
 139 001a FFF7FEFF 		bl	UG_PutString
 140              	.LVL8:
  28:frucd_display.c ****     UG_PutString(10, 195, "STATE:");
 141              		.loc 1 28 0
 142 001e 0D4A     		ldr	r2, .L5+8
 143 0020 C321     		movs	r1, #195
ARM GAS  C:\Users\leoja\AppData\Local\Temp\cc39o2Na.s 			page 4


 144 0022 0A20     		movs	r0, #10
 145 0024 FFF7FEFF 		bl	UG_PutString
 146              	.LVL9:
  29:frucd_display.c ****     UG_PutString(10, 240, "GLV V:");
 147              		.loc 1 29 0
 148 0028 0B4A     		ldr	r2, .L5+12
 149 002a F021     		movs	r1, #240
 150 002c 0A20     		movs	r0, #10
 151 002e FFF7FEFF 		bl	UG_PutString
 152              	.LVL10:
  30:frucd_display.c ****     UG_PutString(339, 195, "MC T:");
 153              		.loc 1 30 0
 154 0032 0A4A     		ldr	r2, .L5+16
 155 0034 C321     		movs	r1, #195
 156 0036 5420     		movs	r0, #84
 157 0038 FF30     		adds	r0, r0, #255
 158 003a FFF7FEFF 		bl	UG_PutString
 159              	.LVL11:
  31:frucd_display.c ****     UG_PutString(300, 240, "MOTOR T:");
 160              		.loc 1 31 0
 161 003e 084A     		ldr	r2, .L5+20
 162 0040 F021     		movs	r1, #240
 163 0042 9620     		movs	r0, #150
 164 0044 4000     		lsls	r0, r0, #1
 165 0046 FFF7FEFF 		bl	UG_PutString
 166              	.LVL12:
  32:frucd_display.c **** }
 167              		.loc 1 32 0
 168              		@ sp needed
 169 004a 10BD     		pop	{r4, pc}
 170              	.L6:
 171              		.align	2
 172              	.L5:
 173 004c 00000000 		.word	.LC0
 174 0050 0C000000 		.word	.LC2
 175 0054 18000000 		.word	.LC4
 176 0058 20000000 		.word	.LC6
 177 005c 28000000 		.word	.LC8
 178 0060 30000000 		.word	.LC10
 179              		.cfi_endproc
 180              	.LFE36:
 181              		.size	initDashTemplate, .-initDashTemplate
 182              		.section	.text.disp_SOC,"ax",%progbits
 183              		.align	2
 184              		.global	disp_SOC
 185              		.code	16
 186              		.thumb_func
 187              		.type	disp_SOC, %function
 188              	disp_SOC:
 189              	.LFB37:
  33:frucd_display.c **** 
  34:frucd_display.c **** /*
  35:frucd_display.c ****  * BEGIN: functions to show data on dash
  36:frucd_display.c ****  * - handle variety of digit counts
  37:frucd_display.c ****  * - color decision logic is in here
  38:frucd_display.c ****  */
  39:frucd_display.c **** void disp_SOC(uint8_t data) {
ARM GAS  C:\Users\leoja\AppData\Local\Temp\cc39o2Na.s 			page 5


 190              		.loc 1 39 0
 191              		.cfi_startproc
 192              		@ args = 0, pretend = 0, frame = 8
 193              		@ frame_needed = 0, uses_anonymous_args = 0
 194              	.LVL13:
 195 0000 30B5     		push	{r4, r5, lr}
 196              		.cfi_def_cfa_offset 12
 197              		.cfi_offset 4, -12
 198              		.cfi_offset 5, -8
 199              		.cfi_offset 14, -4
 200 0002 85B0     		sub	sp, sp, #20
 201              		.cfi_def_cfa_offset 32
 202 0004 0400     		movs	r4, r0
  40:frucd_display.c ****     UG_FontSelect(&FONT_32X53);
 203              		.loc 1 40 0
 204 0006 3848     		ldr	r0, .L18
 205              	.LVL14:
 206 0008 FFF7FEFF 		bl	UG_FontSelect
 207              	.LVL15:
  41:frucd_display.c ****     UG_COLOR color;
  42:frucd_display.c ****     if (data == 100) {
 208              		.loc 1 42 0
 209 000c 642C     		cmp	r4, #100
 210 000e 19D1     		bne	.L8
 211              	.LVL16:
  43:frucd_display.c ****         // handle 100% case
  44:frucd_display.c ****         color = C_GREEN;
  45:frucd_display.c ****         if (color != last_SOC_color) {
 212              		.loc 1 45 0
 213 0010 364B     		ldr	r3, .L18+4
 214 0012 1A68     		ldr	r2, [r3]
 215 0014 FF23     		movs	r3, #255
 216 0016 1B02     		lsls	r3, r3, #8
 217 0018 9A42     		cmp	r2, r3
 218 001a 09D0     		beq	.L9
  46:frucd_display.c ****             // only draw rectangle if color changed
  47:frucd_display.c ****             UG_FillFrame(30, 35, 210, 170, color);
 219              		.loc 1 47 0
 220 001c 1C00     		movs	r4, r3
 221 001e 0093     		str	r3, [sp]
 222 0020 AA23     		movs	r3, #170
 223 0022 D222     		movs	r2, #210
 224 0024 2321     		movs	r1, #35
 225 0026 1E20     		movs	r0, #30
 226 0028 FFF7FEFF 		bl	UG_FillFrame
 227              	.LVL17:
  48:frucd_display.c ****             last_SOC_color = color;
 228              		.loc 1 48 0
 229 002c 2F4B     		ldr	r3, .L18+4
 230 002e 1C60     		str	r4, [r3]
 231              	.L9:
  49:frucd_display.c ****         }
  50:frucd_display.c ****         UG_PutColorString(55, 80, "100%", C_BLACK, C_GREEN);
 232              		.loc 1 50 0
 233 0030 FF23     		movs	r3, #255
 234 0032 1B02     		lsls	r3, r3, #8
 235 0034 0093     		str	r3, [sp]
ARM GAS  C:\Users\leoja\AppData\Local\Temp\cc39o2Na.s 			page 6


 236 0036 0023     		movs	r3, #0
 237 0038 2D4A     		ldr	r2, .L18+8
 238 003a 5021     		movs	r1, #80
 239 003c 3720     		movs	r0, #55
 240 003e FFF7FEFF 		bl	UG_PutColorString
 241              	.LVL18:
 242 0042 4BE0     		b	.L10
 243              	.LVL19:
 244              	.L8:
 245              	.LBB2:
  51:frucd_display.c ****     } else {
  52:frucd_display.c ****         // handle other cases
  53:frucd_display.c ****         char data_s[4];
  54:frucd_display.c ****         sprintf(data_s, "%d", data);
 246              		.loc 1 54 0
 247 0044 2200     		movs	r2, r4
 248 0046 2B49     		ldr	r1, .L18+12
 249 0048 03A8     		add	r0, sp, #12
 250 004a FFF7FEFF 		bl	sprintf
 251              	.LVL20:
  55:frucd_display.c ****         if (data >= 10) {
 252              		.loc 1 55 0
 253 004e 092C     		cmp	r4, #9
 254 0050 28D9     		bls	.L11
  56:frucd_display.c ****             // handle 2 digit cases
  57:frucd_display.c ****             // choose color
  58:frucd_display.c ****             if (data > 75) {
 255              		.loc 1 58 0
 256 0052 4B2C     		cmp	r4, #75
 257 0054 05D8     		bhi	.L15
  59:frucd_display.c ****                 color = C_GREEN;
  60:frucd_display.c ****             } else if (data > 50) {
 258              		.loc 1 60 0
 259 0056 322C     		cmp	r4, #50
 260 0058 06D8     		bhi	.L16
  61:frucd_display.c ****                 color = C_YELLOW;
  62:frucd_display.c ****             } else if (data > 25) {
 261              		.loc 1 62 0
 262 005a 192C     		cmp	r4, #25
 263 005c 06D9     		bls	.L17
  63:frucd_display.c ****                 color = C_ORANGE;
 264              		.loc 1 63 0
 265 005e 264C     		ldr	r4, .L18+16
 266 0060 06E0     		b	.L12
 267              	.L15:
  59:frucd_display.c ****                 color = C_GREEN;
 268              		.loc 1 59 0
 269 0062 FF24     		movs	r4, #255
 270 0064 2402     		lsls	r4, r4, #8
 271 0066 03E0     		b	.L12
 272              	.L16:
  61:frucd_display.c ****                 color = C_YELLOW;
 273              		.loc 1 61 0
 274 0068 244C     		ldr	r4, .L18+20
 275 006a 01E0     		b	.L12
 276              	.L17:
  64:frucd_display.c ****             } else {
ARM GAS  C:\Users\leoja\AppData\Local\Temp\cc39o2Na.s 			page 7


  65:frucd_display.c ****                 color = C_RED;
 277              		.loc 1 65 0
 278 006c FF24     		movs	r4, #255
 279 006e 2404     		lsls	r4, r4, #16
 280              	.L12:
 281              	.LVL21:
  66:frucd_display.c ****             }
  67:frucd_display.c ****             data_s[2] = '%';
 282              		.loc 1 67 0
 283 0070 03AB     		add	r3, sp, #12
 284 0072 2522     		movs	r2, #37
 285 0074 9A70     		strb	r2, [r3, #2]
  68:frucd_display.c ****             data_s[3] = '\0';
 286              		.loc 1 68 0
 287 0076 0022     		movs	r2, #0
 288 0078 DA70     		strb	r2, [r3, #3]
  69:frucd_display.c ****             if (color != last_SOC_color) {
 289              		.loc 1 69 0
 290 007a 1C4B     		ldr	r3, .L18+4
 291 007c 1B68     		ldr	r3, [r3]
 292 007e 9C42     		cmp	r4, r3
 293 0080 08D0     		beq	.L13
  70:frucd_display.c ****                 // only draw rectangle if color changed
  71:frucd_display.c ****                 UG_FillFrame(30, 35, 210, 170, color);
 294              		.loc 1 71 0
 295 0082 0094     		str	r4, [sp]
 296 0084 AA23     		movs	r3, #170
 297 0086 D232     		adds	r2, r2, #210
 298 0088 2321     		movs	r1, #35
 299 008a 1E20     		movs	r0, #30
 300 008c FFF7FEFF 		bl	UG_FillFrame
 301              	.LVL22:
  72:frucd_display.c ****                 last_SOC_color = color;
 302              		.loc 1 72 0
 303 0090 164B     		ldr	r3, .L18+4
 304 0092 1C60     		str	r4, [r3]
 305              	.L13:
  73:frucd_display.c ****             }
  74:frucd_display.c ****             UG_PutColorString(70, 80, data_s, C_BLACK, color);
 306              		.loc 1 74 0
 307 0094 0094     		str	r4, [sp]
 308 0096 0023     		movs	r3, #0
 309 0098 03AA     		add	r2, sp, #12
 310 009a 5021     		movs	r1, #80
 311 009c 4620     		movs	r0, #70
 312 009e FFF7FEFF 		bl	UG_PutColorString
 313              	.LVL23:
 314 00a2 1BE0     		b	.L10
 315              	.LVL24:
 316              	.L11:
  75:frucd_display.c ****         } else {
  76:frucd_display.c ****             // handle 1 digit cases
  77:frucd_display.c ****             data_s[1] = '%';
 317              		.loc 1 77 0
 318 00a4 03AC     		add	r4, sp, #12
 319 00a6 2523     		movs	r3, #37
 320 00a8 6370     		strb	r3, [r4, #1]
ARM GAS  C:\Users\leoja\AppData\Local\Temp\cc39o2Na.s 			page 8


  78:frucd_display.c ****             data_s[2] = '\0';
 321              		.loc 1 78 0
 322 00aa 0023     		movs	r3, #0
 323 00ac A370     		strb	r3, [r4, #2]
 324              	.LVL25:
  79:frucd_display.c ****             color = C_RED;
  80:frucd_display.c ****             UG_FillFrame(30, 35, 210, 170, C_BLACK);
 325              		.loc 1 80 0
 326 00ae 0093     		str	r3, [sp]
 327 00b0 AA33     		adds	r3, r3, #170
 328 00b2 D222     		movs	r2, #210
 329 00b4 2321     		movs	r1, #35
 330 00b6 1E20     		movs	r0, #30
 331 00b8 FFF7FEFF 		bl	UG_FillFrame
 332              	.LVL26:
  81:frucd_display.c ****             UG_FillFrame(30, 35, 210, 170, color);
 333              		.loc 1 81 0
 334 00bc FF25     		movs	r5, #255
 335 00be 2D04     		lsls	r5, r5, #16
 336 00c0 0095     		str	r5, [sp]
 337 00c2 AA23     		movs	r3, #170
 338 00c4 D222     		movs	r2, #210
 339 00c6 2321     		movs	r1, #35
 340 00c8 1E20     		movs	r0, #30
 341 00ca FFF7FEFF 		bl	UG_FillFrame
 342              	.LVL27:
  82:frucd_display.c ****             UG_PutColorString(90, 80, data_s, C_BLACK, color);
 343              		.loc 1 82 0
 344 00ce 0095     		str	r5, [sp]
 345 00d0 0023     		movs	r3, #0
 346 00d2 2200     		movs	r2, r4
 347 00d4 5021     		movs	r1, #80
 348 00d6 5A20     		movs	r0, #90
 349 00d8 FFF7FEFF 		bl	UG_PutColorString
 350              	.LVL28:
 351              	.L10:
 352              	.LBE2:
  83:frucd_display.c ****         }   
  84:frucd_display.c ****     }
  85:frucd_display.c ****     UG_FontSelect(&FONT_12X16);
 353              		.loc 1 85 0
 354 00dc 0848     		ldr	r0, .L18+24
 355 00de FFF7FEFF 		bl	UG_FontSelect
 356              	.LVL29:
  86:frucd_display.c **** }
 357              		.loc 1 86 0
 358 00e2 05B0     		add	sp, sp, #20
 359              		@ sp needed
 360 00e4 30BD     		pop	{r4, r5, pc}
 361              	.L19:
 362 00e6 C046     		.align	2
 363              	.L18:
 364 00e8 00000000 		.word	FONT_32X53
 365 00ec 00000000 		.word	last_SOC_color
 366 00f0 3C000000 		.word	.LC14
 367 00f4 44000000 		.word	.LC16
 368 00f8 00A5FF00 		.word	16753920
ARM GAS  C:\Users\leoja\AppData\Local\Temp\cc39o2Na.s 			page 9


 369 00fc 00FFFF00 		.word	16776960
 370 0100 00000000 		.word	FONT_12X16
 371              		.cfi_endproc
 372              	.LFE37:
 373              		.size	disp_SOC, .-disp_SOC
 374              		.section	.text.disp_max_pack_temp,"ax",%progbits
 375              		.align	2
 376              		.global	disp_max_pack_temp
 377              		.code	16
 378              		.thumb_func
 379              		.type	disp_max_pack_temp, %function
 380              	disp_max_pack_temp:
 381              	.LFB38:
  87:frucd_display.c **** 
  88:frucd_display.c **** void disp_max_pack_temp(uint8_t data) {
 382              		.loc 1 88 0
 383              		.cfi_startproc
 384              		@ args = 0, pretend = 0, frame = 8
 385              		@ frame_needed = 0, uses_anonymous_args = 0
 386              	.LVL30:
 387 0000 F0B5     		push	{r4, r5, r6, r7, lr}
 388              		.cfi_def_cfa_offset 20
 389              		.cfi_offset 4, -20
 390              		.cfi_offset 5, -16
 391              		.cfi_offset 6, -12
 392              		.cfi_offset 7, -8
 393              		.cfi_offset 14, -4
 394 0002 85B0     		sub	sp, sp, #20
 395              		.cfi_def_cfa_offset 40
 396 0004 0600     		movs	r6, r0
  89:frucd_display.c ****     // choose color
  90:frucd_display.c ****     UG_COLOR color;
  91:frucd_display.c ****     if (data < 45) {
 397              		.loc 1 91 0
 398 0006 2C28     		cmp	r0, #44
 399 0008 19D9     		bls	.L23
  92:frucd_display.c ****         color = C_GREEN;
  93:frucd_display.c ****     } else if (data < 50) {
 400              		.loc 1 93 0
 401 000a 3128     		cmp	r0, #49
 402 000c 1AD9     		bls	.L24
  94:frucd_display.c ****         color = C_YELLOW;
  95:frucd_display.c ****     } else if (data < 55) {
 403              		.loc 1 95 0
 404 000e 3628     		cmp	r0, #54
 405 0010 1AD9     		bls	.L25
 406              	.LVL31:
  96:frucd_display.c ****         color = C_ORANGE;
  97:frucd_display.c ****     } else {
  98:frucd_display.c ****         color = C_RED;
  99:frucd_display.c ****         UG_FillFrame(270, 35, 450, 170, C_BLACK);
 407              		.loc 1 99 0
 408 0012 E127     		movs	r7, #225
 409 0014 7F00     		lsls	r7, r7, #1
 410 0016 8724     		movs	r4, #135
 411 0018 6400     		lsls	r4, r4, #1
 412 001a 0023     		movs	r3, #0
ARM GAS  C:\Users\leoja\AppData\Local\Temp\cc39o2Na.s 			page 10


 413 001c 0093     		str	r3, [sp]
 414 001e AA33     		adds	r3, r3, #170
 415 0020 3A00     		movs	r2, r7
 416 0022 2321     		movs	r1, #35
 417 0024 2000     		movs	r0, r4
 418              	.LVL32:
 419 0026 FFF7FEFF 		bl	UG_FillFrame
 420              	.LVL33:
 100:frucd_display.c ****         UG_FillFrame(270, 35, 450, 170, color);
 421              		.loc 1 100 0
 422 002a FF25     		movs	r5, #255
 423 002c 2D04     		lsls	r5, r5, #16
 424 002e 0095     		str	r5, [sp]
 425 0030 AA23     		movs	r3, #170
 426 0032 3A00     		movs	r2, r7
 427 0034 2321     		movs	r1, #35
 428 0036 2000     		movs	r0, r4
 429 0038 FFF7FEFF 		bl	UG_FillFrame
 430              	.LVL34:
 431 003c 05E0     		b	.L21
 432              	.LVL35:
 433              	.L23:
  92:frucd_display.c ****     } else if (data < 50) {
 434              		.loc 1 92 0
 435 003e FF25     		movs	r5, #255
 436 0040 2D02     		lsls	r5, r5, #8
 437 0042 02E0     		b	.L21
 438              	.L24:
  94:frucd_display.c ****     } else if (data < 55) {
 439              		.loc 1 94 0
 440 0044 154D     		ldr	r5, .L26
 441 0046 00E0     		b	.L21
 442              	.L25:
  96:frucd_display.c ****     } else {
 443              		.loc 1 96 0
 444 0048 154D     		ldr	r5, .L26+4
 445              	.LVL36:
 446              	.L21:
 101:frucd_display.c ****     }
 102:frucd_display.c ****     
 103:frucd_display.c ****     if (color != last_max_pack_temp_color) {
 447              		.loc 1 103 0
 448 004a 164B     		ldr	r3, .L26+8
 449 004c 1B68     		ldr	r3, [r3]
 450 004e 9D42     		cmp	r5, r3
 451 0050 0AD0     		beq	.L22
 104:frucd_display.c ****         // only draw rectangle if color changed
 105:frucd_display.c ****         UG_FillFrame(270, 35, 450, 170, color);
 452              		.loc 1 105 0
 453 0052 0095     		str	r5, [sp]
 454 0054 AA23     		movs	r3, #170
 455 0056 E122     		movs	r2, #225
 456 0058 5200     		lsls	r2, r2, #1
 457 005a 2321     		movs	r1, #35
 458 005c 8720     		movs	r0, #135
 459 005e 4000     		lsls	r0, r0, #1
 460 0060 FFF7FEFF 		bl	UG_FillFrame
ARM GAS  C:\Users\leoja\AppData\Local\Temp\cc39o2Na.s 			page 11


 461              	.LVL37:
 106:frucd_display.c ****         last_max_pack_temp_color = color;
 462              		.loc 1 106 0
 463 0064 0F4B     		ldr	r3, .L26+8
 464 0066 1D60     		str	r5, [r3]
 465              	.L22:
 107:frucd_display.c ****     }
 108:frucd_display.c ****     UG_FontSelect(&FONT_32X53);
 466              		.loc 1 108 0
 467 0068 0F48     		ldr	r0, .L26+12
 468 006a FFF7FEFF 		bl	UG_FontSelect
 469              	.LVL38:
 109:frucd_display.c ****     char data_s[4];
 110:frucd_display.c ****     sprintf(data_s, "%d", data);
 470              		.loc 1 110 0
 471 006e 03AC     		add	r4, sp, #12
 472 0070 3200     		movs	r2, r6
 473 0072 0E49     		ldr	r1, .L26+16
 474 0074 2000     		movs	r0, r4
 475 0076 FFF7FEFF 		bl	sprintf
 476              	.LVL39:
 111:frucd_display.c ****     data_s[2] = 'C';
 477              		.loc 1 111 0
 478 007a 4323     		movs	r3, #67
 479 007c A370     		strb	r3, [r4, #2]
 112:frucd_display.c ****     data_s[3] = '\0';
 480              		.loc 1 112 0
 481 007e 0023     		movs	r3, #0
 482 0080 E370     		strb	r3, [r4, #3]
 113:frucd_display.c ****     UG_PutColorString(310, 80, data_s, C_BLACK, color);
 483              		.loc 1 113 0
 484 0082 0095     		str	r5, [sp]
 485 0084 2200     		movs	r2, r4
 486 0086 5021     		movs	r1, #80
 487 0088 9B20     		movs	r0, #155
 488 008a 4000     		lsls	r0, r0, #1
 489 008c FFF7FEFF 		bl	UG_PutColorString
 490              	.LVL40:
 114:frucd_display.c ****     UG_FontSelect(&FONT_12X16);
 491              		.loc 1 114 0
 492 0090 0748     		ldr	r0, .L26+20
 493 0092 FFF7FEFF 		bl	UG_FontSelect
 494              	.LVL41:
 115:frucd_display.c **** }
 495              		.loc 1 115 0
 496 0096 05B0     		add	sp, sp, #20
 497              		@ sp needed
 498              	.LVL42:
 499 0098 F0BD     		pop	{r4, r5, r6, r7, pc}
 500              	.L27:
 501 009a C046     		.align	2
 502              	.L26:
 503 009c 00FFFF00 		.word	16776960
 504 00a0 00A5FF00 		.word	16753920
 505 00a4 00000000 		.word	last_max_pack_temp_color
 506 00a8 00000000 		.word	FONT_32X53
 507 00ac 44000000 		.word	.LC16
ARM GAS  C:\Users\leoja\AppData\Local\Temp\cc39o2Na.s 			page 12


 508 00b0 00000000 		.word	FONT_12X16
 509              		.cfi_endproc
 510              	.LFE38:
 511              		.size	disp_max_pack_temp, .-disp_max_pack_temp
 512              		.section	.text.disp_state,"ax",%progbits
 513              		.align	2
 514              		.global	disp_state
 515              		.code	16
 516              		.thumb_func
 517              		.type	disp_state, %function
 518              	disp_state:
 519              	.LFB39:
 116:frucd_display.c **** 
 117:frucd_display.c **** void disp_state(uint8_t state) { // TODO
 520              		.loc 1 117 0
 521              		.cfi_startproc
 522              		@ args = 0, pretend = 0, frame = 0
 523              		@ frame_needed = 0, uses_anonymous_args = 0
 524              	.LVL43:
 525 0000 30B5     		push	{r4, r5, lr}
 526              		.cfi_def_cfa_offset 12
 527              		.cfi_offset 4, -12
 528              		.cfi_offset 5, -8
 529              		.cfi_offset 14, -4
 530 0002 83B0     		sub	sp, sp, #12
 531              		.cfi_def_cfa_offset 24
 532 0004 0400     		movs	r4, r0
 118:frucd_display.c ****     UG_COLOR color;
 119:frucd_display.c ****     // check fault bit
 120:frucd_display.c ****     if (state & 0x80) {
 533              		.loc 1 120 0
 534 0006 43B2     		sxtb	r3, r0
 535 0008 002B     		cmp	r3, #0
 536 000a 00DB     		blt	.LCB462
 537 000c D4E0     		b	.L29	@long jump
 538              	.LCB462:
 539              	.LBB3:
 121:frucd_display.c ****         // *************** FAULTS ***************
 122:frucd_display.c ****         uint8 fault = state & 0x7f; // mask off fault bit
 540              		.loc 1 122 0
 541 000e 7F23     		movs	r3, #127
 542 0010 1C40     		ands	r4, r3
 543              	.LVL44:
 123:frucd_display.c ****         switch(fault) {
 544              		.loc 1 123 0
 545 0012 072C     		cmp	r4, #7
 546 0014 00D9     		bls	.LCB469
 547 0016 0FE1     		b	.L28	@long jump
 548              	.LCB469:
 549 0018 A400     		lsls	r4, r4, #2
 550              	.LVL45:
 551 001a 884B     		ldr	r3, .L53
 552              	.LVL46:
 553 001c 1B59     		ldr	r3, [r3, r4]
 554 001e 9F46     		mov	pc, r3
 555              		.section	.rodata
 556              		.align	2
ARM GAS  C:\Users\leoja\AppData\Local\Temp\cc39o2Na.s 			page 13


 557              	.L32:
 558 0000 20000000 		.word	.L31
 559 0004 50000000 		.word	.L33
 560 0008 84000000 		.word	.L34
 561 000c B8000000 		.word	.L35
 562 0010 EC000000 		.word	.L36
 563 0014 20010000 		.word	.L37
 564 0018 54010000 		.word	.L38
 565 001c 84010000 		.word	.L39
 566              		.section	.text.disp_state
 567              	.L31:
 568              	.LVL47:
 124:frucd_display.c ****             case NONE: // STARTUP (effectively)
 125:frucd_display.c ****                 // not obtainable via CAN
 126:frucd_display.c ****                 // would only show when hardcoded on startup
 127:frucd_display.c ****                 color = C_YELLOW;
 128:frucd_display.c ****                 if (color != last_state_color) {
 569              		.loc 1 128 0
 570 0020 874B     		ldr	r3, .L53+4
 571 0022 1A68     		ldr	r2, [r3]
 572 0024 874B     		ldr	r3, .L53+8
 573 0026 9A42     		cmp	r2, r3
 574 0028 09D0     		beq	.L40
 129:frucd_display.c ****                     // only draw rectangle if color changed
 130:frucd_display.c ****                     UG_FillFrame(95, 185, 240, 215, color);
 575              		.loc 1 130 0
 576 002a 1C00     		movs	r4, r3
 577 002c 0093     		str	r3, [sp]
 578 002e D723     		movs	r3, #215
 579 0030 F022     		movs	r2, #240
 580 0032 B921     		movs	r1, #185
 581 0034 5F20     		movs	r0, #95
 582              	.LVL48:
 583 0036 FFF7FEFF 		bl	UG_FillFrame
 584              	.LVL49:
 131:frucd_display.c ****                     last_state_color = color;
 585              		.loc 1 131 0
 586 003a 814B     		ldr	r3, .L53+4
 587 003c 1C60     		str	r4, [r3]
 588              	.L40:
 132:frucd_display.c ****                 }
 133:frucd_display.c ****                 UG_PutColorString(100, 195, " STARTUP  ", C_BLACK, color);
 589              		.loc 1 133 0
 590 003e 814B     		ldr	r3, .L53+8
 591 0040 0093     		str	r3, [sp]
 592 0042 0023     		movs	r3, #0
 593 0044 804A     		ldr	r2, .L53+12
 594 0046 C321     		movs	r1, #195
 595 0048 6420     		movs	r0, #100
 596 004a FFF7FEFF 		bl	UG_PutColorString
 597              	.LVL50:
 134:frucd_display.c ****                 break;
 598              		.loc 1 134 0
 599 004e F3E0     		b	.L28
 600              	.LVL51:
 601              	.L33:
 135:frucd_display.c ****             case DRIVE_REQUEST_FROM_LV:
ARM GAS  C:\Users\leoja\AppData\Local\Temp\cc39o2Na.s 			page 14


 136:frucd_display.c ****                 color = C_RED;
 137:frucd_display.c ****                 if (color != last_state_color) {
 602              		.loc 1 137 0
 603 0050 7B4B     		ldr	r3, .L53+4
 604 0052 1A68     		ldr	r2, [r3]
 605 0054 FF23     		movs	r3, #255
 606 0056 1B04     		lsls	r3, r3, #16
 607 0058 9A42     		cmp	r2, r3
 608 005a 09D0     		beq	.L41
 138:frucd_display.c ****                     // only draw rectangle if color changed
 139:frucd_display.c ****                     UG_FillFrame(95, 185, 240, 215, color);
 609              		.loc 1 139 0
 610 005c 1C00     		movs	r4, r3
 611 005e 0093     		str	r3, [sp]
 612 0060 D723     		movs	r3, #215
 613 0062 F022     		movs	r2, #240
 614 0064 B921     		movs	r1, #185
 615 0066 5F20     		movs	r0, #95
 616              	.LVL52:
 617 0068 FFF7FEFF 		bl	UG_FillFrame
 618              	.LVL53:
 140:frucd_display.c ****                     last_state_color = color;
 619              		.loc 1 140 0
 620 006c 744B     		ldr	r3, .L53+4
 621 006e 1C60     		str	r4, [r3]
 622              	.L41:
 141:frucd_display.c ****                 }
 142:frucd_display.c ****                 UG_PutColorString(100, 195, "DRV FRM LV", C_BLACK, color);
 623              		.loc 1 142 0
 624 0070 FF23     		movs	r3, #255
 625 0072 1B04     		lsls	r3, r3, #16
 626 0074 0093     		str	r3, [sp]
 627 0076 0023     		movs	r3, #0
 628 0078 744A     		ldr	r2, .L53+16
 629 007a C321     		movs	r1, #195
 630 007c 6420     		movs	r0, #100
 631 007e FFF7FEFF 		bl	UG_PutColorString
 632              	.LVL54:
 143:frucd_display.c ****                 break;
 633              		.loc 1 143 0
 634 0082 D9E0     		b	.L28
 635              	.LVL55:
 636              	.L34:
 144:frucd_display.c ****             case CONSERVATIVE_TIMER_MAXED:
 145:frucd_display.c ****                 color = C_RED;
 146:frucd_display.c ****                 if (color != last_state_color) {
 637              		.loc 1 146 0
 638 0084 6E4B     		ldr	r3, .L53+4
 639 0086 1A68     		ldr	r2, [r3]
 640 0088 FF23     		movs	r3, #255
 641 008a 1B04     		lsls	r3, r3, #16
 642 008c 9A42     		cmp	r2, r3
 643 008e 09D0     		beq	.L42
 147:frucd_display.c ****                     // only draw rectangle if color changed
 148:frucd_display.c ****                     UG_FillFrame(95, 185, 240, 215, color);
 644              		.loc 1 148 0
 645 0090 1C00     		movs	r4, r3
ARM GAS  C:\Users\leoja\AppData\Local\Temp\cc39o2Na.s 			page 15


 646 0092 0093     		str	r3, [sp]
 647 0094 D723     		movs	r3, #215
 648 0096 F022     		movs	r2, #240
 649 0098 B921     		movs	r1, #185
 650 009a 5F20     		movs	r0, #95
 651              	.LVL56:
 652 009c FFF7FEFF 		bl	UG_FillFrame
 653              	.LVL57:
 149:frucd_display.c ****                     last_state_color = color;
 654              		.loc 1 149 0
 655 00a0 674B     		ldr	r3, .L53+4
 656 00a2 1C60     		str	r4, [r3]
 657              	.L42:
 150:frucd_display.c ****                 }
 151:frucd_display.c ****                 UG_PutColorString(100, 195, "PRE TM OUT", C_BLACK, color);
 658              		.loc 1 151 0
 659 00a4 FF23     		movs	r3, #255
 660 00a6 1B04     		lsls	r3, r3, #16
 661 00a8 0093     		str	r3, [sp]
 662 00aa 0023     		movs	r3, #0
 663 00ac 684A     		ldr	r2, .L53+20
 664 00ae C321     		movs	r1, #195
 665 00b0 6420     		movs	r0, #100
 666 00b2 FFF7FEFF 		bl	UG_PutColorString
 667              	.LVL58:
 152:frucd_display.c ****                 break;
 668              		.loc 1 152 0
 669 00b6 BFE0     		b	.L28
 670              	.LVL59:
 671              	.L35:
 153:frucd_display.c ****             case BRAKE_NOT_PRESSED:
 154:frucd_display.c ****                 color = C_RED;
 155:frucd_display.c ****                 if (color != last_state_color) {
 672              		.loc 1 155 0
 673 00b8 614B     		ldr	r3, .L53+4
 674 00ba 1A68     		ldr	r2, [r3]
 675 00bc FF23     		movs	r3, #255
 676 00be 1B04     		lsls	r3, r3, #16
 677 00c0 9A42     		cmp	r2, r3
 678 00c2 09D0     		beq	.L43
 156:frucd_display.c ****                     // only draw rectangle if color changed
 157:frucd_display.c ****                     UG_FillFrame(95, 185, 240, 215, color);
 679              		.loc 1 157 0
 680 00c4 1C00     		movs	r4, r3
 681 00c6 0093     		str	r3, [sp]
 682 00c8 D723     		movs	r3, #215
 683 00ca F022     		movs	r2, #240
 684 00cc B921     		movs	r1, #185
 685 00ce 5F20     		movs	r0, #95
 686              	.LVL60:
 687 00d0 FFF7FEFF 		bl	UG_FillFrame
 688              	.LVL61:
 158:frucd_display.c ****                     last_state_color = color;
 689              		.loc 1 158 0
 690 00d4 5A4B     		ldr	r3, .L53+4
 691 00d6 1C60     		str	r4, [r3]
 692              	.L43:
ARM GAS  C:\Users\leoja\AppData\Local\Temp\cc39o2Na.s 			page 16


 159:frucd_display.c ****                 }
 160:frucd_display.c ****                 UG_PutColorString(100, 195, "BR NOT PRS", C_BLACK, color);
 693              		.loc 1 160 0
 694 00d8 FF23     		movs	r3, #255
 695 00da 1B04     		lsls	r3, r3, #16
 696 00dc 0093     		str	r3, [sp]
 697 00de 0023     		movs	r3, #0
 698 00e0 5C4A     		ldr	r2, .L53+24
 699 00e2 C321     		movs	r1, #195
 700 00e4 6420     		movs	r0, #100
 701 00e6 FFF7FEFF 		bl	UG_PutColorString
 702              	.LVL62:
 161:frucd_display.c ****                 break;
 703              		.loc 1 161 0
 704 00ea A5E0     		b	.L28
 705              	.LVL63:
 706              	.L36:
 162:frucd_display.c ****             case HV_DISABLED_WHILE_DRIVING:
 163:frucd_display.c ****                 color = C_RED;
 164:frucd_display.c ****                 if (color != last_state_color) {
 707              		.loc 1 164 0
 708 00ec 544B     		ldr	r3, .L53+4
 709 00ee 1A68     		ldr	r2, [r3]
 710 00f0 FF23     		movs	r3, #255
 711 00f2 1B04     		lsls	r3, r3, #16
 712 00f4 9A42     		cmp	r2, r3
 713 00f6 09D0     		beq	.L44
 165:frucd_display.c ****                     // only draw rectangle if color changed
 166:frucd_display.c ****                     UG_FillFrame(95, 185, 240, 215, color);
 714              		.loc 1 166 0
 715 00f8 1C00     		movs	r4, r3
 716 00fa 0093     		str	r3, [sp]
 717 00fc D723     		movs	r3, #215
 718 00fe F022     		movs	r2, #240
 719 0100 B921     		movs	r1, #185
 720 0102 5F20     		movs	r0, #95
 721              	.LVL64:
 722 0104 FFF7FEFF 		bl	UG_FillFrame
 723              	.LVL65:
 167:frucd_display.c ****                     last_state_color = color;
 724              		.loc 1 167 0
 725 0108 4D4B     		ldr	r3, .L53+4
 726 010a 1C60     		str	r4, [r3]
 727              	.L44:
 168:frucd_display.c ****                 }
 169:frucd_display.c ****                 UG_PutColorString(100, 195, "HV OFF DRV", C_BLACK, color);
 728              		.loc 1 169 0
 729 010c FF23     		movs	r3, #255
 730 010e 1B04     		lsls	r3, r3, #16
 731 0110 0093     		str	r3, [sp]
 732 0112 0023     		movs	r3, #0
 733 0114 504A     		ldr	r2, .L53+28
 734 0116 C321     		movs	r1, #195
 735 0118 6420     		movs	r0, #100
 736 011a FFF7FEFF 		bl	UG_PutColorString
 737              	.LVL66:
 170:frucd_display.c ****                 break;
ARM GAS  C:\Users\leoja\AppData\Local\Temp\cc39o2Na.s 			page 17


 738              		.loc 1 170 0
 739 011e 8BE0     		b	.L28
 740              	.LVL67:
 741              	.L37:
 171:frucd_display.c ****             case SENSOR_DISCREPANCY:
 172:frucd_display.c ****                 color = C_RED;
 173:frucd_display.c ****                 if (color != last_state_color) {
 742              		.loc 1 173 0
 743 0120 474B     		ldr	r3, .L53+4
 744 0122 1A68     		ldr	r2, [r3]
 745 0124 FF23     		movs	r3, #255
 746 0126 1B04     		lsls	r3, r3, #16
 747 0128 9A42     		cmp	r2, r3
 748 012a 09D0     		beq	.L45
 174:frucd_display.c ****                     // only draw rectangle if color changed
 175:frucd_display.c ****                     UG_FillFrame(95, 185, 240, 215, color);
 749              		.loc 1 175 0
 750 012c 1C00     		movs	r4, r3
 751 012e 0093     		str	r3, [sp]
 752 0130 D723     		movs	r3, #215
 753 0132 F022     		movs	r2, #240
 754 0134 B921     		movs	r1, #185
 755 0136 5F20     		movs	r0, #95
 756              	.LVL68:
 757 0138 FFF7FEFF 		bl	UG_FillFrame
 758              	.LVL69:
 176:frucd_display.c ****                     last_state_color = color;
 759              		.loc 1 176 0
 760 013c 404B     		ldr	r3, .L53+4
 761 013e 1C60     		str	r4, [r3]
 762              	.L45:
 177:frucd_display.c ****                 }
 178:frucd_display.c ****                 UG_PutColorString(100, 195, "SNSR DSCRP", C_BLACK, color);
 763              		.loc 1 178 0
 764 0140 FF23     		movs	r3, #255
 765 0142 1B04     		lsls	r3, r3, #16
 766 0144 0093     		str	r3, [sp]
 767 0146 0023     		movs	r3, #0
 768 0148 444A     		ldr	r2, .L53+32
 769 014a C321     		movs	r1, #195
 770 014c 6420     		movs	r0, #100
 771 014e FFF7FEFF 		bl	UG_PutColorString
 772              	.LVL70:
 179:frucd_display.c ****                 break;
 773              		.loc 1 179 0
 774 0152 71E0     		b	.L28
 775              	.LVL71:
 776              	.L38:
 180:frucd_display.c ****             case BRAKE_IMPLAUSIBLE:
 181:frucd_display.c ****                 color = C_YELLOW;
 182:frucd_display.c ****                 if (color != last_state_color) {
 777              		.loc 1 182 0
 778 0154 3A4B     		ldr	r3, .L53+4
 779 0156 1A68     		ldr	r2, [r3]
 780 0158 3A4B     		ldr	r3, .L53+8
 781 015a 9A42     		cmp	r2, r3
 782 015c 09D0     		beq	.L46
ARM GAS  C:\Users\leoja\AppData\Local\Temp\cc39o2Na.s 			page 18


 183:frucd_display.c ****                     // only draw rectangle if color changed
 184:frucd_display.c ****                     UG_FillFrame(95, 185, 240, 215, color);
 783              		.loc 1 184 0
 784 015e 1C00     		movs	r4, r3
 785 0160 0093     		str	r3, [sp]
 786 0162 D723     		movs	r3, #215
 787 0164 F022     		movs	r2, #240
 788 0166 B921     		movs	r1, #185
 789 0168 5F20     		movs	r0, #95
 790              	.LVL72:
 791 016a FFF7FEFF 		bl	UG_FillFrame
 792              	.LVL73:
 185:frucd_display.c ****                     last_state_color = color;
 793              		.loc 1 185 0
 794 016e 344B     		ldr	r3, .L53+4
 795 0170 1C60     		str	r4, [r3]
 796              	.L46:
 186:frucd_display.c ****                 }
 187:frucd_display.c ****                 UG_PutColorString(100, 195, "BSPD TRIPD", C_BLACK, color); //whitespace to clear
 797              		.loc 1 187 0
 798 0172 344B     		ldr	r3, .L53+8
 799 0174 0093     		str	r3, [sp]
 800 0176 0023     		movs	r3, #0
 801 0178 394A     		ldr	r2, .L53+36
 802 017a C321     		movs	r1, #195
 803 017c 6420     		movs	r0, #100
 804 017e FFF7FEFF 		bl	UG_PutColorString
 805              	.LVL74:
 188:frucd_display.c ****                 break;
 806              		.loc 1 188 0
 807 0182 59E0     		b	.L28
 808              	.LVL75:
 809              	.L39:
 189:frucd_display.c ****             case ESTOP:
 190:frucd_display.c ****                 color = C_RED;
 191:frucd_display.c ****                 if (color != last_state_color) {
 810              		.loc 1 191 0
 811 0184 2E4B     		ldr	r3, .L53+4
 812 0186 1A68     		ldr	r2, [r3]
 813 0188 FF23     		movs	r3, #255
 814 018a 1B04     		lsls	r3, r3, #16
 815 018c 9A42     		cmp	r2, r3
 816 018e 09D0     		beq	.L47
 192:frucd_display.c ****                     // only draw rectangle if color changed
 193:frucd_display.c ****                     UG_FillFrame(95, 185, 240, 215, color);
 817              		.loc 1 193 0
 818 0190 1C00     		movs	r4, r3
 819 0192 0093     		str	r3, [sp]
 820 0194 D723     		movs	r3, #215
 821 0196 F022     		movs	r2, #240
 822 0198 B921     		movs	r1, #185
 823 019a 5F20     		movs	r0, #95
 824              	.LVL76:
 825 019c FFF7FEFF 		bl	UG_FillFrame
 826              	.LVL77:
 194:frucd_display.c ****                     last_state_color = color;
 827              		.loc 1 194 0
ARM GAS  C:\Users\leoja\AppData\Local\Temp\cc39o2Na.s 			page 19


 828 01a0 274B     		ldr	r3, .L53+4
 829 01a2 1C60     		str	r4, [r3]
 830              	.L47:
 195:frucd_display.c ****                 }
 196:frucd_display.c ****                 UG_PutColorString(100, 195, "SHTDWN OPN", C_BLACK, color); //whitespace to clear
 831              		.loc 1 196 0
 832 01a4 FF23     		movs	r3, #255
 833 01a6 1B04     		lsls	r3, r3, #16
 834 01a8 0093     		str	r3, [sp]
 835 01aa 0023     		movs	r3, #0
 836 01ac 2D4A     		ldr	r2, .L53+40
 837 01ae C321     		movs	r1, #195
 838 01b0 6420     		movs	r0, #100
 839 01b2 FFF7FEFF 		bl	UG_PutColorString
 840              	.LVL78:
 197:frucd_display.c ****                 break;
 841              		.loc 1 197 0
 842 01b6 3FE0     		b	.L28
 843              	.LVL79:
 844              	.L29:
 845              	.LBE3:
 198:frucd_display.c ****         }
 199:frucd_display.c ****         
 200:frucd_display.c ****     } else {
 201:frucd_display.c ****         // *************** NO FAULTS ***************
 202:frucd_display.c ****         color = C_GREEN;
 203:frucd_display.c ****         if (color != last_state_color) {
 846              		.loc 1 203 0
 847 01b8 214B     		ldr	r3, .L53+4
 848 01ba 1A68     		ldr	r2, [r3]
 849 01bc FF23     		movs	r3, #255
 850 01be 1B02     		lsls	r3, r3, #8
 851 01c0 9A42     		cmp	r2, r3
 852 01c2 09D0     		beq	.L48
 204:frucd_display.c ****             // only draw rectangle if color changed
 205:frucd_display.c ****             UG_FillFrame(95, 185, 240, 215, color);
 853              		.loc 1 205 0
 854 01c4 1D00     		movs	r5, r3
 855 01c6 0093     		str	r3, [sp]
 856 01c8 D723     		movs	r3, #215
 857 01ca F022     		movs	r2, #240
 858 01cc B921     		movs	r1, #185
 859 01ce 5F20     		movs	r0, #95
 860              	.LVL80:
 861 01d0 FFF7FEFF 		bl	UG_FillFrame
 862              	.LVL81:
 206:frucd_display.c ****             last_state_color = color;
 863              		.loc 1 206 0
 864 01d4 1A4B     		ldr	r3, .L53+4
 865 01d6 1D60     		str	r5, [r3]
 866              	.L48:
 207:frucd_display.c ****         }
 208:frucd_display.c ****         switch(state) {
 867              		.loc 1 208 0
 868 01d8 012C     		cmp	r4, #1
 869 01da 10D0     		beq	.L49
 870 01dc 002C     		cmp	r4, #0
ARM GAS  C:\Users\leoja\AppData\Local\Temp\cc39o2Na.s 			page 20


 871 01de 04D0     		beq	.L50
 872 01e0 022C     		cmp	r4, #2
 873 01e2 16D0     		beq	.L51
 874 01e4 032C     		cmp	r4, #3
 875 01e6 1ED0     		beq	.L52
 876 01e8 26E0     		b	.L28
 877              	.L50:
 209:frucd_display.c ****             case LV:
 210:frucd_display.c ****                 UG_PutColorString(100, 195, "    LV    ", C_BLACK, color);
 878              		.loc 1 210 0
 879 01ea FF23     		movs	r3, #255
 880 01ec 1B02     		lsls	r3, r3, #8
 881 01ee 0093     		str	r3, [sp]
 882 01f0 0023     		movs	r3, #0
 883 01f2 1D4A     		ldr	r2, .L53+44
 884 01f4 C321     		movs	r1, #195
 885 01f6 6420     		movs	r0, #100
 886 01f8 FFF7FEFF 		bl	UG_PutColorString
 887              	.LVL82:
 211:frucd_display.c ****                 break;
 888              		.loc 1 211 0
 889 01fc 1CE0     		b	.L28
 890              	.L49:
 212:frucd_display.c ****             case PRECHARGING:
 213:frucd_display.c ****                 UG_PutColorString(100, 195, "PRECHARGE ", C_BLACK, color);
 891              		.loc 1 213 0
 892 01fe FF23     		movs	r3, #255
 893 0200 1B02     		lsls	r3, r3, #8
 894 0202 0093     		str	r3, [sp]
 895 0204 0023     		movs	r3, #0
 896 0206 194A     		ldr	r2, .L53+48
 897 0208 C321     		movs	r1, #195
 898 020a 6420     		movs	r0, #100
 899 020c FFF7FEFF 		bl	UG_PutColorString
 900              	.LVL83:
 214:frucd_display.c ****                 break;
 901              		.loc 1 214 0
 902 0210 12E0     		b	.L28
 903              	.L51:
 215:frucd_display.c ****             case HV_ENABLED:
 216:frucd_display.c ****                 UG_PutColorString(100, 195, "HV ENABLED", C_BLACK, color);
 904              		.loc 1 216 0
 905 0212 FF23     		movs	r3, #255
 906 0214 1B02     		lsls	r3, r3, #8
 907 0216 0093     		str	r3, [sp]
 908 0218 0023     		movs	r3, #0
 909 021a 154A     		ldr	r2, .L53+52
 910 021c C321     		movs	r1, #195
 911 021e 6420     		movs	r0, #100
 912 0220 FFF7FEFF 		bl	UG_PutColorString
 913              	.LVL84:
 217:frucd_display.c ****                 break;
 914              		.loc 1 217 0
 915 0224 08E0     		b	.L28
 916              	.L52:
 218:frucd_display.c ****             case DRIVE:
 219:frucd_display.c ****                 UG_PutColorString(100, 195, "  DRIVE   ", C_BLACK, color);
ARM GAS  C:\Users\leoja\AppData\Local\Temp\cc39o2Na.s 			page 21


 917              		.loc 1 219 0
 918 0226 FF23     		movs	r3, #255
 919 0228 1B02     		lsls	r3, r3, #8
 920 022a 0093     		str	r3, [sp]
 921 022c 0023     		movs	r3, #0
 922 022e 114A     		ldr	r2, .L53+56
 923 0230 C321     		movs	r1, #195
 924 0232 6420     		movs	r0, #100
 925 0234 FFF7FEFF 		bl	UG_PutColorString
 926              	.LVL85:
 927              	.L28:
 220:frucd_display.c ****                 break;
 221:frucd_display.c ****         }
 222:frucd_display.c ****     }
 223:frucd_display.c **** }
 928              		.loc 1 223 0
 929 0238 03B0     		add	sp, sp, #12
 930              		@ sp needed
 931 023a 30BD     		pop	{r4, r5, pc}
 932              	.L54:
 933              		.align	2
 934              	.L53:
 935 023c 00000000 		.word	.L32
 936 0240 00000000 		.word	last_state_color
 937 0244 00FFFF00 		.word	16776960
 938 0248 48000000 		.word	.LC25
 939 024c 54000000 		.word	.LC27
 940 0250 60000000 		.word	.LC29
 941 0254 6C000000 		.word	.LC31
 942 0258 78000000 		.word	.LC33
 943 025c 84000000 		.word	.LC35
 944 0260 90000000 		.word	.LC37
 945 0264 9C000000 		.word	.LC39
 946 0268 A8000000 		.word	.LC41
 947 026c B4000000 		.word	.LC43
 948 0270 C0000000 		.word	.LC45
 949 0274 CC000000 		.word	.LC47
 950              		.cfi_endproc
 951              	.LFE39:
 952              		.size	disp_state, .-disp_state
 953              		.global	__aeabi_uidiv
 954              		.section	.text.disp_glv_v,"ax",%progbits
 955              		.align	2
 956              		.global	disp_glv_v
 957              		.code	16
 958              		.thumb_func
 959              		.type	disp_glv_v, %function
 960              	disp_glv_v:
 961              	.LFB40:
 224:frucd_display.c **** 
 225:frucd_display.c **** void disp_glv_v(uint32_t data) {
 962              		.loc 1 225 0
 963              		.cfi_startproc
 964              		@ args = 0, pretend = 0, frame = 8
 965              		@ frame_needed = 0, uses_anonymous_args = 0
 966              	.LVL86:
 967 0000 30B5     		push	{r4, r5, lr}
ARM GAS  C:\Users\leoja\AppData\Local\Temp\cc39o2Na.s 			page 22


 968              		.cfi_def_cfa_offset 12
 969              		.cfi_offset 4, -12
 970              		.cfi_offset 5, -8
 971              		.cfi_offset 14, -4
 972 0002 85B0     		sub	sp, sp, #20
 973              		.cfi_def_cfa_offset 32
 226:frucd_display.c ****     // translate from voltage divider measurement to true voltage
 227:frucd_display.c ****     // y = 0.4295x + 18.254
 228:frucd_display.c ****     data *= 859;
 974              		.loc 1 228 0
 975 0004 254B     		ldr	r3, .L62
 976 0006 5843     		muls	r0, r3
 977              	.LVL87:
 229:frucd_display.c ****     data /= 2000; // 0.4295
 978              		.loc 1 229 0
 979 0008 FA21     		movs	r1, #250
 980 000a C900     		lsls	r1, r1, #3
 981 000c FFF7FEFF 		bl	__aeabi_uidiv
 982              	.LVL88:
 230:frucd_display.c ****     data += 18;
 983              		.loc 1 230 0
 984 0010 1230     		adds	r0, r0, #18
 985              	.LVL89:
 986 0012 0400     		movs	r4, r0
 987              	.LVL90:
 231:frucd_display.c ****     UG_COLOR color;
 232:frucd_display.c ****     if (data > 1150) {
 988              		.loc 1 232 0
 989 0014 224B     		ldr	r3, .L62+4
 990 0016 9842     		cmp	r0, r3
 991 0018 07D8     		bhi	.L59
 233:frucd_display.c ****         color = C_GREEN;
 234:frucd_display.c ****     } else if (data > 1100) {
 992              		.loc 1 234 0
 993 001a 224B     		ldr	r3, .L62+8
 994 001c 9842     		cmp	r0, r3
 995 001e 07D8     		bhi	.L60
 235:frucd_display.c ****         color = C_YELLOW;
 236:frucd_display.c ****     } else if (data > 1050) {
 996              		.loc 1 236 0
 997 0020 214B     		ldr	r3, .L62+12
 998 0022 9842     		cmp	r0, r3
 999 0024 06D9     		bls	.L61
 237:frucd_display.c ****         color = C_ORANGE;
 1000              		.loc 1 237 0
 1001 0026 214D     		ldr	r5, .L62+16
 1002 0028 06E0     		b	.L56
 1003              	.L59:
 233:frucd_display.c ****         color = C_GREEN;
 1004              		.loc 1 233 0
 1005 002a FF25     		movs	r5, #255
 1006 002c 2D02     		lsls	r5, r5, #8
 1007 002e 03E0     		b	.L56
 1008              	.L60:
 235:frucd_display.c ****         color = C_YELLOW;
 1009              		.loc 1 235 0
 1010 0030 1F4D     		ldr	r5, .L62+20
ARM GAS  C:\Users\leoja\AppData\Local\Temp\cc39o2Na.s 			page 23


 1011 0032 01E0     		b	.L56
 1012              	.L61:
 238:frucd_display.c ****     } else {
 239:frucd_display.c ****         color = C_RED;
 1013              		.loc 1 239 0
 1014 0034 FF25     		movs	r5, #255
 1015 0036 2D04     		lsls	r5, r5, #16
 1016              	.L56:
 1017              	.LVL91:
 240:frucd_display.c ****     }
 241:frucd_display.c ****     if (color != last_glv_v_color) {
 1018              		.loc 1 241 0
 1019 0038 1E4B     		ldr	r3, .L62+24
 1020 003a 1B68     		ldr	r3, [r3]
 1021 003c 9D42     		cmp	r5, r3
 1022 003e 09D0     		beq	.L57
 242:frucd_display.c ****         // only draw rectangle if color changed
 243:frucd_display.c ****         UG_FillFrame(95, 230, 182, 260, color);
 1023              		.loc 1 243 0
 1024 0040 0095     		str	r5, [sp]
 1025 0042 8223     		movs	r3, #130
 1026 0044 5B00     		lsls	r3, r3, #1
 1027 0046 B622     		movs	r2, #182
 1028 0048 E621     		movs	r1, #230
 1029 004a 5F20     		movs	r0, #95
 1030              	.LVL92:
 1031 004c FFF7FEFF 		bl	UG_FillFrame
 1032              	.LVL93:
 244:frucd_display.c ****         last_glv_v_color = color;
 1033              		.loc 1 244 0
 1034 0050 184B     		ldr	r3, .L62+24
 1035 0052 1D60     		str	r5, [r3]
 1036              	.L57:
 245:frucd_display.c ****     }
 246:frucd_display.c ****     char data_s[7];
 247:frucd_display.c ****     sprintf(data_s, "%d", data);
 1037              		.loc 1 247 0
 1038 0054 2200     		movs	r2, r4
 1039 0056 1849     		ldr	r1, .L62+28
 1040 0058 02A8     		add	r0, sp, #8
 1041 005a FFF7FEFF 		bl	sprintf
 1042              	.LVL94:
 248:frucd_display.c ****     // handle 3 digit cases; 2 and 1 are practically impossible
 249:frucd_display.c ****     if (data < 1000) {
 1043              		.loc 1 249 0
 1044 005e 174B     		ldr	r3, .L62+32
 1045 0060 9C42     		cmp	r4, r3
 1046 0062 08D8     		bhi	.L58
 250:frucd_display.c ****         data_s[3] = data_s[2];
 1047              		.loc 1 250 0
 1048 0064 02AB     		add	r3, sp, #8
 1049 0066 9A78     		ldrb	r2, [r3, #2]
 1050 0068 DA70     		strb	r2, [r3, #3]
 251:frucd_display.c ****         data_s[2] = data_s[1];
 1051              		.loc 1 251 0
 1052 006a 5A78     		ldrb	r2, [r3, #1]
 1053 006c 9A70     		strb	r2, [r3, #2]
ARM GAS  C:\Users\leoja\AppData\Local\Temp\cc39o2Na.s 			page 24


 252:frucd_display.c ****         data_s[1] = data_s[0];  
 1054              		.loc 1 252 0
 1055 006e 1A78     		ldrb	r2, [r3]
 1056 0070 5A70     		strb	r2, [r3, #1]
 253:frucd_display.c ****         data_s[0] = ' ';
 1057              		.loc 1 253 0
 1058 0072 2022     		movs	r2, #32
 1059 0074 1A70     		strb	r2, [r3]
 1060              	.L58:
 254:frucd_display.c ****     }
 255:frucd_display.c ****     // shift over fractional part
 256:frucd_display.c ****     data_s[4] = data_s[3];
 1061              		.loc 1 256 0
 1062 0076 02AA     		add	r2, sp, #8
 1063 0078 D378     		ldrb	r3, [r2, #3]
 1064 007a 1371     		strb	r3, [r2, #4]
 257:frucd_display.c ****     data_s[3] = data_s[2];
 1065              		.loc 1 257 0
 1066 007c 9378     		ldrb	r3, [r2, #2]
 1067 007e D370     		strb	r3, [r2, #3]
 258:frucd_display.c ****     // add syntax
 259:frucd_display.c ****     data_s[2] = '.';
 1068              		.loc 1 259 0
 1069 0080 2E23     		movs	r3, #46
 1070 0082 9370     		strb	r3, [r2, #2]
 260:frucd_display.c ****     data_s[5] = 'V';
 1071              		.loc 1 260 0
 1072 0084 2833     		adds	r3, r3, #40
 1073 0086 5371     		strb	r3, [r2, #5]
 261:frucd_display.c ****     data_s[6] = '\0';
 1074              		.loc 1 261 0
 1075 0088 0023     		movs	r3, #0
 1076 008a 9371     		strb	r3, [r2, #6]
 262:frucd_display.c ****     UG_PutColorString(100, 240, data_s, C_BLACK, color);
 1077              		.loc 1 262 0
 1078 008c 0095     		str	r5, [sp]
 1079 008e F021     		movs	r1, #240
 1080 0090 6420     		movs	r0, #100
 1081 0092 FFF7FEFF 		bl	UG_PutColorString
 1082              	.LVL95:
 263:frucd_display.c **** }
 1083              		.loc 1 263 0
 1084 0096 05B0     		add	sp, sp, #20
 1085              		@ sp needed
 1086              	.LVL96:
 1087              	.LVL97:
 1088 0098 30BD     		pop	{r4, r5, pc}
 1089              	.L63:
 1090 009a C046     		.align	2
 1091              	.L62:
 1092 009c 5B030000 		.word	859
 1093 00a0 7E040000 		.word	1150
 1094 00a4 4C040000 		.word	1100
 1095 00a8 1A040000 		.word	1050
 1096 00ac 00A5FF00 		.word	16753920
 1097 00b0 00FFFF00 		.word	16776960
 1098 00b4 00000000 		.word	last_glv_v_color
ARM GAS  C:\Users\leoja\AppData\Local\Temp\cc39o2Na.s 			page 25


 1099 00b8 44000000 		.word	.LC16
 1100 00bc E7030000 		.word	999
 1101              		.cfi_endproc
 1102              	.LFE40:
 1103              		.size	disp_glv_v, .-disp_glv_v
 1104              		.section	.text.disp_mc_temp,"ax",%progbits
 1105              		.align	2
 1106              		.global	disp_mc_temp
 1107              		.code	16
 1108              		.thumb_func
 1109              		.type	disp_mc_temp, %function
 1110              	disp_mc_temp:
 1111              	.LFB41:
 264:frucd_display.c **** 
 265:frucd_display.c **** void disp_mc_temp(uint16_t data) {
 1112              		.loc 1 265 0
 1113              		.cfi_startproc
 1114              		@ args = 0, pretend = 0, frame = 8
 1115              		@ frame_needed = 0, uses_anonymous_args = 0
 1116              	.LVL98:
 1117 0000 70B5     		push	{r4, r5, r6, lr}
 1118              		.cfi_def_cfa_offset 16
 1119              		.cfi_offset 4, -16
 1120              		.cfi_offset 5, -12
 1121              		.cfi_offset 6, -8
 1122              		.cfi_offset 14, -4
 1123 0002 84B0     		sub	sp, sp, #16
 1124              		.cfi_def_cfa_offset 32
 1125 0004 0500     		movs	r5, r0
 266:frucd_display.c ****     if (data >= 100) {
 1126              		.loc 1 266 0
 1127 0006 6328     		cmp	r0, #99
 1128 0008 1CD9     		bls	.L65
 1129              	.LBB4:
 267:frucd_display.c ****         // handle 3 digit cases
 268:frucd_display.c ****         UG_FillFrame(410, 185, 470, 215, C_GREEN);
 1130              		.loc 1 268 0
 1131 000a FF26     		movs	r6, #255
 1132 000c 3602     		lsls	r6, r6, #8
 1133 000e 0096     		str	r6, [sp]
 1134 0010 D723     		movs	r3, #215
 1135 0012 EB22     		movs	r2, #235
 1136 0014 5200     		lsls	r2, r2, #1
 1137 0016 B921     		movs	r1, #185
 1138 0018 CD20     		movs	r0, #205
 1139              	.LVL99:
 1140 001a 4000     		lsls	r0, r0, #1
 1141 001c FFF7FEFF 		bl	UG_FillFrame
 1142              	.LVL100:
 269:frucd_display.c ****         char data_s[5];
 270:frucd_display.c ****         sprintf(data_s, "%d", data);
 1143              		.loc 1 270 0
 1144 0020 02AC     		add	r4, sp, #8
 1145 0022 2A00     		movs	r2, r5
 1146 0024 1649     		ldr	r1, .L67
 1147 0026 2000     		movs	r0, r4
 1148 0028 FFF7FEFF 		bl	sprintf
ARM GAS  C:\Users\leoja\AppData\Local\Temp\cc39o2Na.s 			page 26


 1149              	.LVL101:
 271:frucd_display.c ****         data_s[3] = 'C';
 1150              		.loc 1 271 0
 1151 002c 4323     		movs	r3, #67
 1152 002e E370     		strb	r3, [r4, #3]
 272:frucd_display.c ****         data_s[4] = '\0';
 1153              		.loc 1 272 0
 1154 0030 0023     		movs	r3, #0
 1155 0032 2371     		strb	r3, [r4, #4]
 273:frucd_display.c ****         UG_PutColorString(415, 195, data_s, C_BLACK, C_GREEN);
 1156              		.loc 1 273 0
 1157 0034 0096     		str	r6, [sp]
 1158 0036 2200     		movs	r2, r4
 1159 0038 C321     		movs	r1, #195
 1160 003a A020     		movs	r0, #160
 1161 003c FF30     		adds	r0, r0, #255
 1162 003e FFF7FEFF 		bl	UG_PutColorString
 1163              	.LVL102:
 1164              	.LBE4:
 1165 0042 1BE0     		b	.L64
 1166              	.LVL103:
 1167              	.L65:
 1168              	.LBB5:
 274:frucd_display.c ****     } else {
 275:frucd_display.c ****         // handle 2 digit cases
 276:frucd_display.c ****         UG_FillFrame(410, 185, 470, 215, C_GREEN);
 1169              		.loc 1 276 0
 1170 0044 FF26     		movs	r6, #255
 1171 0046 3602     		lsls	r6, r6, #8
 1172 0048 0096     		str	r6, [sp]
 1173 004a D723     		movs	r3, #215
 1174 004c EB22     		movs	r2, #235
 1175 004e 5200     		lsls	r2, r2, #1
 1176 0050 B921     		movs	r1, #185
 1177 0052 CD20     		movs	r0, #205
 1178              	.LVL104:
 1179 0054 4000     		lsls	r0, r0, #1
 1180 0056 FFF7FEFF 		bl	UG_FillFrame
 1181              	.LVL105:
 277:frucd_display.c ****         char data_s[4];
 278:frucd_display.c ****         sprintf(data_s, "%d", data);
 1182              		.loc 1 278 0
 1183 005a 02AC     		add	r4, sp, #8
 1184 005c 2A00     		movs	r2, r5
 1185 005e 0849     		ldr	r1, .L67
 1186 0060 2000     		movs	r0, r4
 1187 0062 FFF7FEFF 		bl	sprintf
 1188              	.LVL106:
 279:frucd_display.c ****         data_s[2] = 'C';
 1189              		.loc 1 279 0
 1190 0066 4323     		movs	r3, #67
 1191 0068 A370     		strb	r3, [r4, #2]
 280:frucd_display.c ****         data_s[3] = '\0';
 1192              		.loc 1 280 0
 1193 006a 0023     		movs	r3, #0
 1194 006c E370     		strb	r3, [r4, #3]
 281:frucd_display.c ****         UG_PutColorString(422, 195, data_s, C_BLACK, C_GREEN);
ARM GAS  C:\Users\leoja\AppData\Local\Temp\cc39o2Na.s 			page 27


 1195              		.loc 1 281 0
 1196 006e 0096     		str	r6, [sp]
 1197 0070 2200     		movs	r2, r4
 1198 0072 C321     		movs	r1, #195
 1199 0074 D320     		movs	r0, #211
 1200 0076 4000     		lsls	r0, r0, #1
 1201 0078 FFF7FEFF 		bl	UG_PutColorString
 1202              	.LVL107:
 1203              	.L64:
 1204              	.LBE5:
 282:frucd_display.c ****     }
 283:frucd_display.c **** }
 1205              		.loc 1 283 0
 1206 007c 04B0     		add	sp, sp, #16
 1207              		@ sp needed
 1208 007e 70BD     		pop	{r4, r5, r6, pc}
 1209              	.L68:
 1210              		.align	2
 1211              	.L67:
 1212 0080 44000000 		.word	.LC16
 1213              		.cfi_endproc
 1214              	.LFE41:
 1215              		.size	disp_mc_temp, .-disp_mc_temp
 1216              		.section	.text.disp_motor_temp,"ax",%progbits
 1217              		.align	2
 1218              		.global	disp_motor_temp
 1219              		.code	16
 1220              		.thumb_func
 1221              		.type	disp_motor_temp, %function
 1222              	disp_motor_temp:
 1223              	.LFB42:
 284:frucd_display.c **** 
 285:frucd_display.c **** void disp_motor_temp(uint16_t data) {
 1224              		.loc 1 285 0
 1225              		.cfi_startproc
 1226              		@ args = 0, pretend = 0, frame = 8
 1227              		@ frame_needed = 0, uses_anonymous_args = 0
 1228              	.LVL108:
 1229 0000 70B5     		push	{r4, r5, r6, lr}
 1230              		.cfi_def_cfa_offset 16
 1231              		.cfi_offset 4, -16
 1232              		.cfi_offset 5, -12
 1233              		.cfi_offset 6, -8
 1234              		.cfi_offset 14, -4
 1235 0002 84B0     		sub	sp, sp, #16
 1236              		.cfi_def_cfa_offset 32
 1237 0004 0500     		movs	r5, r0
 286:frucd_display.c ****     if (data >= 100) {
 1238              		.loc 1 286 0
 1239 0006 6328     		cmp	r0, #99
 1240 0008 1DD9     		bls	.L70
 1241              	.LBB6:
 287:frucd_display.c ****         // handle 3 digit cases
 288:frucd_display.c ****         UG_FillFrame(410, 230, 470, 260, C_GREEN);
 1242              		.loc 1 288 0
 1243 000a FF26     		movs	r6, #255
 1244 000c 3602     		lsls	r6, r6, #8
ARM GAS  C:\Users\leoja\AppData\Local\Temp\cc39o2Na.s 			page 28


 1245 000e 0096     		str	r6, [sp]
 1246 0010 8223     		movs	r3, #130
 1247 0012 5B00     		lsls	r3, r3, #1
 1248 0014 EB22     		movs	r2, #235
 1249 0016 5200     		lsls	r2, r2, #1
 1250 0018 E621     		movs	r1, #230
 1251 001a CD20     		movs	r0, #205
 1252              	.LVL109:
 1253 001c 4000     		lsls	r0, r0, #1
 1254 001e FFF7FEFF 		bl	UG_FillFrame
 1255              	.LVL110:
 289:frucd_display.c ****         char data_s[5];
 290:frucd_display.c ****         sprintf(data_s, "%d", data);
 1256              		.loc 1 290 0
 1257 0022 02AC     		add	r4, sp, #8
 1258 0024 2A00     		movs	r2, r5
 1259 0026 1749     		ldr	r1, .L72
 1260 0028 2000     		movs	r0, r4
 1261 002a FFF7FEFF 		bl	sprintf
 1262              	.LVL111:
 291:frucd_display.c ****         data_s[3] = 'C';
 1263              		.loc 1 291 0
 1264 002e 4323     		movs	r3, #67
 1265 0030 E370     		strb	r3, [r4, #3]
 292:frucd_display.c ****         data_s[4] = '\0';
 1266              		.loc 1 292 0
 1267 0032 0023     		movs	r3, #0
 1268 0034 2371     		strb	r3, [r4, #4]
 293:frucd_display.c ****         UG_PutColorString(415, 240, data_s, C_BLACK, C_GREEN);
 1269              		.loc 1 293 0
 1270 0036 0096     		str	r6, [sp]
 1271 0038 2200     		movs	r2, r4
 1272 003a F021     		movs	r1, #240
 1273 003c A020     		movs	r0, #160
 1274 003e FF30     		adds	r0, r0, #255
 1275 0040 FFF7FEFF 		bl	UG_PutColorString
 1276              	.LVL112:
 1277              	.LBE6:
 1278 0044 1CE0     		b	.L69
 1279              	.LVL113:
 1280              	.L70:
 1281              	.LBB7:
 294:frucd_display.c ****     } else {
 295:frucd_display.c ****         // handle 2 digit cases
 296:frucd_display.c ****         UG_FillFrame(410, 230, 470, 260, C_GREEN);
 1282              		.loc 1 296 0
 1283 0046 FF26     		movs	r6, #255
 1284 0048 3602     		lsls	r6, r6, #8
 1285 004a 0096     		str	r6, [sp]
 1286 004c 8223     		movs	r3, #130
 1287 004e 5B00     		lsls	r3, r3, #1
 1288 0050 EB22     		movs	r2, #235
 1289 0052 5200     		lsls	r2, r2, #1
 1290 0054 E621     		movs	r1, #230
 1291 0056 CD20     		movs	r0, #205
 1292              	.LVL114:
 1293 0058 4000     		lsls	r0, r0, #1
ARM GAS  C:\Users\leoja\AppData\Local\Temp\cc39o2Na.s 			page 29


 1294 005a FFF7FEFF 		bl	UG_FillFrame
 1295              	.LVL115:
 297:frucd_display.c ****         char data_s[4];
 298:frucd_display.c ****         sprintf(data_s, "%d", data);
 1296              		.loc 1 298 0
 1297 005e 02AC     		add	r4, sp, #8
 1298 0060 2A00     		movs	r2, r5
 1299 0062 0849     		ldr	r1, .L72
 1300 0064 2000     		movs	r0, r4
 1301 0066 FFF7FEFF 		bl	sprintf
 1302              	.LVL116:
 299:frucd_display.c ****         data_s[2] = 'C';
 1303              		.loc 1 299 0
 1304 006a 4323     		movs	r3, #67
 1305 006c A370     		strb	r3, [r4, #2]
 300:frucd_display.c ****         data_s[3] = '\0';
 1306              		.loc 1 300 0
 1307 006e 0023     		movs	r3, #0
 1308 0070 E370     		strb	r3, [r4, #3]
 301:frucd_display.c ****         UG_PutColorString(422, 240, data_s, C_BLACK, C_GREEN);
 1309              		.loc 1 301 0
 1310 0072 0096     		str	r6, [sp]
 1311 0074 2200     		movs	r2, r4
 1312 0076 F021     		movs	r1, #240
 1313 0078 D320     		movs	r0, #211
 1314 007a 4000     		lsls	r0, r0, #1
 1315 007c FFF7FEFF 		bl	UG_PutColorString
 1316              	.LVL117:
 1317              	.L69:
 1318              	.LBE7:
 302:frucd_display.c ****     }
 303:frucd_display.c **** }
 1319              		.loc 1 303 0
 1320 0080 04B0     		add	sp, sp, #16
 1321              		@ sp needed
 1322 0082 70BD     		pop	{r4, r5, r6, pc}
 1323              	.L73:
 1324              		.align	2
 1325              	.L72:
 1326 0084 44000000 		.word	.LC16
 1327              		.cfi_endproc
 1328              	.LFE42:
 1329              		.size	disp_motor_temp, .-disp_motor_temp
 1330              		.comm	last_motor_temp_color,4,4
 1331              		.comm	last_mc_temp_color,4,4
 1332              		.comm	last_glv_v_color,4,4
 1333              		.comm	last_state_color,4,4
 1334              		.comm	last_max_pack_temp_color,4,4
 1335              		.comm	last_SOC_color,4,4
 1336              		.comm	gui1963,120,4
 1337              		.section	.rodata.str1.4,"aMS",%progbits,1
 1338              		.align	2
 1339              	.LC0:
 1340 0000 5041434B 		.ascii	"PACK SOC\000"
 1340      20534F43 
 1340      00
 1341 0009 000000   		.space	3
ARM GAS  C:\Users\leoja\AppData\Local\Temp\cc39o2Na.s 			page 30


 1342              	.LC2:
 1343 000c 4D415820 		.ascii	"MAX PACK T\000"
 1343      5041434B 
 1343      205400
 1344 0017 00       		.space	1
 1345              	.LC4:
 1346 0018 53544154 		.ascii	"STATE:\000"
 1346      453A00
 1347 001f 00       		.space	1
 1348              	.LC6:
 1349 0020 474C5620 		.ascii	"GLV V:\000"
 1349      563A00
 1350 0027 00       		.space	1
 1351              	.LC8:
 1352 0028 4D432054 		.ascii	"MC T:\000"
 1352      3A00
 1353 002e 0000     		.space	2
 1354              	.LC10:
 1355 0030 4D4F544F 		.ascii	"MOTOR T:\000"
 1355      5220543A 
 1355      00
 1356 0039 000000   		.space	3
 1357              	.LC14:
 1358 003c 31303025 		.ascii	"100%\000"
 1358      00
 1359 0041 000000   		.space	3
 1360              	.LC16:
 1361 0044 256400   		.ascii	"%d\000"
 1362 0047 00       		.space	1
 1363              	.LC25:
 1364 0048 20535441 		.ascii	" STARTUP  \000"
 1364      52545550 
 1364      202000
 1365 0053 00       		.space	1
 1366              	.LC27:
 1367 0054 44525620 		.ascii	"DRV FRM LV\000"
 1367      46524D20 
 1367      4C5600
 1368 005f 00       		.space	1
 1369              	.LC29:
 1370 0060 50524520 		.ascii	"PRE TM OUT\000"
 1370      544D204F 
 1370      555400
 1371 006b 00       		.space	1
 1372              	.LC31:
 1373 006c 4252204E 		.ascii	"BR NOT PRS\000"
 1373      4F542050 
 1373      525300
 1374 0077 00       		.space	1
 1375              	.LC33:
 1376 0078 4856204F 		.ascii	"HV OFF DRV\000"
 1376      46462044 
 1376      525600
 1377 0083 00       		.space	1
 1378              	.LC35:
 1379 0084 534E5352 		.ascii	"SNSR DSCRP\000"
 1379      20445343 
ARM GAS  C:\Users\leoja\AppData\Local\Temp\cc39o2Na.s 			page 31


 1379      525000
 1380 008f 00       		.space	1
 1381              	.LC37:
 1382 0090 42535044 		.ascii	"BSPD TRIPD\000"
 1382      20545249 
 1382      504400
 1383 009b 00       		.space	1
 1384              	.LC39:
 1385 009c 53485444 		.ascii	"SHTDWN OPN\000"
 1385      574E204F 
 1385      504E00
 1386 00a7 00       		.space	1
 1387              	.LC41:
 1388 00a8 20202020 		.ascii	"    LV    \000"
 1388      4C562020 
 1388      202000
 1389 00b3 00       		.space	1
 1390              	.LC43:
 1391 00b4 50524543 		.ascii	"PRECHARGE \000"
 1391      48415247 
 1391      452000
 1392 00bf 00       		.space	1
 1393              	.LC45:
 1394 00c0 48562045 		.ascii	"HV ENABLED\000"
 1394      4E41424C 
 1394      454400
 1395 00cb 00       		.space	1
 1396              	.LC47:
 1397 00cc 20204452 		.ascii	"  DRIVE   \000"
 1397      49564520 
 1397      202000
 1398              		.text
 1399              	.Letext0:
 1400              		.file 2 "c:\\program files (x86)\\cypress\\psoc creator\\4.4\\psoc creator\\import\\gnu\\arm\\5.4.
 1401              		.file 3 "c:\\program files (x86)\\cypress\\psoc creator\\4.4\\psoc creator\\import\\gnu\\arm\\5.4.
 1402              		.file 4 "Generated_Source\\PSoC4/cytypes.h"
 1403              		.file 5 "data.h"
 1404              		.file 6 "ugui_config.h"
 1405              		.file 7 "ugui.h"
 1406              		.file 8 "ugui_SSD1963.h"
 1407              		.file 9 "frucd_display.h"
 1408              		.file 10 "Generated_Source\\PSoC4/CyLib.h"
 1409              		.file 11 "c:\\program files (x86)\\cypress\\psoc creator\\4.4\\psoc creator\\import\\gnu\\arm\\5.4