ARM GAS  C:\Users\leoja\AppData\Local\Temp\ccnBeK9H.s 			page 1


   1              		.syntax unified
   2              		.cpu cortex-m0
   3              		.fpu softvfp
   4              		.eabi_attribute 20, 1
   5              		.eabi_attribute 21, 1
   6              		.eabi_attribute 23, 3
   7              		.eabi_attribute 24, 1
   8              		.eabi_attribute 25, 1
   9              		.eabi_attribute 26, 1
  10              		.eabi_attribute 30, 1
  11              		.eabi_attribute 34, 0
  12              		.eabi_attribute 18, 4
  13              		.thumb
  14              		.syntax unified
  15              		.file	"GraphicLCDIntf_1_PM.c"
  16              		.text
  17              	.Ltext0:
  18              		.cfi_sections	.debug_frame
  19              		.section	.text.GraphicLCDIntf_1_SaveConfig,"ax",%progbits
  20              		.align	2
  21              		.global	GraphicLCDIntf_1_SaveConfig
  22              		.code	16
  23              		.thumb_func
  24              		.type	GraphicLCDIntf_1_SaveConfig, %function
  25              	GraphicLCDIntf_1_SaveConfig:
  26              	.LFB0:
  27              		.file 1 "Generated_Source\\PSoC4\\GraphicLCDIntf_1_PM.c"
   1:Generated_Source\PSoC4/GraphicLCDIntf_1_PM.c **** /*******************************************************************************
   2:Generated_Source\PSoC4/GraphicLCDIntf_1_PM.c **** * File Name: GraphicLCDIntf_1_PM.c
   3:Generated_Source\PSoC4/GraphicLCDIntf_1_PM.c **** * Version 1.80
   4:Generated_Source\PSoC4/GraphicLCDIntf_1_PM.c **** *
   5:Generated_Source\PSoC4/GraphicLCDIntf_1_PM.c **** * Description:
   6:Generated_Source\PSoC4/GraphicLCDIntf_1_PM.c **** *  This file contains the setup, control and status commands to support 
   7:Generated_Source\PSoC4/GraphicLCDIntf_1_PM.c **** *  the component operations in Low-power mode.  
   8:Generated_Source\PSoC4/GraphicLCDIntf_1_PM.c **** *
   9:Generated_Source\PSoC4/GraphicLCDIntf_1_PM.c **** ********************************************************************************
  10:Generated_Source\PSoC4/GraphicLCDIntf_1_PM.c **** * Copyright 2008-2018, Cypress Semiconductor Corporation.  All rights reserved.
  11:Generated_Source\PSoC4/GraphicLCDIntf_1_PM.c **** * You may use this file only in accordance with the license, terms, conditions,
  12:Generated_Source\PSoC4/GraphicLCDIntf_1_PM.c **** * disclaimers, and limitations in the end user license agreement accompanying
  13:Generated_Source\PSoC4/GraphicLCDIntf_1_PM.c **** * the software package with which this file was provided.
  14:Generated_Source\PSoC4/GraphicLCDIntf_1_PM.c **** *******************************************************************************/
  15:Generated_Source\PSoC4/GraphicLCDIntf_1_PM.c **** 
  16:Generated_Source\PSoC4/GraphicLCDIntf_1_PM.c **** #include "GraphicLCDIntf_1.h" 
  17:Generated_Source\PSoC4/GraphicLCDIntf_1_PM.c **** 
  18:Generated_Source\PSoC4/GraphicLCDIntf_1_PM.c **** 
  19:Generated_Source\PSoC4/GraphicLCDIntf_1_PM.c **** /*******************************************************************************
  20:Generated_Source\PSoC4/GraphicLCDIntf_1_PM.c **** * Function Name: GraphicLCDIntf_1_SaveConfig
  21:Generated_Source\PSoC4/GraphicLCDIntf_1_PM.c **** ********************************************************************************
  22:Generated_Source\PSoC4/GraphicLCDIntf_1_PM.c **** *
  23:Generated_Source\PSoC4/GraphicLCDIntf_1_PM.c **** * Summary:
  24:Generated_Source\PSoC4/GraphicLCDIntf_1_PM.c **** *  All configuration registers are retention. Nothing to save here.
  25:Generated_Source\PSoC4/GraphicLCDIntf_1_PM.c **** *
  26:Generated_Source\PSoC4/GraphicLCDIntf_1_PM.c **** *******************************************************************************/
  27:Generated_Source\PSoC4/GraphicLCDIntf_1_PM.c **** void GraphicLCDIntf_1_SaveConfig(void) 
  28:Generated_Source\PSoC4/GraphicLCDIntf_1_PM.c **** {   
  28              		.loc 1 28 0
  29              		.cfi_startproc
ARM GAS  C:\Users\leoja\AppData\Local\Temp\ccnBeK9H.s 			page 2


  30              		@ args = 0, pretend = 0, frame = 0
  31              		@ frame_needed = 0, uses_anonymous_args = 0
  32              		@ link register save eliminated.
  29:Generated_Source\PSoC4/GraphicLCDIntf_1_PM.c ****     
  30:Generated_Source\PSoC4/GraphicLCDIntf_1_PM.c **** }
  33              		.loc 1 30 0
  34              		@ sp needed
  35 0000 7047     		bx	lr
  36              		.cfi_endproc
  37              	.LFE0:
  38              		.size	GraphicLCDIntf_1_SaveConfig, .-GraphicLCDIntf_1_SaveConfig
  39 0002 C046     		.section	.text.GraphicLCDIntf_1_RestoreConfig,"ax",%progbits
  40              		.align	2
  41              		.global	GraphicLCDIntf_1_RestoreConfig
  42              		.code	16
  43              		.thumb_func
  44              		.type	GraphicLCDIntf_1_RestoreConfig, %function
  45              	GraphicLCDIntf_1_RestoreConfig:
  46              	.LFB1:
  31:Generated_Source\PSoC4/GraphicLCDIntf_1_PM.c **** 
  32:Generated_Source\PSoC4/GraphicLCDIntf_1_PM.c **** 
  33:Generated_Source\PSoC4/GraphicLCDIntf_1_PM.c **** /*******************************************************************************
  34:Generated_Source\PSoC4/GraphicLCDIntf_1_PM.c **** * Function Name: GraphicLCDIntf_1_RestoreConfig
  35:Generated_Source\PSoC4/GraphicLCDIntf_1_PM.c **** ********************************************************************************
  36:Generated_Source\PSoC4/GraphicLCDIntf_1_PM.c **** *
  37:Generated_Source\PSoC4/GraphicLCDIntf_1_PM.c **** * Summary:
  38:Generated_Source\PSoC4/GraphicLCDIntf_1_PM.c **** *  All configuration registers are retention. Nothing to restore here.
  39:Generated_Source\PSoC4/GraphicLCDIntf_1_PM.c **** *
  40:Generated_Source\PSoC4/GraphicLCDIntf_1_PM.c **** *******************************************************************************/
  41:Generated_Source\PSoC4/GraphicLCDIntf_1_PM.c **** void GraphicLCDIntf_1_RestoreConfig(void) 
  42:Generated_Source\PSoC4/GraphicLCDIntf_1_PM.c **** {    
  47              		.loc 1 42 0
  48              		.cfi_startproc
  49              		@ args = 0, pretend = 0, frame = 0
  50              		@ frame_needed = 0, uses_anonymous_args = 0
  51              		@ link register save eliminated.
  43:Generated_Source\PSoC4/GraphicLCDIntf_1_PM.c ****     
  44:Generated_Source\PSoC4/GraphicLCDIntf_1_PM.c **** }
  52              		.loc 1 44 0
  53              		@ sp needed
  54 0000 7047     		bx	lr
  55              		.cfi_endproc
  56              	.LFE1:
  57              		.size	GraphicLCDIntf_1_RestoreConfig, .-GraphicLCDIntf_1_RestoreConfig
  58 0002 C046     		.section	.text.GraphicLCDIntf_1_Sleep,"ax",%progbits
  59              		.align	2
  60              		.global	GraphicLCDIntf_1_Sleep
  61              		.code	16
  62              		.thumb_func
  63              		.type	GraphicLCDIntf_1_Sleep, %function
  64              	GraphicLCDIntf_1_Sleep:
  65              	.LFB2:
  45:Generated_Source\PSoC4/GraphicLCDIntf_1_PM.c **** 
  46:Generated_Source\PSoC4/GraphicLCDIntf_1_PM.c **** 
  47:Generated_Source\PSoC4/GraphicLCDIntf_1_PM.c **** /*******************************************************************************
  48:Generated_Source\PSoC4/GraphicLCDIntf_1_PM.c **** * Function Name: GraphicLCDIntf_1_Sleep
  49:Generated_Source\PSoC4/GraphicLCDIntf_1_PM.c **** ********************************************************************************
ARM GAS  C:\Users\leoja\AppData\Local\Temp\ccnBeK9H.s 			page 3


  50:Generated_Source\PSoC4/GraphicLCDIntf_1_PM.c **** *
  51:Generated_Source\PSoC4/GraphicLCDIntf_1_PM.c **** * Summary:
  52:Generated_Source\PSoC4/GraphicLCDIntf_1_PM.c **** *  Disables block's operation and saves its configuration. Should be called 
  53:Generated_Source\PSoC4/GraphicLCDIntf_1_PM.c **** *  prior to entering Sleep.
  54:Generated_Source\PSoC4/GraphicLCDIntf_1_PM.c **** *
  55:Generated_Source\PSoC4/GraphicLCDIntf_1_PM.c **** *******************************************************************************/
  56:Generated_Source\PSoC4/GraphicLCDIntf_1_PM.c **** void GraphicLCDIntf_1_Sleep(void) 
  57:Generated_Source\PSoC4/GraphicLCDIntf_1_PM.c **** {
  66              		.loc 1 57 0
  67              		.cfi_startproc
  68              		@ args = 0, pretend = 0, frame = 0
  69              		@ frame_needed = 0, uses_anonymous_args = 0
  70 0000 10B5     		push	{r4, lr}
  71              		.cfi_def_cfa_offset 8
  72              		.cfi_offset 4, -8
  73              		.cfi_offset 14, -4
  58:Generated_Source\PSoC4/GraphicLCDIntf_1_PM.c ****     GraphicLCDIntf_1_Stop();
  74              		.loc 1 58 0
  75 0002 FFF7FEFF 		bl	GraphicLCDIntf_1_Stop
  76              	.LVL0:
  59:Generated_Source\PSoC4/GraphicLCDIntf_1_PM.c **** }
  77              		.loc 1 59 0
  78              		@ sp needed
  79 0006 10BD     		pop	{r4, pc}
  80              		.cfi_endproc
  81              	.LFE2:
  82              		.size	GraphicLCDIntf_1_Sleep, .-GraphicLCDIntf_1_Sleep
  83              		.section	.text.GraphicLCDIntf_1_Wakeup,"ax",%progbits
  84              		.align	2
  85              		.global	GraphicLCDIntf_1_Wakeup
  86              		.code	16
  87              		.thumb_func
  88              		.type	GraphicLCDIntf_1_Wakeup, %function
  89              	GraphicLCDIntf_1_Wakeup:
  90              	.LFB3:
  60:Generated_Source\PSoC4/GraphicLCDIntf_1_PM.c **** 
  61:Generated_Source\PSoC4/GraphicLCDIntf_1_PM.c **** 
  62:Generated_Source\PSoC4/GraphicLCDIntf_1_PM.c **** /*******************************************************************************
  63:Generated_Source\PSoC4/GraphicLCDIntf_1_PM.c **** * Function Name: GraphicLCDIntf_1_Wakeup
  64:Generated_Source\PSoC4/GraphicLCDIntf_1_PM.c **** ********************************************************************************
  65:Generated_Source\PSoC4/GraphicLCDIntf_1_PM.c **** *
  66:Generated_Source\PSoC4/GraphicLCDIntf_1_PM.c **** * Summary:
  67:Generated_Source\PSoC4/GraphicLCDIntf_1_PM.c **** *  Enables block's operation and restores its configuration. Should be called
  68:Generated_Source\PSoC4/GraphicLCDIntf_1_PM.c **** *  after awaking from Sleep.
  69:Generated_Source\PSoC4/GraphicLCDIntf_1_PM.c **** *
  70:Generated_Source\PSoC4/GraphicLCDIntf_1_PM.c **** *******************************************************************************/
  71:Generated_Source\PSoC4/GraphicLCDIntf_1_PM.c **** void GraphicLCDIntf_1_Wakeup(void) 
  72:Generated_Source\PSoC4/GraphicLCDIntf_1_PM.c **** {
  91              		.loc 1 72 0
  92              		.cfi_startproc
  93              		@ args = 0, pretend = 0, frame = 0
  94              		@ frame_needed = 0, uses_anonymous_args = 0
  95 0000 10B5     		push	{r4, lr}
  96              		.cfi_def_cfa_offset 8
  97              		.cfi_offset 4, -8
  98              		.cfi_offset 14, -4
  73:Generated_Source\PSoC4/GraphicLCDIntf_1_PM.c ****     GraphicLCDIntf_1_Enable();
ARM GAS  C:\Users\leoja\AppData\Local\Temp\ccnBeK9H.s 			page 4


  99              		.loc 1 73 0
 100 0002 FFF7FEFF 		bl	GraphicLCDIntf_1_Enable
 101              	.LVL1:
  74:Generated_Source\PSoC4/GraphicLCDIntf_1_PM.c **** }
 102              		.loc 1 74 0
 103              		@ sp needed
 104 0006 10BD     		pop	{r4, pc}
 105              		.cfi_endproc
 106              	.LFE3:
 107              		.size	GraphicLCDIntf_1_Wakeup, .-GraphicLCDIntf_1_Wakeup
 108              		.text
 109              	.Letext0:
 110              		.file 2 "Generated_Source\\PSoC4\\GraphicLCDIntf_1.h"