ARM GAS  C:\Users\leoja\AppData\Local\Temp\cczVYpez.s 			page 1


   1              		.syntax unified
   2              		.cpu cortex-m0
   3              		.fpu softvfp
   4              		.eabi_attribute 20, 1
   5              		.eabi_attribute 21, 1
   6              		.eabi_attribute 23, 3
   7              		.eabi_attribute 24, 1
   8              		.eabi_attribute 25, 1
   9              		.eabi_attribute 26, 1
  10              		.eabi_attribute 30, 1
  11              		.eabi_attribute 34, 0
  12              		.eabi_attribute 18, 4
  13              		.thumb
  14              		.syntax unified
  15              		.file	"GraphicLCDIntf_1.c"
  16              		.text
  17              	.Ltext0:
  18              		.cfi_sections	.debug_frame
  19              		.section	.text.GraphicLCDIntf_1_Enable,"ax",%progbits
  20              		.align	2
  21              		.global	GraphicLCDIntf_1_Enable
  22              		.code	16
  23              		.thumb_func
  24              		.type	GraphicLCDIntf_1_Enable, %function
  25              	GraphicLCDIntf_1_Enable:
  26              	.LFB0:
  27              		.file 1 "Generated_Source\\PSoC4\\GraphicLCDIntf_1.c"
   1:Generated_Source\PSoC4/GraphicLCDIntf_1.c **** /*******************************************************************************
   2:Generated_Source\PSoC4/GraphicLCDIntf_1.c **** * File Name: GraphicLCDIntf_1.c  
   3:Generated_Source\PSoC4/GraphicLCDIntf_1.c **** * Version 1.80
   4:Generated_Source\PSoC4/GraphicLCDIntf_1.c **** *
   5:Generated_Source\PSoC4/GraphicLCDIntf_1.c **** * Description:
   6:Generated_Source\PSoC4/GraphicLCDIntf_1.c **** *  This file contains the setup, control and status commands for the 
   7:Generated_Source\PSoC4/GraphicLCDIntf_1.c **** *  GraphicLCDIntf component.   
   8:Generated_Source\PSoC4/GraphicLCDIntf_1.c **** *
   9:Generated_Source\PSoC4/GraphicLCDIntf_1.c **** *******************************************************************************
  10:Generated_Source\PSoC4/GraphicLCDIntf_1.c **** * Copyright 2008-2018, Cypress Semiconductor Corporation.  All rights reserved.
  11:Generated_Source\PSoC4/GraphicLCDIntf_1.c **** * You may use this file only in accordance with the license, terms, conditions, 
  12:Generated_Source\PSoC4/GraphicLCDIntf_1.c **** * disclaimers, and limitations in the end user license agreement accompanying 
  13:Generated_Source\PSoC4/GraphicLCDIntf_1.c **** * the software package with which this file was provided.
  14:Generated_Source\PSoC4/GraphicLCDIntf_1.c **** ********************************************************************************/
  15:Generated_Source\PSoC4/GraphicLCDIntf_1.c **** 
  16:Generated_Source\PSoC4/GraphicLCDIntf_1.c **** #include "GraphicLCDIntf_1.h"  
  17:Generated_Source\PSoC4/GraphicLCDIntf_1.c **** 
  18:Generated_Source\PSoC4/GraphicLCDIntf_1.c **** uint8 GraphicLCDIntf_1_initVar = 0u;
  19:Generated_Source\PSoC4/GraphicLCDIntf_1.c **** 
  20:Generated_Source\PSoC4/GraphicLCDIntf_1.c **** 
  21:Generated_Source\PSoC4/GraphicLCDIntf_1.c **** /*******************************************************************************
  22:Generated_Source\PSoC4/GraphicLCDIntf_1.c **** * Function Name: GraphicLCDIntf_1_Enable
  23:Generated_Source\PSoC4/GraphicLCDIntf_1.c **** ********************************************************************************
  24:Generated_Source\PSoC4/GraphicLCDIntf_1.c **** *
  25:Generated_Source\PSoC4/GraphicLCDIntf_1.c **** * Summary:
  26:Generated_Source\PSoC4/GraphicLCDIntf_1.c **** *  There is no need to reset or enable this component.  This component is 
  27:Generated_Source\PSoC4/GraphicLCDIntf_1.c **** *  naturally a slave that waits for the API calls to perform any 
  28:Generated_Source\PSoC4/GraphicLCDIntf_1.c **** *  function and after a request is made that request will always complete in 
  29:Generated_Source\PSoC4/GraphicLCDIntf_1.c **** *  finite time as long as a clock is provided. The only thing provided
  30:Generated_Source\PSoC4/GraphicLCDIntf_1.c **** *  by this API is setting the Command FIFO to drive at least the half-empty status
ARM GAS  C:\Users\leoja\AppData\Local\Temp\cczVYpez.s 			page 2


  31:Generated_Source\PSoC4/GraphicLCDIntf_1.c **** *  from the FIFO.
  32:Generated_Source\PSoC4/GraphicLCDIntf_1.c **** *
  33:Generated_Source\PSoC4/GraphicLCDIntf_1.c **** *******************************************************************************/
  34:Generated_Source\PSoC4/GraphicLCDIntf_1.c **** void GraphicLCDIntf_1_Enable(void) 
  35:Generated_Source\PSoC4/GraphicLCDIntf_1.c **** {   
  28              		.loc 1 35 0
  29              		.cfi_startproc
  30              		@ args = 0, pretend = 0, frame = 0
  31              		@ frame_needed = 0, uses_anonymous_args = 0
  32              		@ link register save eliminated.
  36:Generated_Source\PSoC4/GraphicLCDIntf_1.c ****     /* Nothing to enable */
  37:Generated_Source\PSoC4/GraphicLCDIntf_1.c **** }
  33              		.loc 1 37 0
  34              		@ sp needed
  35 0000 7047     		bx	lr
  36              		.cfi_endproc
  37              	.LFE0:
  38              		.size	GraphicLCDIntf_1_Enable, .-GraphicLCDIntf_1_Enable
  39 0002 C046     		.section	.text.GraphicLCDIntf_1_Init,"ax",%progbits
  40              		.align	2
  41              		.global	GraphicLCDIntf_1_Init
  42              		.code	16
  43              		.thumb_func
  44              		.type	GraphicLCDIntf_1_Init, %function
  45              	GraphicLCDIntf_1_Init:
  46              	.LFB1:
  38:Generated_Source\PSoC4/GraphicLCDIntf_1.c **** 
  39:Generated_Source\PSoC4/GraphicLCDIntf_1.c **** 
  40:Generated_Source\PSoC4/GraphicLCDIntf_1.c **** /*******************************************************************************
  41:Generated_Source\PSoC4/GraphicLCDIntf_1.c **** * Function Name: GraphicLCDIntf_1_Init
  42:Generated_Source\PSoC4/GraphicLCDIntf_1.c **** ********************************************************************************
  43:Generated_Source\PSoC4/GraphicLCDIntf_1.c **** *
  44:Generated_Source\PSoC4/GraphicLCDIntf_1.c **** * Summary:
  45:Generated_Source\PSoC4/GraphicLCDIntf_1.c **** *  Inits/Restores default GraphicLCDIntf configuration provided with the customizer.
  46:Generated_Source\PSoC4/GraphicLCDIntf_1.c **** * 
  47:Generated_Source\PSoC4/GraphicLCDIntf_1.c **** *******************************************************************************/
  48:Generated_Source\PSoC4/GraphicLCDIntf_1.c **** void GraphicLCDIntf_1_Init(void) 
  49:Generated_Source\PSoC4/GraphicLCDIntf_1.c **** {
  47              		.loc 1 49 0
  48              		.cfi_startproc
  49              		@ args = 0, pretend = 0, frame = 0
  50              		@ frame_needed = 0, uses_anonymous_args = 0
  51              		@ link register save eliminated.
  50:Generated_Source\PSoC4/GraphicLCDIntf_1.c ****     /* Set low and high pulse widths for a read transaction */
  51:Generated_Source\PSoC4/GraphicLCDIntf_1.c ****     GraphicLCDIntf_1_READ_LO_PULSE_REG = GraphicLCDIntf_1_READ_LOW_PULSE;
  52              		.loc 1 51 0
  53 0000 0822     		movs	r2, #8
  54 0002 034B     		ldr	r3, .L3
  55 0004 1A70     		strb	r2, [r3]
  52:Generated_Source\PSoC4/GraphicLCDIntf_1.c ****     GraphicLCDIntf_1_READ_HI_PULSE_REG = GraphicLCDIntf_1_READ_HIGH_PULSE;
  56              		.loc 1 52 0
  57 0006 0132     		adds	r2, r2, #1
  58 0008 024B     		ldr	r3, .L3+4
  59 000a 1A70     		strb	r2, [r3]
  53:Generated_Source\PSoC4/GraphicLCDIntf_1.c **** }
  60              		.loc 1 53 0
  61              		@ sp needed
ARM GAS  C:\Users\leoja\AppData\Local\Temp\cczVYpez.s 			page 3


  62 000c 7047     		bx	lr
  63              	.L4:
  64 000e C046     		.align	2
  65              	.L3:
  66 0010 20000F40 		.word	1074724896
  67 0014 30000F40 		.word	1074724912
  68              		.cfi_endproc
  69              	.LFE1:
  70              		.size	GraphicLCDIntf_1_Init, .-GraphicLCDIntf_1_Init
  71              		.section	.text.GraphicLCDIntf_1_Start,"ax",%progbits
  72              		.align	2
  73              		.global	GraphicLCDIntf_1_Start
  74              		.code	16
  75              		.thumb_func
  76              		.type	GraphicLCDIntf_1_Start, %function
  77              	GraphicLCDIntf_1_Start:
  78              	.LFB2:
  54:Generated_Source\PSoC4/GraphicLCDIntf_1.c **** 
  55:Generated_Source\PSoC4/GraphicLCDIntf_1.c **** 
  56:Generated_Source\PSoC4/GraphicLCDIntf_1.c **** /*******************************************************************************
  57:Generated_Source\PSoC4/GraphicLCDIntf_1.c **** * Function Name: GraphicLCDIntf_1_Start
  58:Generated_Source\PSoC4/GraphicLCDIntf_1.c **** ********************************************************************************
  59:Generated_Source\PSoC4/GraphicLCDIntf_1.c **** *
  60:Generated_Source\PSoC4/GraphicLCDIntf_1.c **** * Summary:
  61:Generated_Source\PSoC4/GraphicLCDIntf_1.c **** *  Starts the GraphicLCDIntf interface.
  62:Generated_Source\PSoC4/GraphicLCDIntf_1.c **** *
  63:Generated_Source\PSoC4/GraphicLCDIntf_1.c **** * Global Variables:
  64:Generated_Source\PSoC4/GraphicLCDIntf_1.c **** *  GraphicLCDIntf_1_initVar - Used to check the initial configuration, modified on 
  65:Generated_Source\PSoC4/GraphicLCDIntf_1.c **** *  the first function call.
  66:Generated_Source\PSoC4/GraphicLCDIntf_1.c **** *
  67:Generated_Source\PSoC4/GraphicLCDIntf_1.c **** *******************************************************************************/
  68:Generated_Source\PSoC4/GraphicLCDIntf_1.c **** void GraphicLCDIntf_1_Start(void) 
  69:Generated_Source\PSoC4/GraphicLCDIntf_1.c **** {
  79              		.loc 1 69 0
  80              		.cfi_startproc
  81              		@ args = 0, pretend = 0, frame = 0
  82              		@ frame_needed = 0, uses_anonymous_args = 0
  83 0000 10B5     		push	{r4, lr}
  84              		.cfi_def_cfa_offset 8
  85              		.cfi_offset 4, -8
  86              		.cfi_offset 14, -4
  70:Generated_Source\PSoC4/GraphicLCDIntf_1.c ****     if (GraphicLCDIntf_1_initVar == 0u)
  87              		.loc 1 70 0
  88 0002 054B     		ldr	r3, .L7
  89 0004 1B78     		ldrb	r3, [r3]
  90 0006 002B     		cmp	r3, #0
  91 0008 04D1     		bne	.L5
  71:Generated_Source\PSoC4/GraphicLCDIntf_1.c ****     {
  72:Generated_Source\PSoC4/GraphicLCDIntf_1.c ****         GraphicLCDIntf_1_Init();
  92              		.loc 1 72 0
  93 000a FFF7FEFF 		bl	GraphicLCDIntf_1_Init
  94              	.LVL0:
  73:Generated_Source\PSoC4/GraphicLCDIntf_1.c ****         GraphicLCDIntf_1_initVar = 1u;
  95              		.loc 1 73 0
  96 000e 0122     		movs	r2, #1
  97 0010 014B     		ldr	r3, .L7
  98 0012 1A70     		strb	r2, [r3]
ARM GAS  C:\Users\leoja\AppData\Local\Temp\cczVYpez.s 			page 4


  99              	.L5:
  74:Generated_Source\PSoC4/GraphicLCDIntf_1.c ****     }
  75:Generated_Source\PSoC4/GraphicLCDIntf_1.c ****       
  76:Generated_Source\PSoC4/GraphicLCDIntf_1.c ****     GraphicLCDIntf_1_Enable();
  77:Generated_Source\PSoC4/GraphicLCDIntf_1.c **** }
 100              		.loc 1 77 0
 101              		@ sp needed
 102 0014 10BD     		pop	{r4, pc}
 103              	.L8:
 104 0016 C046     		.align	2
 105              	.L7:
 106 0018 00000000 		.word	.LANCHOR0
 107              		.cfi_endproc
 108              	.LFE2:
 109              		.size	GraphicLCDIntf_1_Start, .-GraphicLCDIntf_1_Start
 110              		.section	.text.GraphicLCDIntf_1_Stop,"ax",%progbits
 111              		.align	2
 112              		.global	GraphicLCDIntf_1_Stop
 113              		.code	16
 114              		.thumb_func
 115              		.type	GraphicLCDIntf_1_Stop, %function
 116              	GraphicLCDIntf_1_Stop:
 117              	.LFB3:
  78:Generated_Source\PSoC4/GraphicLCDIntf_1.c **** 
  79:Generated_Source\PSoC4/GraphicLCDIntf_1.c **** 
  80:Generated_Source\PSoC4/GraphicLCDIntf_1.c **** /*******************************************************************************
  81:Generated_Source\PSoC4/GraphicLCDIntf_1.c **** * Function Name: GraphicLCDIntf_1_Stop
  82:Generated_Source\PSoC4/GraphicLCDIntf_1.c **** ********************************************************************************
  83:Generated_Source\PSoC4/GraphicLCDIntf_1.c **** *
  84:Generated_Source\PSoC4/GraphicLCDIntf_1.c **** * Summary:
  85:Generated_Source\PSoC4/GraphicLCDIntf_1.c **** *  Disables the GraphicLCDIntf interface.
  86:Generated_Source\PSoC4/GraphicLCDIntf_1.c **** *
  87:Generated_Source\PSoC4/GraphicLCDIntf_1.c **** *******************************************************************************/
  88:Generated_Source\PSoC4/GraphicLCDIntf_1.c **** void GraphicLCDIntf_1_Stop(void) 
  89:Generated_Source\PSoC4/GraphicLCDIntf_1.c **** {
 118              		.loc 1 89 0
 119              		.cfi_startproc
 120              		@ args = 0, pretend = 0, frame = 0
 121              		@ frame_needed = 0, uses_anonymous_args = 0
 122              		@ link register save eliminated.
  90:Generated_Source\PSoC4/GraphicLCDIntf_1.c ****     /* Nothing to stop */
  91:Generated_Source\PSoC4/GraphicLCDIntf_1.c **** }
 123              		.loc 1 91 0
 124              		@ sp needed
 125 0000 7047     		bx	lr
 126              		.cfi_endproc
 127              	.LFE3:
 128              		.size	GraphicLCDIntf_1_Stop, .-GraphicLCDIntf_1_Stop
 129 0002 C046     		.section	.text.GraphicLCDIntf_1_Write16,"ax",%progbits
 130              		.align	2
 131              		.global	GraphicLCDIntf_1_Write16
 132              		.code	16
 133              		.thumb_func
 134              		.type	GraphicLCDIntf_1_Write16, %function
 135              	GraphicLCDIntf_1_Write16:
 136              	.LFB4:
  92:Generated_Source\PSoC4/GraphicLCDIntf_1.c **** 
ARM GAS  C:\Users\leoja\AppData\Local\Temp\cczVYpez.s 			page 5


  93:Generated_Source\PSoC4/GraphicLCDIntf_1.c **** 
  94:Generated_Source\PSoC4/GraphicLCDIntf_1.c **** /*******************************************************************************
  95:Generated_Source\PSoC4/GraphicLCDIntf_1.c **** * Function Name: GraphicLCDIntf_1_Write16
  96:Generated_Source\PSoC4/GraphicLCDIntf_1.c **** ********************************************************************************
  97:Generated_Source\PSoC4/GraphicLCDIntf_1.c **** *
  98:Generated_Source\PSoC4/GraphicLCDIntf_1.c **** * Summary:
  99:Generated_Source\PSoC4/GraphicLCDIntf_1.c **** *  Initiates a write transaction on the 16-bit parallel
 100:Generated_Source\PSoC4/GraphicLCDIntf_1.c **** *  interface.
 101:Generated_Source\PSoC4/GraphicLCDIntf_1.c **** *  The write is a posted write, so this function will return before the write 
 102:Generated_Source\PSoC4/GraphicLCDIntf_1.c **** *  has actually completed on the interface. If the command queue is full, this 
 103:Generated_Source\PSoC4/GraphicLCDIntf_1.c **** *  function will not return until space is available to queue this write request.
 104:Generated_Source\PSoC4/GraphicLCDIntf_1.c **** *
 105:Generated_Source\PSoC4/GraphicLCDIntf_1.c **** * Parameters:
 106:Generated_Source\PSoC4/GraphicLCDIntf_1.c **** *  d_c:  Data(1) or Command(0) indication. Passed to the d_c pin.
 107:Generated_Source\PSoC4/GraphicLCDIntf_1.c **** *
 108:Generated_Source\PSoC4/GraphicLCDIntf_1.c **** *  wrData: Data sent to the do_msb[7:0] (most significant byte) 
 109:Generated_Source\PSoC4/GraphicLCDIntf_1.c **** *          and do_lsb[7:0] (least significant byte) pins. do_msb[7:0]
 110:Generated_Source\PSoC4/GraphicLCDIntf_1.c **** *          presents only for the 16-bit interface.
 111:Generated_Source\PSoC4/GraphicLCDIntf_1.c **** *
 112:Generated_Source\PSoC4/GraphicLCDIntf_1.c **** *******************************************************************************/
 113:Generated_Source\PSoC4/GraphicLCDIntf_1.c **** void GraphicLCDIntf_1_Write16(uint8 d_c, uint16 wrData) 
 114:Generated_Source\PSoC4/GraphicLCDIntf_1.c **** {
 137              		.loc 1 114 0
 138              		.cfi_startproc
 139              		@ args = 0, pretend = 0, frame = 0
 140              		@ frame_needed = 0, uses_anonymous_args = 0
 141              		@ link register save eliminated.
 142              	.LVL1:
 143              	.L11:
 115:Generated_Source\PSoC4/GraphicLCDIntf_1.c ****     while((GraphicLCDIntf_1_STATUS_REG & GraphicLCDIntf_1_CMD_QUEUE_FULL) != 0u)
 144              		.loc 1 115 0 discriminator 1
 145 0000 044B     		ldr	r3, .L12
 146 0002 1B78     		ldrb	r3, [r3]
 147 0004 DB07     		lsls	r3, r3, #31
 148 0006 FBD4     		bmi	.L11
 116:Generated_Source\PSoC4/GraphicLCDIntf_1.c ****     {
 117:Generated_Source\PSoC4/GraphicLCDIntf_1.c ****         /* The command queue is full */
 118:Generated_Source\PSoC4/GraphicLCDIntf_1.c ****     }   
 119:Generated_Source\PSoC4/GraphicLCDIntf_1.c ****     GraphicLCDIntf_1_CMD_FIFO_REG = d_c;
 149              		.loc 1 119 0
 150 0008 034B     		ldr	r3, .L12+4
 151 000a 1870     		strb	r0, [r3]
 120:Generated_Source\PSoC4/GraphicLCDIntf_1.c ****     #if (GraphicLCDIntf_1_BUS_WIDTH == 16u)
 121:Generated_Source\PSoC4/GraphicLCDIntf_1.c ****         CY_SET_REG16(GraphicLCDIntf_1_DATA_FIFO_PTR, wrData);
 152              		.loc 1 121 0
 153 000c 034B     		ldr	r3, .L12+8
 154 000e 1980     		strh	r1, [r3]
 122:Generated_Source\PSoC4/GraphicLCDIntf_1.c ****     #else /* 8-bit interface */
 123:Generated_Source\PSoC4/GraphicLCDIntf_1.c ****         GraphicLCDIntf_1_DATA_FIFO_REG = wrData;
 124:Generated_Source\PSoC4/GraphicLCDIntf_1.c ****     #endif /* GraphicLCDIntf_1_BUS_WIDTH == 16u */
 125:Generated_Source\PSoC4/GraphicLCDIntf_1.c **** }
 155              		.loc 1 125 0
 156              		@ sp needed
 157 0010 7047     		bx	lr
 158              	.L13:
 159 0012 C046     		.align	2
 160              	.L12:
ARM GAS  C:\Users\leoja\AppData\Local\Temp\cczVYpez.s 			page 6


 161 0014 61000F40 		.word	1074724961
 162 0018 40000F40 		.word	1074724928
 163 001c A0100F40 		.word	1074729120
 164              		.cfi_endproc
 165              	.LFE4:
 166              		.size	GraphicLCDIntf_1_Write16, .-GraphicLCDIntf_1_Write16
 167              		.section	.text.GraphicLCDIntf_1_WriteM16,"ax",%progbits
 168              		.align	2
 169              		.global	GraphicLCDIntf_1_WriteM16
 170              		.code	16
 171              		.thumb_func
 172              		.type	GraphicLCDIntf_1_WriteM16, %function
 173              	GraphicLCDIntf_1_WriteM16:
 174              	.LFB5:
 126:Generated_Source\PSoC4/GraphicLCDIntf_1.c **** 	
 127:Generated_Source\PSoC4/GraphicLCDIntf_1.c **** 
 128:Generated_Source\PSoC4/GraphicLCDIntf_1.c **** /*******************************************************************************
 129:Generated_Source\PSoC4/GraphicLCDIntf_1.c **** * Function Name: GraphicLCDIntf_1_WriteM16
 130:Generated_Source\PSoC4/GraphicLCDIntf_1.c **** ********************************************************************************
 131:Generated_Source\PSoC4/GraphicLCDIntf_1.c **** *
 132:Generated_Source\PSoC4/GraphicLCDIntf_1.c **** * Summary:
 133:Generated_Source\PSoC4/GraphicLCDIntf_1.c **** *  Initiates multiple write transactions on the 16-bit 
 134:Generated_Source\PSoC4/GraphicLCDIntf_1.c **** *  parallel interface. The write is a posted write, so this function will return
 135:Generated_Source\PSoC4/GraphicLCDIntf_1.c **** *  before the write has actually completed on the interface. If the command 
 136:Generated_Source\PSoC4/GraphicLCDIntf_1.c **** *  queue is full, this function will not return until space is available to queue
 137:Generated_Source\PSoC4/GraphicLCDIntf_1.c **** *  this write request.
 138:Generated_Source\PSoC4/GraphicLCDIntf_1.c **** *
 139:Generated_Source\PSoC4/GraphicLCDIntf_1.c **** * Parameters:
 140:Generated_Source\PSoC4/GraphicLCDIntf_1.c **** *  d_c:    The Data(1) or Command(0) indication. Passed to the d_c pin.
 141:Generated_Source\PSoC4/GraphicLCDIntf_1.c **** *
 142:Generated_Source\PSoC4/GraphicLCDIntf_1.c **** *  wrData: The pointer to the the first element of a data buffer sent to the do_msb[7:0]
 143:Generated_Source\PSoC4/GraphicLCDIntf_1.c **** *          (most significant byte) and do_lsb[7:0] (least significant byte) pins. 
 144:Generated_Source\PSoC4/GraphicLCDIntf_1.c **** *          do_msb[7:0] presents only for the 16-bit interface.
 145:Generated_Source\PSoC4/GraphicLCDIntf_1.c **** *
 146:Generated_Source\PSoC4/GraphicLCDIntf_1.c **** *  num:    The number of words/bytes to write.
 147:Generated_Source\PSoC4/GraphicLCDIntf_1.c **** *
 148:Generated_Source\PSoC4/GraphicLCDIntf_1.c **** *******************************************************************************/
 149:Generated_Source\PSoC4/GraphicLCDIntf_1.c **** void GraphicLCDIntf_1_WriteM16(uint8 d_c, uint16 wrData[], uint16 num) 
 150:Generated_Source\PSoC4/GraphicLCDIntf_1.c **** {
 175              		.loc 1 150 0
 176              		.cfi_startproc
 177              		@ args = 0, pretend = 0, frame = 0
 178              		@ frame_needed = 0, uses_anonymous_args = 0
 179              	.LVL2:
 180 0000 30B5     		push	{r4, r5, lr}
 181              		.cfi_def_cfa_offset 12
 182              		.cfi_offset 4, -12
 183              		.cfi_offset 5, -8
 184              		.cfi_offset 14, -4
 185              	.LVL3:
 151:Generated_Source\PSoC4/GraphicLCDIntf_1.c ****     uint32 i;
 152:Generated_Source\PSoC4/GraphicLCDIntf_1.c ****     
 153:Generated_Source\PSoC4/GraphicLCDIntf_1.c ****     for(i = 0u; i < num; i++)
 186              		.loc 1 153 0
 187 0002 0024     		movs	r4, #0
 188 0004 0AE0     		b	.L15
 189              	.LVL4:
ARM GAS  C:\Users\leoja\AppData\Local\Temp\cczVYpez.s 			page 7


 190              	.L16:
 154:Generated_Source\PSoC4/GraphicLCDIntf_1.c ****     {
 155:Generated_Source\PSoC4/GraphicLCDIntf_1.c ****         while((GraphicLCDIntf_1_STATUS_REG & GraphicLCDIntf_1_CMD_QUEUE_FULL) != 0u)
 191              		.loc 1 155 0 discriminator 1
 192 0006 074B     		ldr	r3, .L17
 193 0008 1B78     		ldrb	r3, [r3]
 194 000a DB07     		lsls	r3, r3, #31
 195 000c FBD4     		bmi	.L16
 156:Generated_Source\PSoC4/GraphicLCDIntf_1.c ****         {
 157:Generated_Source\PSoC4/GraphicLCDIntf_1.c ****             /* The command queue is full */
 158:Generated_Source\PSoC4/GraphicLCDIntf_1.c ****         }   
 159:Generated_Source\PSoC4/GraphicLCDIntf_1.c ****         GraphicLCDIntf_1_CMD_FIFO_REG = d_c;  
 196              		.loc 1 159 0 discriminator 2
 197 000e 064B     		ldr	r3, .L17+4
 198 0010 1870     		strb	r0, [r3]
 160:Generated_Source\PSoC4/GraphicLCDIntf_1.c ****  
 161:Generated_Source\PSoC4/GraphicLCDIntf_1.c ****         #if (GraphicLCDIntf_1_BUS_WIDTH == 16u)
 162:Generated_Source\PSoC4/GraphicLCDIntf_1.c ****             CY_SET_REG16(GraphicLCDIntf_1_DATA_FIFO_PTR, wrData[i]);
 199              		.loc 1 162 0 discriminator 2
 200 0012 6300     		lsls	r3, r4, #1
 201 0014 CD5A     		ldrh	r5, [r1, r3]
 202 0016 054B     		ldr	r3, .L17+8
 203 0018 1D80     		strh	r5, [r3]
 153:Generated_Source\PSoC4/GraphicLCDIntf_1.c ****     {
 204              		.loc 1 153 0 discriminator 2
 205 001a 0134     		adds	r4, r4, #1
 206              	.LVL5:
 207              	.L15:
 153:Generated_Source\PSoC4/GraphicLCDIntf_1.c ****     {
 208              		.loc 1 153 0 is_stmt 0 discriminator 1
 209 001c 9442     		cmp	r4, r2
 210 001e F2D3     		bcc	.L16
 163:Generated_Source\PSoC4/GraphicLCDIntf_1.c ****         #else /* 8-bit interface */
 164:Generated_Source\PSoC4/GraphicLCDIntf_1.c ****             GraphicLCDIntf_1_DATA_FIFO_REG = wrData[i];
 165:Generated_Source\PSoC4/GraphicLCDIntf_1.c ****         #endif /* GraphicLCDIntf_1_BUS_WIDTH == 16u */
 166:Generated_Source\PSoC4/GraphicLCDIntf_1.c ****     }
 167:Generated_Source\PSoC4/GraphicLCDIntf_1.c **** }
 211              		.loc 1 167 0 is_stmt 1
 212              		@ sp needed
 213              	.LVL6:
 214 0020 30BD     		pop	{r4, r5, pc}
 215              	.L18:
 216 0022 C046     		.align	2
 217              	.L17:
 218 0024 61000F40 		.word	1074724961
 219 0028 40000F40 		.word	1074724928
 220 002c A0100F40 		.word	1074729120
 221              		.cfi_endproc
 222              	.LFE5:
 223              		.size	GraphicLCDIntf_1_WriteM16, .-GraphicLCDIntf_1_WriteM16
 224              		.section	.text.GraphicLCDIntf_1_Read16,"ax",%progbits
 225              		.align	2
 226              		.global	GraphicLCDIntf_1_Read16
 227              		.code	16
 228              		.thumb_func
 229              		.type	GraphicLCDIntf_1_Read16, %function
 230              	GraphicLCDIntf_1_Read16:
ARM GAS  C:\Users\leoja\AppData\Local\Temp\cczVYpez.s 			page 8


 231              	.LFB6:
 168:Generated_Source\PSoC4/GraphicLCDIntf_1.c **** 
 169:Generated_Source\PSoC4/GraphicLCDIntf_1.c **** 
 170:Generated_Source\PSoC4/GraphicLCDIntf_1.c **** /*******************************************************************************
 171:Generated_Source\PSoC4/GraphicLCDIntf_1.c **** * Function Name: GraphicLCDIntf_1_Read16
 172:Generated_Source\PSoC4/GraphicLCDIntf_1.c **** ********************************************************************************
 173:Generated_Source\PSoC4/GraphicLCDIntf_1.c **** *
 174:Generated_Source\PSoC4/GraphicLCDIntf_1.c **** * Summary:
 175:Generated_Source\PSoC4/GraphicLCDIntf_1.c **** *  Initiates a read transaction on the 16-bit parallel interface.
 176:Generated_Source\PSoC4/GraphicLCDIntf_1.c **** *  The read will execute after all currently posted writes have completed. This 
 177:Generated_Source\PSoC4/GraphicLCDIntf_1.c **** *  function will wait until the read completes and then returns the read value.
 178:Generated_Source\PSoC4/GraphicLCDIntf_1.c **** *
 179:Generated_Source\PSoC4/GraphicLCDIntf_1.c **** * Parameters:
 180:Generated_Source\PSoC4/GraphicLCDIntf_1.c **** *  d_c: Data(1) or Command(0) indication. Passed to the d_c pin.
 181:Generated_Source\PSoC4/GraphicLCDIntf_1.c **** *
 182:Generated_Source\PSoC4/GraphicLCDIntf_1.c **** * Return:
 183:Generated_Source\PSoC4/GraphicLCDIntf_1.c **** *  The 16-bit read value from the di_msb[7:0] (most significant byte) and 
 184:Generated_Source\PSoC4/GraphicLCDIntf_1.c **** *  di_lsb[7:0] (least significant byte) pins for the 16-bit interface or the 
 185:Generated_Source\PSoC4/GraphicLCDIntf_1.c **** *  8-bit read value from the di_lsb[7:0] for 8-bit interface.
 186:Generated_Source\PSoC4/GraphicLCDIntf_1.c **** *
 187:Generated_Source\PSoC4/GraphicLCDIntf_1.c **** *******************************************************************************/
 188:Generated_Source\PSoC4/GraphicLCDIntf_1.c **** uint16 GraphicLCDIntf_1_Read16(uint8 d_c) 
 189:Generated_Source\PSoC4/GraphicLCDIntf_1.c **** {
 232              		.loc 1 189 0
 233              		.cfi_startproc
 234              		@ args = 0, pretend = 0, frame = 0
 235              		@ frame_needed = 0, uses_anonymous_args = 0
 236              		@ link register save eliminated.
 237              	.LVL7:
 238              	.L20:
 190:Generated_Source\PSoC4/GraphicLCDIntf_1.c ****     while((GraphicLCDIntf_1_STATUS_REG & GraphicLCDIntf_1_CMD_QUEUE_FULL) != 0u)
 239              		.loc 1 190 0 discriminator 1
 240 0000 094B     		ldr	r3, .L22
 241 0002 1B78     		ldrb	r3, [r3]
 242 0004 DB07     		lsls	r3, r3, #31
 243 0006 FBD4     		bmi	.L20
 191:Generated_Source\PSoC4/GraphicLCDIntf_1.c ****     {
 192:Generated_Source\PSoC4/GraphicLCDIntf_1.c ****         /* The command queue is full */
 193:Generated_Source\PSoC4/GraphicLCDIntf_1.c ****     }   
 194:Generated_Source\PSoC4/GraphicLCDIntf_1.c ****     GraphicLCDIntf_1_CMD_FIFO_REG = d_c | GraphicLCDIntf_1_READ_COMMAND;
 244              		.loc 1 194 0
 245 0008 0223     		movs	r3, #2
 246 000a 1843     		orrs	r0, r3
 247              	.LVL8:
 248 000c C0B2     		uxtb	r0, r0
 249 000e 074B     		ldr	r3, .L22+4
 250 0010 1870     		strb	r0, [r3]
 251              	.L21:
 195:Generated_Source\PSoC4/GraphicLCDIntf_1.c ****     
 196:Generated_Source\PSoC4/GraphicLCDIntf_1.c ****     while((GraphicLCDIntf_1_STATUS_REG & GraphicLCDIntf_1_DATA_VALID) != GraphicLCDIntf_1_DATA_VALI
 252              		.loc 1 196 0 discriminator 1
 253 0012 054B     		ldr	r3, .L22
 254 0014 1B78     		ldrb	r3, [r3]
 255 0016 9B07     		lsls	r3, r3, #30
 256 0018 FBD5     		bpl	.L21
 197:Generated_Source\PSoC4/GraphicLCDIntf_1.c ****     {
 198:Generated_Source\PSoC4/GraphicLCDIntf_1.c ****         /* Wait until input data is valid */
ARM GAS  C:\Users\leoja\AppData\Local\Temp\cczVYpez.s 			page 9


 199:Generated_Source\PSoC4/GraphicLCDIntf_1.c ****     }
 200:Generated_Source\PSoC4/GraphicLCDIntf_1.c ****     
 201:Generated_Source\PSoC4/GraphicLCDIntf_1.c ****     #if (GraphicLCDIntf_1_BUS_WIDTH == 8u)  /* 8-bit interface */
 202:Generated_Source\PSoC4/GraphicLCDIntf_1.c ****         return (GraphicLCDIntf_1_DIN_LSB_DATA_REG);
 203:Generated_Source\PSoC4/GraphicLCDIntf_1.c ****     #else   /* 16-bit interface */
 204:Generated_Source\PSoC4/GraphicLCDIntf_1.c ****         return (uint16)((uint16)GraphicLCDIntf_1_DIN_MSB_DATA_REG << 8u) | GraphicLCDIntf_1_DIN_LSB
 257              		.loc 1 204 0
 258 001a 054B     		ldr	r3, .L22+8
 259 001c 1878     		ldrb	r0, [r3]
 260 001e 054B     		ldr	r3, .L22+12
 261 0020 1B78     		ldrb	r3, [r3]
 262 0022 0002     		lsls	r0, r0, #8
 263 0024 1843     		orrs	r0, r3
 205:Generated_Source\PSoC4/GraphicLCDIntf_1.c ****     #endif /* GraphicLCDIntf_1_BUS_WIDTH == 8u */
 206:Generated_Source\PSoC4/GraphicLCDIntf_1.c **** }
 264              		.loc 1 206 0
 265              		@ sp needed
 266 0026 7047     		bx	lr
 267              	.L23:
 268              		.align	2
 269              	.L22:
 270 0028 61000F40 		.word	1074724961
 271 002c 40000F40 		.word	1074724928
 272 0030 60000F40 		.word	1074724960
 273 0034 62000F40 		.word	1074724962
 274              		.cfi_endproc
 275              	.LFE6:
 276              		.size	GraphicLCDIntf_1_Read16, .-GraphicLCDIntf_1_Read16
 277              		.section	.text.GraphicLCDIntf_1_ReadM16,"ax",%progbits
 278              		.align	2
 279              		.global	GraphicLCDIntf_1_ReadM16
 280              		.code	16
 281              		.thumb_func
 282              		.type	GraphicLCDIntf_1_ReadM16, %function
 283              	GraphicLCDIntf_1_ReadM16:
 284              	.LFB7:
 207:Generated_Source\PSoC4/GraphicLCDIntf_1.c **** 
 208:Generated_Source\PSoC4/GraphicLCDIntf_1.c **** 
 209:Generated_Source\PSoC4/GraphicLCDIntf_1.c **** /*******************************************************************************
 210:Generated_Source\PSoC4/GraphicLCDIntf_1.c **** * Function Name: GraphicLCDIntf_1_ReadM16
 211:Generated_Source\PSoC4/GraphicLCDIntf_1.c **** ********************************************************************************
 212:Generated_Source\PSoC4/GraphicLCDIntf_1.c **** *
 213:Generated_Source\PSoC4/GraphicLCDIntf_1.c **** * Summary:
 214:Generated_Source\PSoC4/GraphicLCDIntf_1.c **** *  Initiates multiple read transactions on the 16-bit 
 215:Generated_Source\PSoC4/GraphicLCDIntf_1.c **** *  parallel interface. The read will execute after all currently posted writes 
 216:Generated_Source\PSoC4/GraphicLCDIntf_1.c **** *  have completed. This function will wait until the read completes and then 
 217:Generated_Source\PSoC4/GraphicLCDIntf_1.c **** *  returns the read value.
 218:Generated_Source\PSoC4/GraphicLCDIntf_1.c **** *
 219:Generated_Source\PSoC4/GraphicLCDIntf_1.c **** * Parameters:
 220:Generated_Source\PSoC4/GraphicLCDIntf_1.c **** *  d_c:    The Data(1) or Command(0) indication. Passed to the d_c pin.
 221:Generated_Source\PSoC4/GraphicLCDIntf_1.c **** *
 222:Generated_Source\PSoC4/GraphicLCDIntf_1.c **** *  rdData: The pointer to the the first element of a data buffer read from the do_msb[7:0]
 223:Generated_Source\PSoC4/GraphicLCDIntf_1.c **** *          (most significant byte) and do_lsb[7:0] (least significant byte) pins. 
 224:Generated_Source\PSoC4/GraphicLCDIntf_1.c **** *          do_msb[7:0] presents only for the 16-bit interface.
 225:Generated_Source\PSoC4/GraphicLCDIntf_1.c **** *
 226:Generated_Source\PSoC4/GraphicLCDIntf_1.c **** *  num:    The number of words/bytes to read.
 227:Generated_Source\PSoC4/GraphicLCDIntf_1.c **** *
ARM GAS  C:\Users\leoja\AppData\Local\Temp\cczVYpez.s 			page 10


 228:Generated_Source\PSoC4/GraphicLCDIntf_1.c **** *******************************************************************************/
 229:Generated_Source\PSoC4/GraphicLCDIntf_1.c **** void GraphicLCDIntf_1_ReadM16(uint8 d_c, uint16 rdData[], uint16 num) 
 230:Generated_Source\PSoC4/GraphicLCDIntf_1.c **** {
 285              		.loc 1 230 0
 286              		.cfi_startproc
 287              		@ args = 0, pretend = 0, frame = 8
 288              		@ frame_needed = 0, uses_anonymous_args = 0
 289              	.LVL9:
 290 0000 F0B5     		push	{r4, r5, r6, r7, lr}
 291              		.cfi_def_cfa_offset 20
 292              		.cfi_offset 4, -20
 293              		.cfi_offset 5, -16
 294              		.cfi_offset 6, -12
 295              		.cfi_offset 7, -8
 296              		.cfi_offset 14, -4
 297 0002 83B0     		sub	sp, sp, #12
 298              		.cfi_def_cfa_offset 32
 299 0004 0190     		str	r0, [sp, #4]
 300 0006 0E00     		movs	r6, r1
 301 0008 1700     		movs	r7, r2
 302              	.LVL10:
 231:Generated_Source\PSoC4/GraphicLCDIntf_1.c ****     uint32 i;
 232:Generated_Source\PSoC4/GraphicLCDIntf_1.c ****     
 233:Generated_Source\PSoC4/GraphicLCDIntf_1.c ****     for(i = 0u; i < num; i++)
 303              		.loc 1 233 0
 304 000a 0024     		movs	r4, #0
 305 000c 06E0     		b	.L25
 306              	.LVL11:
 307              	.L26:
 234:Generated_Source\PSoC4/GraphicLCDIntf_1.c ****     {
 235:Generated_Source\PSoC4/GraphicLCDIntf_1.c ****         rdData[i] = GraphicLCDIntf_1_Read16(d_c);
 308              		.loc 1 235 0 discriminator 3
 309 000e 6500     		lsls	r5, r4, #1
 310 0010 7519     		adds	r5, r6, r5
 311 0012 0198     		ldr	r0, [sp, #4]
 312 0014 FFF7FEFF 		bl	GraphicLCDIntf_1_Read16
 313              	.LVL12:
 314 0018 2880     		strh	r0, [r5]
 233:Generated_Source\PSoC4/GraphicLCDIntf_1.c ****     {
 315              		.loc 1 233 0 discriminator 3
 316 001a 0134     		adds	r4, r4, #1
 317              	.LVL13:
 318              	.L25:
 233:Generated_Source\PSoC4/GraphicLCDIntf_1.c ****     {
 319              		.loc 1 233 0 is_stmt 0 discriminator 1
 320 001c BC42     		cmp	r4, r7
 321 001e F6D3     		bcc	.L26
 236:Generated_Source\PSoC4/GraphicLCDIntf_1.c ****     }
 237:Generated_Source\PSoC4/GraphicLCDIntf_1.c **** }
 322              		.loc 1 237 0 is_stmt 1
 323 0020 03B0     		add	sp, sp, #12
 324              		@ sp needed
 325              	.LVL14:
 326              	.LVL15:
 327 0022 F0BD     		pop	{r4, r5, r6, r7, pc}
 328              		.cfi_endproc
 329              	.LFE7:
ARM GAS  C:\Users\leoja\AppData\Local\Temp\cczVYpez.s 			page 11


 330              		.size	GraphicLCDIntf_1_ReadM16, .-GraphicLCDIntf_1_ReadM16
 331              		.section	.text.GraphicLCDIntf_1_Write16_A0,"ax",%progbits
 332              		.align	2
 333              		.global	GraphicLCDIntf_1_Write16_A0
 334              		.code	16
 335              		.thumb_func
 336              		.type	GraphicLCDIntf_1_Write16_A0, %function
 337              	GraphicLCDIntf_1_Write16_A0:
 338              	.LFB8:
 238:Generated_Source\PSoC4/GraphicLCDIntf_1.c **** 
 239:Generated_Source\PSoC4/GraphicLCDIntf_1.c **** 
 240:Generated_Source\PSoC4/GraphicLCDIntf_1.c **** /*******************************************************************************
 241:Generated_Source\PSoC4/GraphicLCDIntf_1.c **** * Function Name: GraphicLCDIntf_1_Write16_A0
 242:Generated_Source\PSoC4/GraphicLCDIntf_1.c **** ********************************************************************************
 243:Generated_Source\PSoC4/GraphicLCDIntf_1.c **** *
 244:Generated_Source\PSoC4/GraphicLCDIntf_1.c **** * Summary:
 245:Generated_Source\PSoC4/GraphicLCDIntf_1.c **** *  Initiates a write transaction on the 16-bit parallel
 246:Generated_Source\PSoC4/GraphicLCDIntf_1.c **** *  interface with the d_c pin set to 0.
 247:Generated_Source\PSoC4/GraphicLCDIntf_1.c **** *  The write is a posted write, so this function will return before the write 
 248:Generated_Source\PSoC4/GraphicLCDIntf_1.c **** *  has actually completed on the interface. If the command queue is full, this 
 249:Generated_Source\PSoC4/GraphicLCDIntf_1.c **** *  function will not return until space is availale to queue this write request.
 250:Generated_Source\PSoC4/GraphicLCDIntf_1.c **** *
 251:Generated_Source\PSoC4/GraphicLCDIntf_1.c **** * Parameters:
 252:Generated_Source\PSoC4/GraphicLCDIntf_1.c **** *  wrData: Data sent on the do_msb[7:0] (most significant byte) 
 253:Generated_Source\PSoC4/GraphicLCDIntf_1.c **** *         and do_lsb[7:0] (least significant byte) pins. do_msb[7:0]
 254:Generated_Source\PSoC4/GraphicLCDIntf_1.c **** *         presents only for 16-bit interface.
 255:Generated_Source\PSoC4/GraphicLCDIntf_1.c **** *
 256:Generated_Source\PSoC4/GraphicLCDIntf_1.c **** *******************************************************************************/
 257:Generated_Source\PSoC4/GraphicLCDIntf_1.c **** void GraphicLCDIntf_1_Write16_A0(uint16 wrData) 
 258:Generated_Source\PSoC4/GraphicLCDIntf_1.c **** {
 339              		.loc 1 258 0
 340              		.cfi_startproc
 341              		@ args = 0, pretend = 0, frame = 0
 342              		@ frame_needed = 0, uses_anonymous_args = 0
 343              		@ link register save eliminated.
 344              	.LVL16:
 345              	.L28:
 259:Generated_Source\PSoC4/GraphicLCDIntf_1.c ****     while((GraphicLCDIntf_1_STATUS_REG & GraphicLCDIntf_1_CMD_QUEUE_FULL) != 0u)
 346              		.loc 1 259 0 discriminator 1
 347 0000 044B     		ldr	r3, .L29
 348 0002 1B78     		ldrb	r3, [r3]
 349 0004 DB07     		lsls	r3, r3, #31
 350 0006 FBD4     		bmi	.L28
 260:Generated_Source\PSoC4/GraphicLCDIntf_1.c ****     {
 261:Generated_Source\PSoC4/GraphicLCDIntf_1.c ****         /* Command queue is full */
 262:Generated_Source\PSoC4/GraphicLCDIntf_1.c ****     }   
 263:Generated_Source\PSoC4/GraphicLCDIntf_1.c ****     GraphicLCDIntf_1_CMD_FIFO_REG = 0u;
 351              		.loc 1 263 0
 352 0008 0022     		movs	r2, #0
 353 000a 034B     		ldr	r3, .L29+4
 354 000c 1A70     		strb	r2, [r3]
 264:Generated_Source\PSoC4/GraphicLCDIntf_1.c ****     #if (GraphicLCDIntf_1_BUS_WIDTH == 16u)
 265:Generated_Source\PSoC4/GraphicLCDIntf_1.c ****         CY_SET_REG16(GraphicLCDIntf_1_DATA_FIFO_PTR, wrData);
 355              		.loc 1 265 0
 356 000e 034B     		ldr	r3, .L29+8
 357 0010 1880     		strh	r0, [r3]
 266:Generated_Source\PSoC4/GraphicLCDIntf_1.c ****     #else /* 8-bit interface */
ARM GAS  C:\Users\leoja\AppData\Local\Temp\cczVYpez.s 			page 12


 267:Generated_Source\PSoC4/GraphicLCDIntf_1.c ****         GraphicLCDIntf_1_DATA_FIFO_REG = wrData;
 268:Generated_Source\PSoC4/GraphicLCDIntf_1.c ****     #endif /* GraphicLCDIntf_1_BUS_WIDTH == 16u */
 269:Generated_Source\PSoC4/GraphicLCDIntf_1.c **** }
 358              		.loc 1 269 0
 359              		@ sp needed
 360 0012 7047     		bx	lr
 361              	.L30:
 362              		.align	2
 363              	.L29:
 364 0014 61000F40 		.word	1074724961
 365 0018 40000F40 		.word	1074724928
 366 001c A0100F40 		.word	1074729120
 367              		.cfi_endproc
 368              	.LFE8:
 369              		.size	GraphicLCDIntf_1_Write16_A0, .-GraphicLCDIntf_1_Write16_A0
 370              		.section	.text.GraphicLCDIntf_1_Write16_A1,"ax",%progbits
 371              		.align	2
 372              		.global	GraphicLCDIntf_1_Write16_A1
 373              		.code	16
 374              		.thumb_func
 375              		.type	GraphicLCDIntf_1_Write16_A1, %function
 376              	GraphicLCDIntf_1_Write16_A1:
 377              	.LFB9:
 270:Generated_Source\PSoC4/GraphicLCDIntf_1.c **** 
 271:Generated_Source\PSoC4/GraphicLCDIntf_1.c **** 
 272:Generated_Source\PSoC4/GraphicLCDIntf_1.c **** /*******************************************************************************
 273:Generated_Source\PSoC4/GraphicLCDIntf_1.c **** * Function Name: GraphicLCDIntf_1_Write16_A1
 274:Generated_Source\PSoC4/GraphicLCDIntf_1.c **** ********************************************************************************
 275:Generated_Source\PSoC4/GraphicLCDIntf_1.c **** *
 276:Generated_Source\PSoC4/GraphicLCDIntf_1.c **** * Summary:
 277:Generated_Source\PSoC4/GraphicLCDIntf_1.c **** *  Initiates a write transaction on the 16-bit 
 278:Generated_Source\PSoC4/GraphicLCDIntf_1.c **** *  parallel interface with the d_c pin set to 1. The write is a posted write, 
 279:Generated_Source\PSoC4/GraphicLCDIntf_1.c **** *  so this function will return before the write has actually completed on the 
 280:Generated_Source\PSoC4/GraphicLCDIntf_1.c **** *  interface. If the command queue is full, this function will not return until
 281:Generated_Source\PSoC4/GraphicLCDIntf_1.c **** *  space is availale to queue this write request.
 282:Generated_Source\PSoC4/GraphicLCDIntf_1.c **** *
 283:Generated_Source\PSoC4/GraphicLCDIntf_1.c **** * Parameters:
 284:Generated_Source\PSoC4/GraphicLCDIntf_1.c **** *  wrData: Data sent on the do_msb[7:0] (most significant byte) 
 285:Generated_Source\PSoC4/GraphicLCDIntf_1.c **** *          and do_lsb[7:0] (least significant byte) pins. do_msb[7:0]
 286:Generated_Source\PSoC4/GraphicLCDIntf_1.c **** *          presents only for 16-bit interface.
 287:Generated_Source\PSoC4/GraphicLCDIntf_1.c **** *
 288:Generated_Source\PSoC4/GraphicLCDIntf_1.c **** *******************************************************************************/
 289:Generated_Source\PSoC4/GraphicLCDIntf_1.c **** void GraphicLCDIntf_1_Write16_A1(uint16 wrData) 
 290:Generated_Source\PSoC4/GraphicLCDIntf_1.c **** {
 378              		.loc 1 290 0
 379              		.cfi_startproc
 380              		@ args = 0, pretend = 0, frame = 0
 381              		@ frame_needed = 0, uses_anonymous_args = 0
 382              		@ link register save eliminated.
 383              	.LVL17:
 384              	.L32:
 291:Generated_Source\PSoC4/GraphicLCDIntf_1.c ****     while((GraphicLCDIntf_1_STATUS_REG & GraphicLCDIntf_1_CMD_QUEUE_FULL) != 0u)
 385              		.loc 1 291 0 discriminator 1
 386 0000 044B     		ldr	r3, .L33
 387 0002 1B78     		ldrb	r3, [r3]
 388 0004 DB07     		lsls	r3, r3, #31
 389 0006 FBD4     		bmi	.L32
ARM GAS  C:\Users\leoja\AppData\Local\Temp\cczVYpez.s 			page 13


 292:Generated_Source\PSoC4/GraphicLCDIntf_1.c ****     {
 293:Generated_Source\PSoC4/GraphicLCDIntf_1.c ****         /* Command queue is full */
 294:Generated_Source\PSoC4/GraphicLCDIntf_1.c ****     }   
 295:Generated_Source\PSoC4/GraphicLCDIntf_1.c ****     GraphicLCDIntf_1_CMD_FIFO_REG = 1u;
 390              		.loc 1 295 0
 391 0008 0122     		movs	r2, #1
 392 000a 034B     		ldr	r3, .L33+4
 393 000c 1A70     		strb	r2, [r3]
 296:Generated_Source\PSoC4/GraphicLCDIntf_1.c ****     #if (GraphicLCDIntf_1_BUS_WIDTH == 16u)
 297:Generated_Source\PSoC4/GraphicLCDIntf_1.c ****         CY_SET_REG16(GraphicLCDIntf_1_DATA_FIFO_PTR, wrData);
 394              		.loc 1 297 0
 395 000e 034B     		ldr	r3, .L33+8
 396 0010 1880     		strh	r0, [r3]
 298:Generated_Source\PSoC4/GraphicLCDIntf_1.c ****     #else /* 8-bit interface */
 299:Generated_Source\PSoC4/GraphicLCDIntf_1.c ****         GraphicLCDIntf_1_DATA_FIFO_REG = wrData;
 300:Generated_Source\PSoC4/GraphicLCDIntf_1.c ****     #endif /* GraphicLCDIntf_1_BUS_WIDTH == 16u */
 301:Generated_Source\PSoC4/GraphicLCDIntf_1.c **** }
 397              		.loc 1 301 0
 398              		@ sp needed
 399 0012 7047     		bx	lr
 400              	.L34:
 401              		.align	2
 402              	.L33:
 403 0014 61000F40 		.word	1074724961
 404 0018 40000F40 		.word	1074724928
 405 001c A0100F40 		.word	1074729120
 406              		.cfi_endproc
 407              	.LFE9:
 408              		.size	GraphicLCDIntf_1_Write16_A1, .-GraphicLCDIntf_1_Write16_A1
 409              		.section	.text.GraphicLCDIntf_1_WriteM16_A0,"ax",%progbits
 410              		.align	2
 411              		.global	GraphicLCDIntf_1_WriteM16_A0
 412              		.code	16
 413              		.thumb_func
 414              		.type	GraphicLCDIntf_1_WriteM16_A0, %function
 415              	GraphicLCDIntf_1_WriteM16_A0:
 416              	.LFB10:
 302:Generated_Source\PSoC4/GraphicLCDIntf_1.c **** 
 303:Generated_Source\PSoC4/GraphicLCDIntf_1.c **** 
 304:Generated_Source\PSoC4/GraphicLCDIntf_1.c **** /*******************************************************************************
 305:Generated_Source\PSoC4/GraphicLCDIntf_1.c **** * Function Name: GraphicLCDIntf_1_WriteM16_A0
 306:Generated_Source\PSoC4/GraphicLCDIntf_1.c **** ********************************************************************************
 307:Generated_Source\PSoC4/GraphicLCDIntf_1.c **** *
 308:Generated_Source\PSoC4/GraphicLCDIntf_1.c **** * Summary:
 309:Generated_Source\PSoC4/GraphicLCDIntf_1.c **** *  Initiates multiple write transactions on the 16-bit 
 310:Generated_Source\PSoC4/GraphicLCDIntf_1.c **** *  parallel interface with the d_c pin set to 0. The write is a posted write, 
 311:Generated_Source\PSoC4/GraphicLCDIntf_1.c **** *  so this function will return before the write has actually completed on the 
 312:Generated_Source\PSoC4/GraphicLCDIntf_1.c **** *  interface. If the command queue is full, this function will not return until
 313:Generated_Source\PSoC4/GraphicLCDIntf_1.c **** *  space is availale to queue this write request.
 314:Generated_Source\PSoC4/GraphicLCDIntf_1.c **** *
 315:Generated_Source\PSoC4/GraphicLCDIntf_1.c **** * Parameters:
 316:Generated_Source\PSoC4/GraphicLCDIntf_1.c **** *  wrData: Pointer to the the first element of a data buffer sent on the 
 317:Generated_Source\PSoC4/GraphicLCDIntf_1.c **** *          do_msb[7:0] (most significant byte) and do_lsb[7:0] (least significant
 318:Generated_Source\PSoC4/GraphicLCDIntf_1.c **** *          byte) pins. do_msb[7:0] presents only for 16-bit interface.
 319:Generated_Source\PSoC4/GraphicLCDIntf_1.c **** *
 320:Generated_Source\PSoC4/GraphicLCDIntf_1.c **** *  num:  Number of words/bytes to write.
 321:Generated_Source\PSoC4/GraphicLCDIntf_1.c **** *
ARM GAS  C:\Users\leoja\AppData\Local\Temp\cczVYpez.s 			page 14


 322:Generated_Source\PSoC4/GraphicLCDIntf_1.c **** *******************************************************************************/
 323:Generated_Source\PSoC4/GraphicLCDIntf_1.c **** void GraphicLCDIntf_1_WriteM16_A0(uint16 wrData[], int num) 
 324:Generated_Source\PSoC4/GraphicLCDIntf_1.c **** {
 417              		.loc 1 324 0
 418              		.cfi_startproc
 419              		@ args = 0, pretend = 0, frame = 0
 420              		@ frame_needed = 0, uses_anonymous_args = 0
 421              	.LVL18:
 422 0000 10B5     		push	{r4, lr}
 423              		.cfi_def_cfa_offset 8
 424              		.cfi_offset 4, -8
 425              		.cfi_offset 14, -4
 325:Generated_Source\PSoC4/GraphicLCDIntf_1.c ****     GraphicLCDIntf_1_WriteM16(0u, wrData, (uint16)num);
 426              		.loc 1 325 0
 427 0002 8AB2     		uxth	r2, r1
 428 0004 0100     		movs	r1, r0
 429              	.LVL19:
 430 0006 0020     		movs	r0, #0
 431              	.LVL20:
 432 0008 FFF7FEFF 		bl	GraphicLCDIntf_1_WriteM16
 433              	.LVL21:
 326:Generated_Source\PSoC4/GraphicLCDIntf_1.c **** }
 434              		.loc 1 326 0
 435              		@ sp needed
 436 000c 10BD     		pop	{r4, pc}
 437              		.cfi_endproc
 438              	.LFE10:
 439              		.size	GraphicLCDIntf_1_WriteM16_A0, .-GraphicLCDIntf_1_WriteM16_A0
 440 000e C046     		.section	.text.GraphicLCDIntf_1_WriteM16_A1,"ax",%progbits
 441              		.align	2
 442              		.global	GraphicLCDIntf_1_WriteM16_A1
 443              		.code	16
 444              		.thumb_func
 445              		.type	GraphicLCDIntf_1_WriteM16_A1, %function
 446              	GraphicLCDIntf_1_WriteM16_A1:
 447              	.LFB11:
 327:Generated_Source\PSoC4/GraphicLCDIntf_1.c **** 
 328:Generated_Source\PSoC4/GraphicLCDIntf_1.c **** 
 329:Generated_Source\PSoC4/GraphicLCDIntf_1.c **** /*******************************************************************************
 330:Generated_Source\PSoC4/GraphicLCDIntf_1.c **** * Function Name: GraphicLCDIntf_1_WriteM16_A1
 331:Generated_Source\PSoC4/GraphicLCDIntf_1.c **** ********************************************************************************
 332:Generated_Source\PSoC4/GraphicLCDIntf_1.c **** *
 333:Generated_Source\PSoC4/GraphicLCDIntf_1.c **** * Summary:
 334:Generated_Source\PSoC4/GraphicLCDIntf_1.c **** *  Initiates multiple data write transactions on the 16-bit 
 335:Generated_Source\PSoC4/GraphicLCDIntf_1.c **** *  parallel interface with the d_c pin set to 1. The write is a posted write, 
 336:Generated_Source\PSoC4/GraphicLCDIntf_1.c **** *  so this function will return before the write has actually completed on the 
 337:Generated_Source\PSoC4/GraphicLCDIntf_1.c **** *  interface. If the command queue is full, this function will not return until
 338:Generated_Source\PSoC4/GraphicLCDIntf_1.c **** *  space is availale to queue this write request.
 339:Generated_Source\PSoC4/GraphicLCDIntf_1.c **** *
 340:Generated_Source\PSoC4/GraphicLCDIntf_1.c **** * Parameters:
 341:Generated_Source\PSoC4/GraphicLCDIntf_1.c **** *  wrData: Pointer to the the first element of a data buffer sent on the 
 342:Generated_Source\PSoC4/GraphicLCDIntf_1.c **** *          do_msb[7:0] (most significant byte) and do_lsb[7:0] (least significant
 343:Generated_Source\PSoC4/GraphicLCDIntf_1.c **** *          byte) pins. do_msb[7:0] presents only for 16-bit interface.
 344:Generated_Source\PSoC4/GraphicLCDIntf_1.c **** *
 345:Generated_Source\PSoC4/GraphicLCDIntf_1.c **** *  num:  Number of words/bytes to write.
 346:Generated_Source\PSoC4/GraphicLCDIntf_1.c **** *
 347:Generated_Source\PSoC4/GraphicLCDIntf_1.c **** *******************************************************************************/
ARM GAS  C:\Users\leoja\AppData\Local\Temp\cczVYpez.s 			page 15


 348:Generated_Source\PSoC4/GraphicLCDIntf_1.c **** void GraphicLCDIntf_1_WriteM16_A1(uint16 wrData[], int num) 
 349:Generated_Source\PSoC4/GraphicLCDIntf_1.c **** {
 448              		.loc 1 349 0
 449              		.cfi_startproc
 450              		@ args = 0, pretend = 0, frame = 0
 451              		@ frame_needed = 0, uses_anonymous_args = 0
 452              	.LVL22:
 453 0000 10B5     		push	{r4, lr}
 454              		.cfi_def_cfa_offset 8
 455              		.cfi_offset 4, -8
 456              		.cfi_offset 14, -4
 350:Generated_Source\PSoC4/GraphicLCDIntf_1.c ****     GraphicLCDIntf_1_WriteM16(1u, wrData, (uint16)num);
 457              		.loc 1 350 0
 458 0002 8AB2     		uxth	r2, r1
 459 0004 0100     		movs	r1, r0
 460              	.LVL23:
 461 0006 0120     		movs	r0, #1
 462              	.LVL24:
 463 0008 FFF7FEFF 		bl	GraphicLCDIntf_1_WriteM16
 464              	.LVL25:
 351:Generated_Source\PSoC4/GraphicLCDIntf_1.c **** }
 465              		.loc 1 351 0
 466              		@ sp needed
 467 000c 10BD     		pop	{r4, pc}
 468              		.cfi_endproc
 469              	.LFE11:
 470              		.size	GraphicLCDIntf_1_WriteM16_A1, .-GraphicLCDIntf_1_WriteM16_A1
 471 000e C046     		.section	.text.GraphicLCDIntf_1_Read16_A1,"ax",%progbits
 472              		.align	2
 473              		.global	GraphicLCDIntf_1_Read16_A1
 474              		.code	16
 475              		.thumb_func
 476              		.type	GraphicLCDIntf_1_Read16_A1, %function
 477              	GraphicLCDIntf_1_Read16_A1:
 478              	.LFB12:
 352:Generated_Source\PSoC4/GraphicLCDIntf_1.c **** 
 353:Generated_Source\PSoC4/GraphicLCDIntf_1.c **** 
 354:Generated_Source\PSoC4/GraphicLCDIntf_1.c **** /*******************************************************************************
 355:Generated_Source\PSoC4/GraphicLCDIntf_1.c **** * Function Name: GraphicLCDIntf_1_Read16_A1
 356:Generated_Source\PSoC4/GraphicLCDIntf_1.c **** ********************************************************************************
 357:Generated_Source\PSoC4/GraphicLCDIntf_1.c **** *
 358:Generated_Source\PSoC4/GraphicLCDIntf_1.c **** * Summary:
 359:Generated_Source\PSoC4/GraphicLCDIntf_1.c **** *  Initiates data read transaction on the 16-bit 
 360:Generated_Source\PSoC4/GraphicLCDIntf_1.c **** *  parallel interface with the d_c pin set to 1. The read will execute after 
 361:Generated_Source\PSoC4/GraphicLCDIntf_1.c **** *  all currently posted writes have completed. This function will wait until 
 362:Generated_Source\PSoC4/GraphicLCDIntf_1.c **** *  the read completes and then returns the read value.
 363:Generated_Source\PSoC4/GraphicLCDIntf_1.c **** *
 364:Generated_Source\PSoC4/GraphicLCDIntf_1.c **** * Return:
 365:Generated_Source\PSoC4/GraphicLCDIntf_1.c **** *  The 16-bit read value from the di_msb[7:0] (most significant byte) and 
 366:Generated_Source\PSoC4/GraphicLCDIntf_1.c **** *  di_lsb[7:0] (least significant byte) pins for the 16-bit interface or the 
 367:Generated_Source\PSoC4/GraphicLCDIntf_1.c **** *  8-bit read value from the di_lsb[7:0] for 8-bit interface.
 368:Generated_Source\PSoC4/GraphicLCDIntf_1.c **** *
 369:Generated_Source\PSoC4/GraphicLCDIntf_1.c **** *******************************************************************************/
 370:Generated_Source\PSoC4/GraphicLCDIntf_1.c **** uint16 GraphicLCDIntf_1_Read16_A1(void) 
 371:Generated_Source\PSoC4/GraphicLCDIntf_1.c **** {
 479              		.loc 1 371 0
 480              		.cfi_startproc
ARM GAS  C:\Users\leoja\AppData\Local\Temp\cczVYpez.s 			page 16


 481              		@ args = 0, pretend = 0, frame = 0
 482              		@ frame_needed = 0, uses_anonymous_args = 0
 483 0000 10B5     		push	{r4, lr}
 484              		.cfi_def_cfa_offset 8
 485              		.cfi_offset 4, -8
 486              		.cfi_offset 14, -4
 372:Generated_Source\PSoC4/GraphicLCDIntf_1.c ****     return GraphicLCDIntf_1_Read16(1u);
 487              		.loc 1 372 0
 488 0002 0120     		movs	r0, #1
 489 0004 FFF7FEFF 		bl	GraphicLCDIntf_1_Read16
 490              	.LVL26:
 373:Generated_Source\PSoC4/GraphicLCDIntf_1.c **** }
 491              		.loc 1 373 0
 492              		@ sp needed
 493 0008 10BD     		pop	{r4, pc}
 494              		.cfi_endproc
 495              	.LFE12:
 496              		.size	GraphicLCDIntf_1_Read16_A1, .-GraphicLCDIntf_1_Read16_A1
 497 000a C046     		.section	.text.GraphicLCDIntf_1_ReadM16_A1,"ax",%progbits
 498              		.align	2
 499              		.global	GraphicLCDIntf_1_ReadM16_A1
 500              		.code	16
 501              		.thumb_func
 502              		.type	GraphicLCDIntf_1_ReadM16_A1, %function
 503              	GraphicLCDIntf_1_ReadM16_A1:
 504              	.LFB13:
 374:Generated_Source\PSoC4/GraphicLCDIntf_1.c **** 
 375:Generated_Source\PSoC4/GraphicLCDIntf_1.c **** 
 376:Generated_Source\PSoC4/GraphicLCDIntf_1.c **** /*******************************************************************************
 377:Generated_Source\PSoC4/GraphicLCDIntf_1.c **** * Function Name: GraphicLCDIntf_1_ReadM16_A1
 378:Generated_Source\PSoC4/GraphicLCDIntf_1.c **** ********************************************************************************
 379:Generated_Source\PSoC4/GraphicLCDIntf_1.c **** *
 380:Generated_Source\PSoC4/GraphicLCDIntf_1.c **** * Summary:
 381:Generated_Source\PSoC4/GraphicLCDIntf_1.c **** *  Initiates multiple data read transactions on the 16-bit 
 382:Generated_Source\PSoC4/GraphicLCDIntf_1.c **** *  parallel interface with the d_c pin set to 1. The read will execute after all 
 383:Generated_Source\PSoC4/GraphicLCDIntf_1.c **** *  currently posted writes have completed. This function will wait until the 
 384:Generated_Source\PSoC4/GraphicLCDIntf_1.c **** *  read completes and then returns the read value.
 385:Generated_Source\PSoC4/GraphicLCDIntf_1.c **** *
 386:Generated_Source\PSoC4/GraphicLCDIntf_1.c **** * Parameters:
 387:Generated_Source\PSoC4/GraphicLCDIntf_1.c **** *  rdData: Pointer to the the first element of a data buffer read from the do_msb[7:0]
 388:Generated_Source\PSoC4/GraphicLCDIntf_1.c **** *        (most significant byte) and do_lsb[7:0] (least significant byte) pins. 
 389:Generated_Source\PSoC4/GraphicLCDIntf_1.c **** *        do_msb[7:0] presents only for 16-bit interface.
 390:Generated_Source\PSoC4/GraphicLCDIntf_1.c **** *
 391:Generated_Source\PSoC4/GraphicLCDIntf_1.c **** *  num:  Number of words/bytes to read.
 392:Generated_Source\PSoC4/GraphicLCDIntf_1.c **** *
 393:Generated_Source\PSoC4/GraphicLCDIntf_1.c **** *******************************************************************************/
 394:Generated_Source\PSoC4/GraphicLCDIntf_1.c **** void GraphicLCDIntf_1_ReadM16_A1(uint16 rdData[], int num) 
 395:Generated_Source\PSoC4/GraphicLCDIntf_1.c **** {
 505              		.loc 1 395 0
 506              		.cfi_startproc
 507              		@ args = 0, pretend = 0, frame = 0
 508              		@ frame_needed = 0, uses_anonymous_args = 0
 509              	.LVL27:
 510 0000 10B5     		push	{r4, lr}
 511              		.cfi_def_cfa_offset 8
 512              		.cfi_offset 4, -8
 513              		.cfi_offset 14, -4
ARM GAS  C:\Users\leoja\AppData\Local\Temp\cczVYpez.s 			page 17


 396:Generated_Source\PSoC4/GraphicLCDIntf_1.c ****     GraphicLCDIntf_1_ReadM16(1u, rdData, (uint16)num);
 514              		.loc 1 396 0
 515 0002 8AB2     		uxth	r2, r1
 516 0004 0100     		movs	r1, r0
 517              	.LVL28:
 518 0006 0120     		movs	r0, #1
 519              	.LVL29:
 520 0008 FFF7FEFF 		bl	GraphicLCDIntf_1_ReadM16
 521              	.LVL30:
 397:Generated_Source\PSoC4/GraphicLCDIntf_1.c **** }
 522              		.loc 1 397 0
 523              		@ sp needed
 524 000c 10BD     		pop	{r4, pc}
 525              		.cfi_endproc
 526              	.LFE13:
 527              		.size	GraphicLCDIntf_1_ReadM16_A1, .-GraphicLCDIntf_1_ReadM16_A1
 528              		.global	GraphicLCDIntf_1_initVar
 529 000e C046     		.bss
 530              		.set	.LANCHOR0,. + 0
 531              		.type	GraphicLCDIntf_1_initVar, %object
 532              		.size	GraphicLCDIntf_1_initVar, 1
 533              	GraphicLCDIntf_1_initVar:
 534 0000 00       		.space	1
 535              		.text
 536              	.Letext0:
 537              		.file 2 "Generated_Source\\PSoC4\\cytypes.h"