ARM GAS  C:\Users\leoja\AppData\Local\Temp\ccmDCAAc.s 			page 1


   1              		.syntax unified
   2              		.cpu cortex-m0
   3              		.fpu softvfp
   4              		.eabi_attribute 20, 1
   5              		.eabi_attribute 21, 1
   6              		.eabi_attribute 23, 3
   7              		.eabi_attribute 24, 1
   8              		.eabi_attribute 25, 1
   9              		.eabi_attribute 26, 1
  10              		.eabi_attribute 30, 1
  11              		.eabi_attribute 34, 0
  12              		.eabi_attribute 18, 4
  13              		.thumb
  14              		.syntax unified
  15              		.file	"GraphicLCDIntf.c"
  16              		.text
  17              	.Ltext0:
  18              		.cfi_sections	.debug_frame
  19              		.section	.text.GraphicLCDIntf_Enable,"ax",%progbits
  20              		.align	2
  21              		.global	GraphicLCDIntf_Enable
  22              		.code	16
  23              		.thumb_func
  24              		.type	GraphicLCDIntf_Enable, %function
  25              	GraphicLCDIntf_Enable:
  26              	.LFB0:
  27              		.file 1 "Generated_Source\\PSoC4\\GraphicLCDIntf.c"
   1:Generated_Source\PSoC4/GraphicLCDIntf.c **** /*******************************************************************************
   2:Generated_Source\PSoC4/GraphicLCDIntf.c **** * File Name: GraphicLCDIntf.c  
   3:Generated_Source\PSoC4/GraphicLCDIntf.c **** * Version 1.80
   4:Generated_Source\PSoC4/GraphicLCDIntf.c **** *
   5:Generated_Source\PSoC4/GraphicLCDIntf.c **** * Description:
   6:Generated_Source\PSoC4/GraphicLCDIntf.c **** *  This file contains the setup, control and status commands for the 
   7:Generated_Source\PSoC4/GraphicLCDIntf.c **** *  GraphicLCDIntf component.   
   8:Generated_Source\PSoC4/GraphicLCDIntf.c **** *
   9:Generated_Source\PSoC4/GraphicLCDIntf.c **** *******************************************************************************
  10:Generated_Source\PSoC4/GraphicLCDIntf.c **** * Copyright 2008-2018, Cypress Semiconductor Corporation.  All rights reserved.
  11:Generated_Source\PSoC4/GraphicLCDIntf.c **** * You may use this file only in accordance with the license, terms, conditions, 
  12:Generated_Source\PSoC4/GraphicLCDIntf.c **** * disclaimers, and limitations in the end user license agreement accompanying 
  13:Generated_Source\PSoC4/GraphicLCDIntf.c **** * the software package with which this file was provided.
  14:Generated_Source\PSoC4/GraphicLCDIntf.c **** ********************************************************************************/
  15:Generated_Source\PSoC4/GraphicLCDIntf.c **** 
  16:Generated_Source\PSoC4/GraphicLCDIntf.c **** #include "GraphicLCDIntf.h"  
  17:Generated_Source\PSoC4/GraphicLCDIntf.c **** 
  18:Generated_Source\PSoC4/GraphicLCDIntf.c **** uint8 GraphicLCDIntf_initVar = 0u;
  19:Generated_Source\PSoC4/GraphicLCDIntf.c **** 
  20:Generated_Source\PSoC4/GraphicLCDIntf.c **** 
  21:Generated_Source\PSoC4/GraphicLCDIntf.c **** /*******************************************************************************
  22:Generated_Source\PSoC4/GraphicLCDIntf.c **** * Function Name: GraphicLCDIntf_Enable
  23:Generated_Source\PSoC4/GraphicLCDIntf.c **** ********************************************************************************
  24:Generated_Source\PSoC4/GraphicLCDIntf.c **** *
  25:Generated_Source\PSoC4/GraphicLCDIntf.c **** * Summary:
  26:Generated_Source\PSoC4/GraphicLCDIntf.c **** *  There is no need to reset or enable this component.  This component is 
  27:Generated_Source\PSoC4/GraphicLCDIntf.c **** *  naturally a slave that waits for the API calls to perform any 
  28:Generated_Source\PSoC4/GraphicLCDIntf.c **** *  function and after a request is made that request will always complete in 
  29:Generated_Source\PSoC4/GraphicLCDIntf.c **** *  finite time as long as a clock is provided. The only thing provided
  30:Generated_Source\PSoC4/GraphicLCDIntf.c **** *  by this API is setting the Command FIFO to drive at least the half-empty status
ARM GAS  C:\Users\leoja\AppData\Local\Temp\ccmDCAAc.s 			page 2


  31:Generated_Source\PSoC4/GraphicLCDIntf.c **** *  from the FIFO.
  32:Generated_Source\PSoC4/GraphicLCDIntf.c **** *
  33:Generated_Source\PSoC4/GraphicLCDIntf.c **** *******************************************************************************/
  34:Generated_Source\PSoC4/GraphicLCDIntf.c **** void GraphicLCDIntf_Enable(void) 
  35:Generated_Source\PSoC4/GraphicLCDIntf.c **** {   
  28              		.loc 1 35 0
  29              		.cfi_startproc
  30              		@ args = 0, pretend = 0, frame = 0
  31              		@ frame_needed = 0, uses_anonymous_args = 0
  32              		@ link register save eliminated.
  36:Generated_Source\PSoC4/GraphicLCDIntf.c ****     /* Nothing to enable */
  37:Generated_Source\PSoC4/GraphicLCDIntf.c **** }
  33              		.loc 1 37 0
  34              		@ sp needed
  35 0000 7047     		bx	lr
  36              		.cfi_endproc
  37              	.LFE0:
  38              		.size	GraphicLCDIntf_Enable, .-GraphicLCDIntf_Enable
  39 0002 C046     		.section	.text.GraphicLCDIntf_Init,"ax",%progbits
  40              		.align	2
  41              		.global	GraphicLCDIntf_Init
  42              		.code	16
  43              		.thumb_func
  44              		.type	GraphicLCDIntf_Init, %function
  45              	GraphicLCDIntf_Init:
  46              	.LFB1:
  38:Generated_Source\PSoC4/GraphicLCDIntf.c **** 
  39:Generated_Source\PSoC4/GraphicLCDIntf.c **** 
  40:Generated_Source\PSoC4/GraphicLCDIntf.c **** /*******************************************************************************
  41:Generated_Source\PSoC4/GraphicLCDIntf.c **** * Function Name: GraphicLCDIntf_Init
  42:Generated_Source\PSoC4/GraphicLCDIntf.c **** ********************************************************************************
  43:Generated_Source\PSoC4/GraphicLCDIntf.c **** *
  44:Generated_Source\PSoC4/GraphicLCDIntf.c **** * Summary:
  45:Generated_Source\PSoC4/GraphicLCDIntf.c **** *  Inits/Restores default GraphicLCDIntf configuration provided with the customizer.
  46:Generated_Source\PSoC4/GraphicLCDIntf.c **** * 
  47:Generated_Source\PSoC4/GraphicLCDIntf.c **** *******************************************************************************/
  48:Generated_Source\PSoC4/GraphicLCDIntf.c **** void GraphicLCDIntf_Init(void) 
  49:Generated_Source\PSoC4/GraphicLCDIntf.c **** {
  47              		.loc 1 49 0
  48              		.cfi_startproc
  49              		@ args = 0, pretend = 0, frame = 0
  50              		@ frame_needed = 0, uses_anonymous_args = 0
  51              		@ link register save eliminated.
  50:Generated_Source\PSoC4/GraphicLCDIntf.c ****     /* Set low and high pulse widths for a read transaction */
  51:Generated_Source\PSoC4/GraphicLCDIntf.c ****     GraphicLCDIntf_READ_LO_PULSE_REG = GraphicLCDIntf_READ_LOW_PULSE;
  52              		.loc 1 51 0
  53 0000 0822     		movs	r2, #8
  54 0002 034B     		ldr	r3, .L3
  55 0004 1A70     		strb	r2, [r3]
  52:Generated_Source\PSoC4/GraphicLCDIntf.c ****     GraphicLCDIntf_READ_HI_PULSE_REG = GraphicLCDIntf_READ_HIGH_PULSE;
  56              		.loc 1 52 0
  57 0006 0132     		adds	r2, r2, #1
  58 0008 024B     		ldr	r3, .L3+4
  59 000a 1A70     		strb	r2, [r3]
  53:Generated_Source\PSoC4/GraphicLCDIntf.c **** }
  60              		.loc 1 53 0
  61              		@ sp needed
ARM GAS  C:\Users\leoja\AppData\Local\Temp\ccmDCAAc.s 			page 3


  62 000c 7047     		bx	lr
  63              	.L4:
  64 000e C046     		.align	2
  65              	.L3:
  66 0010 21000F40 		.word	1074724897
  67 0014 31000F40 		.word	1074724913
  68              		.cfi_endproc
  69              	.LFE1:
  70              		.size	GraphicLCDIntf_Init, .-GraphicLCDIntf_Init
  71              		.section	.text.GraphicLCDIntf_Start,"ax",%progbits
  72              		.align	2
  73              		.global	GraphicLCDIntf_Start
  74              		.code	16
  75              		.thumb_func
  76              		.type	GraphicLCDIntf_Start, %function
  77              	GraphicLCDIntf_Start:
  78              	.LFB2:
  54:Generated_Source\PSoC4/GraphicLCDIntf.c **** 
  55:Generated_Source\PSoC4/GraphicLCDIntf.c **** 
  56:Generated_Source\PSoC4/GraphicLCDIntf.c **** /*******************************************************************************
  57:Generated_Source\PSoC4/GraphicLCDIntf.c **** * Function Name: GraphicLCDIntf_Start
  58:Generated_Source\PSoC4/GraphicLCDIntf.c **** ********************************************************************************
  59:Generated_Source\PSoC4/GraphicLCDIntf.c **** *
  60:Generated_Source\PSoC4/GraphicLCDIntf.c **** * Summary:
  61:Generated_Source\PSoC4/GraphicLCDIntf.c **** *  Starts the GraphicLCDIntf interface.
  62:Generated_Source\PSoC4/GraphicLCDIntf.c **** *
  63:Generated_Source\PSoC4/GraphicLCDIntf.c **** * Global Variables:
  64:Generated_Source\PSoC4/GraphicLCDIntf.c **** *  GraphicLCDIntf_initVar - Used to check the initial configuration, modified on 
  65:Generated_Source\PSoC4/GraphicLCDIntf.c **** *  the first function call.
  66:Generated_Source\PSoC4/GraphicLCDIntf.c **** *
  67:Generated_Source\PSoC4/GraphicLCDIntf.c **** *******************************************************************************/
  68:Generated_Source\PSoC4/GraphicLCDIntf.c **** void GraphicLCDIntf_Start(void) 
  69:Generated_Source\PSoC4/GraphicLCDIntf.c **** {
  79              		.loc 1 69 0
  80              		.cfi_startproc
  81              		@ args = 0, pretend = 0, frame = 0
  82              		@ frame_needed = 0, uses_anonymous_args = 0
  83 0000 10B5     		push	{r4, lr}
  84              		.cfi_def_cfa_offset 8
  85              		.cfi_offset 4, -8
  86              		.cfi_offset 14, -4
  70:Generated_Source\PSoC4/GraphicLCDIntf.c ****     if (GraphicLCDIntf_initVar == 0u)
  87              		.loc 1 70 0
  88 0002 054B     		ldr	r3, .L7
  89 0004 1B78     		ldrb	r3, [r3]
  90 0006 002B     		cmp	r3, #0
  91 0008 04D1     		bne	.L5
  71:Generated_Source\PSoC4/GraphicLCDIntf.c ****     {
  72:Generated_Source\PSoC4/GraphicLCDIntf.c ****         GraphicLCDIntf_Init();
  92              		.loc 1 72 0
  93 000a FFF7FEFF 		bl	GraphicLCDIntf_Init
  94              	.LVL0:
  73:Generated_Source\PSoC4/GraphicLCDIntf.c ****         GraphicLCDIntf_initVar = 1u;
  95              		.loc 1 73 0
  96 000e 0122     		movs	r2, #1
  97 0010 014B     		ldr	r3, .L7
  98 0012 1A70     		strb	r2, [r3]
ARM GAS  C:\Users\leoja\AppData\Local\Temp\ccmDCAAc.s 			page 4


  99              	.L5:
  74:Generated_Source\PSoC4/GraphicLCDIntf.c ****     }
  75:Generated_Source\PSoC4/GraphicLCDIntf.c ****       
  76:Generated_Source\PSoC4/GraphicLCDIntf.c ****     GraphicLCDIntf_Enable();
  77:Generated_Source\PSoC4/GraphicLCDIntf.c **** }
 100              		.loc 1 77 0
 101              		@ sp needed
 102 0014 10BD     		pop	{r4, pc}
 103              	.L8:
 104 0016 C046     		.align	2
 105              	.L7:
 106 0018 00000000 		.word	.LANCHOR0
 107              		.cfi_endproc
 108              	.LFE2:
 109              		.size	GraphicLCDIntf_Start, .-GraphicLCDIntf_Start
 110              		.section	.text.GraphicLCDIntf_Stop,"ax",%progbits
 111              		.align	2
 112              		.global	GraphicLCDIntf_Stop
 113              		.code	16
 114              		.thumb_func
 115              		.type	GraphicLCDIntf_Stop, %function
 116              	GraphicLCDIntf_Stop:
 117              	.LFB3:
  78:Generated_Source\PSoC4/GraphicLCDIntf.c **** 
  79:Generated_Source\PSoC4/GraphicLCDIntf.c **** 
  80:Generated_Source\PSoC4/GraphicLCDIntf.c **** /*******************************************************************************
  81:Generated_Source\PSoC4/GraphicLCDIntf.c **** * Function Name: GraphicLCDIntf_Stop
  82:Generated_Source\PSoC4/GraphicLCDIntf.c **** ********************************************************************************
  83:Generated_Source\PSoC4/GraphicLCDIntf.c **** *
  84:Generated_Source\PSoC4/GraphicLCDIntf.c **** * Summary:
  85:Generated_Source\PSoC4/GraphicLCDIntf.c **** *  Disables the GraphicLCDIntf interface.
  86:Generated_Source\PSoC4/GraphicLCDIntf.c **** *
  87:Generated_Source\PSoC4/GraphicLCDIntf.c **** *******************************************************************************/
  88:Generated_Source\PSoC4/GraphicLCDIntf.c **** void GraphicLCDIntf_Stop(void) 
  89:Generated_Source\PSoC4/GraphicLCDIntf.c **** {
 118              		.loc 1 89 0
 119              		.cfi_startproc
 120              		@ args = 0, pretend = 0, frame = 0
 121              		@ frame_needed = 0, uses_anonymous_args = 0
 122              		@ link register save eliminated.
  90:Generated_Source\PSoC4/GraphicLCDIntf.c ****     /* Nothing to stop */
  91:Generated_Source\PSoC4/GraphicLCDIntf.c **** }
 123              		.loc 1 91 0
 124              		@ sp needed
 125 0000 7047     		bx	lr
 126              		.cfi_endproc
 127              	.LFE3:
 128              		.size	GraphicLCDIntf_Stop, .-GraphicLCDIntf_Stop
 129 0002 C046     		.section	.text.GraphicLCDIntf_Write8,"ax",%progbits
 130              		.align	2
 131              		.global	GraphicLCDIntf_Write8
 132              		.code	16
 133              		.thumb_func
 134              		.type	GraphicLCDIntf_Write8, %function
 135              	GraphicLCDIntf_Write8:
 136              	.LFB4:
  92:Generated_Source\PSoC4/GraphicLCDIntf.c **** 
ARM GAS  C:\Users\leoja\AppData\Local\Temp\ccmDCAAc.s 			page 5


  93:Generated_Source\PSoC4/GraphicLCDIntf.c **** 
  94:Generated_Source\PSoC4/GraphicLCDIntf.c **** /*******************************************************************************
  95:Generated_Source\PSoC4/GraphicLCDIntf.c **** * Function Name: GraphicLCDIntf_Write8
  96:Generated_Source\PSoC4/GraphicLCDIntf.c **** ********************************************************************************
  97:Generated_Source\PSoC4/GraphicLCDIntf.c **** *
  98:Generated_Source\PSoC4/GraphicLCDIntf.c **** * Summary:
  99:Generated_Source\PSoC4/GraphicLCDIntf.c **** *  Initiates a write transaction on the 8-bit parallel
 100:Generated_Source\PSoC4/GraphicLCDIntf.c **** *  interface.
 101:Generated_Source\PSoC4/GraphicLCDIntf.c **** *  The write is a posted write, so this function will return before the write 
 102:Generated_Source\PSoC4/GraphicLCDIntf.c **** *  has actually completed on the interface. If the command queue is full, this 
 103:Generated_Source\PSoC4/GraphicLCDIntf.c **** *  function will not return until space is available to queue this write request.
 104:Generated_Source\PSoC4/GraphicLCDIntf.c **** *
 105:Generated_Source\PSoC4/GraphicLCDIntf.c **** * Parameters:
 106:Generated_Source\PSoC4/GraphicLCDIntf.c **** *  d_c:  Data(1) or Command(0) indication. Passed to the d_c pin.
 107:Generated_Source\PSoC4/GraphicLCDIntf.c **** *
 108:Generated_Source\PSoC4/GraphicLCDIntf.c **** *  wrData: Data sent to the do_msb[7:0] (most significant byte) 
 109:Generated_Source\PSoC4/GraphicLCDIntf.c **** *          and do_lsb[7:0] (least significant byte) pins. do_msb[7:0]
 110:Generated_Source\PSoC4/GraphicLCDIntf.c **** *          presents only for the 16-bit interface.
 111:Generated_Source\PSoC4/GraphicLCDIntf.c **** *
 112:Generated_Source\PSoC4/GraphicLCDIntf.c **** *******************************************************************************/
 113:Generated_Source\PSoC4/GraphicLCDIntf.c **** void GraphicLCDIntf_Write8(uint8 d_c, uint8 wrData) 
 114:Generated_Source\PSoC4/GraphicLCDIntf.c **** {
 137              		.loc 1 114 0
 138              		.cfi_startproc
 139              		@ args = 0, pretend = 0, frame = 0
 140              		@ frame_needed = 0, uses_anonymous_args = 0
 141              		@ link register save eliminated.
 142              	.LVL1:
 143              	.L11:
 115:Generated_Source\PSoC4/GraphicLCDIntf.c ****     while((GraphicLCDIntf_STATUS_REG & GraphicLCDIntf_CMD_QUEUE_FULL) != 0u)
 144              		.loc 1 115 0 discriminator 1
 145 0000 044B     		ldr	r3, .L12
 146 0002 1B78     		ldrb	r3, [r3]
 147 0004 DB07     		lsls	r3, r3, #31
 148 0006 FBD4     		bmi	.L11
 116:Generated_Source\PSoC4/GraphicLCDIntf.c ****     {
 117:Generated_Source\PSoC4/GraphicLCDIntf.c ****         /* The command queue is full */
 118:Generated_Source\PSoC4/GraphicLCDIntf.c ****     }   
 119:Generated_Source\PSoC4/GraphicLCDIntf.c ****     GraphicLCDIntf_CMD_FIFO_REG = d_c;
 149              		.loc 1 119 0
 150 0008 034B     		ldr	r3, .L12+4
 151 000a 1870     		strb	r0, [r3]
 120:Generated_Source\PSoC4/GraphicLCDIntf.c ****     #if (GraphicLCDIntf_BUS_WIDTH == 16u)
 121:Generated_Source\PSoC4/GraphicLCDIntf.c ****         CY_SET_REG16(GraphicLCDIntf_DATA_FIFO_PTR, wrData);
 122:Generated_Source\PSoC4/GraphicLCDIntf.c ****     #else /* 8-bit interface */
 123:Generated_Source\PSoC4/GraphicLCDIntf.c ****         GraphicLCDIntf_DATA_FIFO_REG = wrData;
 152              		.loc 1 123 0
 153 000c 034B     		ldr	r3, .L12+8
 154 000e 1970     		strb	r1, [r3]
 124:Generated_Source\PSoC4/GraphicLCDIntf.c ****     #endif /* GraphicLCDIntf_BUS_WIDTH == 16u */
 125:Generated_Source\PSoC4/GraphicLCDIntf.c **** }
 155              		.loc 1 125 0
 156              		@ sp needed
 157 0010 7047     		bx	lr
 158              	.L13:
 159 0012 C046     		.align	2
 160              	.L12:
ARM GAS  C:\Users\leoja\AppData\Local\Temp\ccmDCAAc.s 			page 6


 161 0014 61000F40 		.word	1074724961
 162 0018 41000F40 		.word	1074724929
 163 001c 51000F40 		.word	1074724945
 164              		.cfi_endproc
 165              	.LFE4:
 166              		.size	GraphicLCDIntf_Write8, .-GraphicLCDIntf_Write8
 167              		.section	.text.GraphicLCDIntf_WriteM8,"ax",%progbits
 168              		.align	2
 169              		.global	GraphicLCDIntf_WriteM8
 170              		.code	16
 171              		.thumb_func
 172              		.type	GraphicLCDIntf_WriteM8, %function
 173              	GraphicLCDIntf_WriteM8:
 174              	.LFB5:
 126:Generated_Source\PSoC4/GraphicLCDIntf.c **** 	
 127:Generated_Source\PSoC4/GraphicLCDIntf.c **** 
 128:Generated_Source\PSoC4/GraphicLCDIntf.c **** /*******************************************************************************
 129:Generated_Source\PSoC4/GraphicLCDIntf.c **** * Function Name: GraphicLCDIntf_WriteM8
 130:Generated_Source\PSoC4/GraphicLCDIntf.c **** ********************************************************************************
 131:Generated_Source\PSoC4/GraphicLCDIntf.c **** *
 132:Generated_Source\PSoC4/GraphicLCDIntf.c **** * Summary:
 133:Generated_Source\PSoC4/GraphicLCDIntf.c **** *  Initiates multiple write transactions on the 8-bit 
 134:Generated_Source\PSoC4/GraphicLCDIntf.c **** *  parallel interface. The write is a posted write, so this function will return
 135:Generated_Source\PSoC4/GraphicLCDIntf.c **** *  before the write has actually completed on the interface. If the command 
 136:Generated_Source\PSoC4/GraphicLCDIntf.c **** *  queue is full, this function will not return until space is available to queue
 137:Generated_Source\PSoC4/GraphicLCDIntf.c **** *  this write request.
 138:Generated_Source\PSoC4/GraphicLCDIntf.c **** *
 139:Generated_Source\PSoC4/GraphicLCDIntf.c **** * Parameters:
 140:Generated_Source\PSoC4/GraphicLCDIntf.c **** *  d_c:    The Data(1) or Command(0) indication. Passed to the d_c pin.
 141:Generated_Source\PSoC4/GraphicLCDIntf.c **** *
 142:Generated_Source\PSoC4/GraphicLCDIntf.c **** *  wrData: The pointer to the the first element of a data buffer sent to the do_msb[7:0]
 143:Generated_Source\PSoC4/GraphicLCDIntf.c **** *          (most significant byte) and do_lsb[7:0] (least significant byte) pins. 
 144:Generated_Source\PSoC4/GraphicLCDIntf.c **** *          do_msb[7:0] presents only for the 16-bit interface.
 145:Generated_Source\PSoC4/GraphicLCDIntf.c **** *
 146:Generated_Source\PSoC4/GraphicLCDIntf.c **** *  num:    The number of words/bytes to write.
 147:Generated_Source\PSoC4/GraphicLCDIntf.c **** *
 148:Generated_Source\PSoC4/GraphicLCDIntf.c **** *******************************************************************************/
 149:Generated_Source\PSoC4/GraphicLCDIntf.c **** void GraphicLCDIntf_WriteM8(uint8 d_c, uint8 wrData[], uint16 num) 
 150:Generated_Source\PSoC4/GraphicLCDIntf.c **** {
 175              		.loc 1 150 0
 176              		.cfi_startproc
 177              		@ args = 0, pretend = 0, frame = 0
 178              		@ frame_needed = 0, uses_anonymous_args = 0
 179              	.LVL2:
 180 0000 30B5     		push	{r4, r5, lr}
 181              		.cfi_def_cfa_offset 12
 182              		.cfi_offset 4, -12
 183              		.cfi_offset 5, -8
 184              		.cfi_offset 14, -4
 185              	.LVL3:
 151:Generated_Source\PSoC4/GraphicLCDIntf.c ****     uint32 i;
 152:Generated_Source\PSoC4/GraphicLCDIntf.c ****     
 153:Generated_Source\PSoC4/GraphicLCDIntf.c ****     for(i = 0u; i < num; i++)
 186              		.loc 1 153 0
 187 0002 0024     		movs	r4, #0
 188 0004 09E0     		b	.L15
 189              	.LVL4:
ARM GAS  C:\Users\leoja\AppData\Local\Temp\ccmDCAAc.s 			page 7


 190              	.L16:
 154:Generated_Source\PSoC4/GraphicLCDIntf.c ****     {
 155:Generated_Source\PSoC4/GraphicLCDIntf.c ****         while((GraphicLCDIntf_STATUS_REG & GraphicLCDIntf_CMD_QUEUE_FULL) != 0u)
 191              		.loc 1 155 0 discriminator 1
 192 0006 064B     		ldr	r3, .L17
 193 0008 1B78     		ldrb	r3, [r3]
 194 000a DB07     		lsls	r3, r3, #31
 195 000c FBD4     		bmi	.L16
 156:Generated_Source\PSoC4/GraphicLCDIntf.c ****         {
 157:Generated_Source\PSoC4/GraphicLCDIntf.c ****             /* The command queue is full */
 158:Generated_Source\PSoC4/GraphicLCDIntf.c ****         }   
 159:Generated_Source\PSoC4/GraphicLCDIntf.c ****         GraphicLCDIntf_CMD_FIFO_REG = d_c;  
 196              		.loc 1 159 0 discriminator 2
 197 000e 054B     		ldr	r3, .L17+4
 198 0010 1870     		strb	r0, [r3]
 160:Generated_Source\PSoC4/GraphicLCDIntf.c ****  
 161:Generated_Source\PSoC4/GraphicLCDIntf.c ****         #if (GraphicLCDIntf_BUS_WIDTH == 16u)
 162:Generated_Source\PSoC4/GraphicLCDIntf.c ****             CY_SET_REG16(GraphicLCDIntf_DATA_FIFO_PTR, wrData[i]);
 163:Generated_Source\PSoC4/GraphicLCDIntf.c ****         #else /* 8-bit interface */
 164:Generated_Source\PSoC4/GraphicLCDIntf.c ****             GraphicLCDIntf_DATA_FIFO_REG = wrData[i];
 199              		.loc 1 164 0 discriminator 2
 200 0012 0D5D     		ldrb	r5, [r1, r4]
 201 0014 044B     		ldr	r3, .L17+8
 202 0016 1D70     		strb	r5, [r3]
 153:Generated_Source\PSoC4/GraphicLCDIntf.c ****     {
 203              		.loc 1 153 0 discriminator 2
 204 0018 0134     		adds	r4, r4, #1
 205              	.LVL5:
 206              	.L15:
 153:Generated_Source\PSoC4/GraphicLCDIntf.c ****     {
 207              		.loc 1 153 0 is_stmt 0 discriminator 1
 208 001a 9442     		cmp	r4, r2
 209 001c F3D3     		bcc	.L16
 165:Generated_Source\PSoC4/GraphicLCDIntf.c ****         #endif /* GraphicLCDIntf_BUS_WIDTH == 16u */
 166:Generated_Source\PSoC4/GraphicLCDIntf.c ****     }
 167:Generated_Source\PSoC4/GraphicLCDIntf.c **** }
 210              		.loc 1 167 0 is_stmt 1
 211              		@ sp needed
 212              	.LVL6:
 213 001e 30BD     		pop	{r4, r5, pc}
 214              	.L18:
 215              		.align	2
 216              	.L17:
 217 0020 61000F40 		.word	1074724961
 218 0024 41000F40 		.word	1074724929
 219 0028 51000F40 		.word	1074724945
 220              		.cfi_endproc
 221              	.LFE5:
 222              		.size	GraphicLCDIntf_WriteM8, .-GraphicLCDIntf_WriteM8
 223              		.section	.text.GraphicLCDIntf_Read8,"ax",%progbits
 224              		.align	2
 225              		.global	GraphicLCDIntf_Read8
 226              		.code	16
 227              		.thumb_func
 228              		.type	GraphicLCDIntf_Read8, %function
 229              	GraphicLCDIntf_Read8:
 230              	.LFB6:
ARM GAS  C:\Users\leoja\AppData\Local\Temp\ccmDCAAc.s 			page 8


 168:Generated_Source\PSoC4/GraphicLCDIntf.c **** 
 169:Generated_Source\PSoC4/GraphicLCDIntf.c **** 
 170:Generated_Source\PSoC4/GraphicLCDIntf.c **** /*******************************************************************************
 171:Generated_Source\PSoC4/GraphicLCDIntf.c **** * Function Name: GraphicLCDIntf_Read8
 172:Generated_Source\PSoC4/GraphicLCDIntf.c **** ********************************************************************************
 173:Generated_Source\PSoC4/GraphicLCDIntf.c **** *
 174:Generated_Source\PSoC4/GraphicLCDIntf.c **** * Summary:
 175:Generated_Source\PSoC4/GraphicLCDIntf.c **** *  Initiates a read transaction on the 8-bit parallel interface.
 176:Generated_Source\PSoC4/GraphicLCDIntf.c **** *  The read will execute after all currently posted writes have completed. This 
 177:Generated_Source\PSoC4/GraphicLCDIntf.c **** *  function will wait until the read completes and then returns the read value.
 178:Generated_Source\PSoC4/GraphicLCDIntf.c **** *
 179:Generated_Source\PSoC4/GraphicLCDIntf.c **** * Parameters:
 180:Generated_Source\PSoC4/GraphicLCDIntf.c **** *  d_c: Data(1) or Command(0) indication. Passed to the d_c pin.
 181:Generated_Source\PSoC4/GraphicLCDIntf.c **** *
 182:Generated_Source\PSoC4/GraphicLCDIntf.c **** * Return:
 183:Generated_Source\PSoC4/GraphicLCDIntf.c **** *  The 16-bit read value from the di_msb[7:0] (most significant byte) and 
 184:Generated_Source\PSoC4/GraphicLCDIntf.c **** *  di_lsb[7:0] (least significant byte) pins for the 16-bit interface or the 
 185:Generated_Source\PSoC4/GraphicLCDIntf.c **** *  8-bit read value from the di_lsb[7:0] for 8-bit interface.
 186:Generated_Source\PSoC4/GraphicLCDIntf.c **** *
 187:Generated_Source\PSoC4/GraphicLCDIntf.c **** *******************************************************************************/
 188:Generated_Source\PSoC4/GraphicLCDIntf.c **** uint8 GraphicLCDIntf_Read8(uint8 d_c) 
 189:Generated_Source\PSoC4/GraphicLCDIntf.c **** {
 231              		.loc 1 189 0
 232              		.cfi_startproc
 233              		@ args = 0, pretend = 0, frame = 0
 234              		@ frame_needed = 0, uses_anonymous_args = 0
 235              		@ link register save eliminated.
 236              	.LVL7:
 237              	.L20:
 190:Generated_Source\PSoC4/GraphicLCDIntf.c ****     while((GraphicLCDIntf_STATUS_REG & GraphicLCDIntf_CMD_QUEUE_FULL) != 0u)
 238              		.loc 1 190 0 discriminator 1
 239 0000 084B     		ldr	r3, .L22
 240 0002 1B78     		ldrb	r3, [r3]
 241 0004 DB07     		lsls	r3, r3, #31
 242 0006 FBD4     		bmi	.L20
 191:Generated_Source\PSoC4/GraphicLCDIntf.c ****     {
 192:Generated_Source\PSoC4/GraphicLCDIntf.c ****         /* The command queue is full */
 193:Generated_Source\PSoC4/GraphicLCDIntf.c ****     }   
 194:Generated_Source\PSoC4/GraphicLCDIntf.c ****     GraphicLCDIntf_CMD_FIFO_REG = d_c | GraphicLCDIntf_READ_COMMAND;
 243              		.loc 1 194 0
 244 0008 0223     		movs	r3, #2
 245 000a 1843     		orrs	r0, r3
 246              	.LVL8:
 247 000c C0B2     		uxtb	r0, r0
 248 000e 064B     		ldr	r3, .L22+4
 249 0010 1870     		strb	r0, [r3]
 250              	.L21:
 195:Generated_Source\PSoC4/GraphicLCDIntf.c ****     
 196:Generated_Source\PSoC4/GraphicLCDIntf.c ****     while((GraphicLCDIntf_STATUS_REG & GraphicLCDIntf_DATA_VALID) != GraphicLCDIntf_DATA_VALID)
 251              		.loc 1 196 0 discriminator 1
 252 0012 044B     		ldr	r3, .L22
 253 0014 1B78     		ldrb	r3, [r3]
 254 0016 9B07     		lsls	r3, r3, #30
 255 0018 FBD5     		bpl	.L21
 197:Generated_Source\PSoC4/GraphicLCDIntf.c ****     {
 198:Generated_Source\PSoC4/GraphicLCDIntf.c ****         /* Wait until input data is valid */
 199:Generated_Source\PSoC4/GraphicLCDIntf.c ****     }
ARM GAS  C:\Users\leoja\AppData\Local\Temp\ccmDCAAc.s 			page 9


 200:Generated_Source\PSoC4/GraphicLCDIntf.c ****     
 201:Generated_Source\PSoC4/GraphicLCDIntf.c ****     #if (GraphicLCDIntf_BUS_WIDTH == 8u)  /* 8-bit interface */
 202:Generated_Source\PSoC4/GraphicLCDIntf.c ****         return (GraphicLCDIntf_DIN_LSB_DATA_REG);
 256              		.loc 1 202 0
 257 001a 044B     		ldr	r3, .L22+8
 258 001c 1878     		ldrb	r0, [r3]
 259 001e C0B2     		uxtb	r0, r0
 203:Generated_Source\PSoC4/GraphicLCDIntf.c ****     #else   /* 16-bit interface */
 204:Generated_Source\PSoC4/GraphicLCDIntf.c ****         return (uint16)((uint16)GraphicLCDIntf_DIN_MSB_DATA_REG << 8u) | GraphicLCDIntf_DIN_LSB_DAT
 205:Generated_Source\PSoC4/GraphicLCDIntf.c ****     #endif /* GraphicLCDIntf_BUS_WIDTH == 8u */
 206:Generated_Source\PSoC4/GraphicLCDIntf.c **** }
 260              		.loc 1 206 0
 261              		@ sp needed
 262 0020 7047     		bx	lr
 263              	.L23:
 264 0022 C046     		.align	2
 265              	.L22:
 266 0024 61000F40 		.word	1074724961
 267 0028 41000F40 		.word	1074724929
 268 002c 62000F40 		.word	1074724962
 269              		.cfi_endproc
 270              	.LFE6:
 271              		.size	GraphicLCDIntf_Read8, .-GraphicLCDIntf_Read8
 272              		.section	.text.GraphicLCDIntf_ReadM8,"ax",%progbits
 273              		.align	2
 274              		.global	GraphicLCDIntf_ReadM8
 275              		.code	16
 276              		.thumb_func
 277              		.type	GraphicLCDIntf_ReadM8, %function
 278              	GraphicLCDIntf_ReadM8:
 279              	.LFB7:
 207:Generated_Source\PSoC4/GraphicLCDIntf.c **** 
 208:Generated_Source\PSoC4/GraphicLCDIntf.c **** 
 209:Generated_Source\PSoC4/GraphicLCDIntf.c **** /*******************************************************************************
 210:Generated_Source\PSoC4/GraphicLCDIntf.c **** * Function Name: GraphicLCDIntf_ReadM8
 211:Generated_Source\PSoC4/GraphicLCDIntf.c **** ********************************************************************************
 212:Generated_Source\PSoC4/GraphicLCDIntf.c **** *
 213:Generated_Source\PSoC4/GraphicLCDIntf.c **** * Summary:
 214:Generated_Source\PSoC4/GraphicLCDIntf.c **** *  Initiates multiple read transactions on the 8-bit 
 215:Generated_Source\PSoC4/GraphicLCDIntf.c **** *  parallel interface. The read will execute after all currently posted writes 
 216:Generated_Source\PSoC4/GraphicLCDIntf.c **** *  have completed. This function will wait until the read completes and then 
 217:Generated_Source\PSoC4/GraphicLCDIntf.c **** *  returns the read value.
 218:Generated_Source\PSoC4/GraphicLCDIntf.c **** *
 219:Generated_Source\PSoC4/GraphicLCDIntf.c **** * Parameters:
 220:Generated_Source\PSoC4/GraphicLCDIntf.c **** *  d_c:    The Data(1) or Command(0) indication. Passed to the d_c pin.
 221:Generated_Source\PSoC4/GraphicLCDIntf.c **** *
 222:Generated_Source\PSoC4/GraphicLCDIntf.c **** *  rdData: The pointer to the the first element of a data buffer read from the do_msb[7:0]
 223:Generated_Source\PSoC4/GraphicLCDIntf.c **** *          (most significant byte) and do_lsb[7:0] (least significant byte) pins. 
 224:Generated_Source\PSoC4/GraphicLCDIntf.c **** *          do_msb[7:0] presents only for the 16-bit interface.
 225:Generated_Source\PSoC4/GraphicLCDIntf.c **** *
 226:Generated_Source\PSoC4/GraphicLCDIntf.c **** *  num:    The number of words/bytes to read.
 227:Generated_Source\PSoC4/GraphicLCDIntf.c **** *
 228:Generated_Source\PSoC4/GraphicLCDIntf.c **** *******************************************************************************/
 229:Generated_Source\PSoC4/GraphicLCDIntf.c **** void GraphicLCDIntf_ReadM8(uint8 d_c, uint8 rdData[], uint16 num) 
 230:Generated_Source\PSoC4/GraphicLCDIntf.c **** {
 280              		.loc 1 230 0
 281              		.cfi_startproc
ARM GAS  C:\Users\leoja\AppData\Local\Temp\ccmDCAAc.s 			page 10


 282              		@ args = 0, pretend = 0, frame = 8
 283              		@ frame_needed = 0, uses_anonymous_args = 0
 284              	.LVL9:
 285 0000 F0B5     		push	{r4, r5, r6, r7, lr}
 286              		.cfi_def_cfa_offset 20
 287              		.cfi_offset 4, -20
 288              		.cfi_offset 5, -16
 289              		.cfi_offset 6, -12
 290              		.cfi_offset 7, -8
 291              		.cfi_offset 14, -4
 292 0002 83B0     		sub	sp, sp, #12
 293              		.cfi_def_cfa_offset 32
 294 0004 0190     		str	r0, [sp, #4]
 295 0006 0E00     		movs	r6, r1
 296 0008 1700     		movs	r7, r2
 297              	.LVL10:
 231:Generated_Source\PSoC4/GraphicLCDIntf.c ****     uint32 i;
 232:Generated_Source\PSoC4/GraphicLCDIntf.c ****     
 233:Generated_Source\PSoC4/GraphicLCDIntf.c ****     for(i = 0u; i < num; i++)
 298              		.loc 1 233 0
 299 000a 0024     		movs	r4, #0
 300 000c 05E0     		b	.L25
 301              	.LVL11:
 302              	.L26:
 234:Generated_Source\PSoC4/GraphicLCDIntf.c ****     {
 235:Generated_Source\PSoC4/GraphicLCDIntf.c ****         rdData[i] = GraphicLCDIntf_Read8(d_c);
 303              		.loc 1 235 0 discriminator 3
 304 000e 3519     		adds	r5, r6, r4
 305 0010 0198     		ldr	r0, [sp, #4]
 306 0012 FFF7FEFF 		bl	GraphicLCDIntf_Read8
 307              	.LVL12:
 308 0016 2870     		strb	r0, [r5]
 233:Generated_Source\PSoC4/GraphicLCDIntf.c ****     {
 309              		.loc 1 233 0 discriminator 3
 310 0018 0134     		adds	r4, r4, #1
 311              	.LVL13:
 312              	.L25:
 233:Generated_Source\PSoC4/GraphicLCDIntf.c ****     {
 313              		.loc 1 233 0 is_stmt 0 discriminator 1
 314 001a BC42     		cmp	r4, r7
 315 001c F7D3     		bcc	.L26
 236:Generated_Source\PSoC4/GraphicLCDIntf.c ****     }
 237:Generated_Source\PSoC4/GraphicLCDIntf.c **** }
 316              		.loc 1 237 0 is_stmt 1
 317 001e 03B0     		add	sp, sp, #12
 318              		@ sp needed
 319              	.LVL14:
 320              	.LVL15:
 321 0020 F0BD     		pop	{r4, r5, r6, r7, pc}
 322              		.cfi_endproc
 323              	.LFE7:
 324              		.size	GraphicLCDIntf_ReadM8, .-GraphicLCDIntf_ReadM8
 325 0022 C046     		.section	.text.GraphicLCDIntf_Write8_A0,"ax",%progbits
 326              		.align	2
 327              		.global	GraphicLCDIntf_Write8_A0
 328              		.code	16
 329              		.thumb_func
ARM GAS  C:\Users\leoja\AppData\Local\Temp\ccmDCAAc.s 			page 11


 330              		.type	GraphicLCDIntf_Write8_A0, %function
 331              	GraphicLCDIntf_Write8_A0:
 332              	.LFB8:
 238:Generated_Source\PSoC4/GraphicLCDIntf.c **** 
 239:Generated_Source\PSoC4/GraphicLCDIntf.c **** 
 240:Generated_Source\PSoC4/GraphicLCDIntf.c **** /*******************************************************************************
 241:Generated_Source\PSoC4/GraphicLCDIntf.c **** * Function Name: GraphicLCDIntf_Write8_A0
 242:Generated_Source\PSoC4/GraphicLCDIntf.c **** ********************************************************************************
 243:Generated_Source\PSoC4/GraphicLCDIntf.c **** *
 244:Generated_Source\PSoC4/GraphicLCDIntf.c **** * Summary:
 245:Generated_Source\PSoC4/GraphicLCDIntf.c **** *  Initiates a write transaction on the 8-bit parallel
 246:Generated_Source\PSoC4/GraphicLCDIntf.c **** *  interface with the d_c pin set to 0.
 247:Generated_Source\PSoC4/GraphicLCDIntf.c **** *  The write is a posted write, so this function will return before the write 
 248:Generated_Source\PSoC4/GraphicLCDIntf.c **** *  has actually completed on the interface. If the command queue is full, this 
 249:Generated_Source\PSoC4/GraphicLCDIntf.c **** *  function will not return until space is availale to queue this write request.
 250:Generated_Source\PSoC4/GraphicLCDIntf.c **** *
 251:Generated_Source\PSoC4/GraphicLCDIntf.c **** * Parameters:
 252:Generated_Source\PSoC4/GraphicLCDIntf.c **** *  wrData: Data sent on the do_msb[7:0] (most significant byte) 
 253:Generated_Source\PSoC4/GraphicLCDIntf.c **** *         and do_lsb[7:0] (least significant byte) pins. do_msb[7:0]
 254:Generated_Source\PSoC4/GraphicLCDIntf.c **** *         presents only for 16-bit interface.
 255:Generated_Source\PSoC4/GraphicLCDIntf.c **** *
 256:Generated_Source\PSoC4/GraphicLCDIntf.c **** *******************************************************************************/
 257:Generated_Source\PSoC4/GraphicLCDIntf.c **** void GraphicLCDIntf_Write8_A0(uint8 wrData) 
 258:Generated_Source\PSoC4/GraphicLCDIntf.c **** {
 333              		.loc 1 258 0
 334              		.cfi_startproc
 335              		@ args = 0, pretend = 0, frame = 0
 336              		@ frame_needed = 0, uses_anonymous_args = 0
 337              		@ link register save eliminated.
 338              	.LVL16:
 339              	.L28:
 259:Generated_Source\PSoC4/GraphicLCDIntf.c ****     while((GraphicLCDIntf_STATUS_REG & GraphicLCDIntf_CMD_QUEUE_FULL) != 0u)
 340              		.loc 1 259 0 discriminator 1
 341 0000 044B     		ldr	r3, .L29
 342 0002 1B78     		ldrb	r3, [r3]
 343 0004 DB07     		lsls	r3, r3, #31
 344 0006 FBD4     		bmi	.L28
 260:Generated_Source\PSoC4/GraphicLCDIntf.c ****     {
 261:Generated_Source\PSoC4/GraphicLCDIntf.c ****         /* Command queue is full */
 262:Generated_Source\PSoC4/GraphicLCDIntf.c ****     }   
 263:Generated_Source\PSoC4/GraphicLCDIntf.c ****     GraphicLCDIntf_CMD_FIFO_REG = 0u;
 345              		.loc 1 263 0
 346 0008 0022     		movs	r2, #0
 347 000a 034B     		ldr	r3, .L29+4
 348 000c 1A70     		strb	r2, [r3]
 264:Generated_Source\PSoC4/GraphicLCDIntf.c ****     #if (GraphicLCDIntf_BUS_WIDTH == 16u)
 265:Generated_Source\PSoC4/GraphicLCDIntf.c ****         CY_SET_REG16(GraphicLCDIntf_DATA_FIFO_PTR, wrData);
 266:Generated_Source\PSoC4/GraphicLCDIntf.c ****     #else /* 8-bit interface */
 267:Generated_Source\PSoC4/GraphicLCDIntf.c ****         GraphicLCDIntf_DATA_FIFO_REG = wrData;
 349              		.loc 1 267 0
 350 000e 034B     		ldr	r3, .L29+8
 351 0010 1870     		strb	r0, [r3]
 268:Generated_Source\PSoC4/GraphicLCDIntf.c ****     #endif /* GraphicLCDIntf_BUS_WIDTH == 16u */
 269:Generated_Source\PSoC4/GraphicLCDIntf.c **** }
 352              		.loc 1 269 0
 353              		@ sp needed
 354 0012 7047     		bx	lr
ARM GAS  C:\Users\leoja\AppData\Local\Temp\ccmDCAAc.s 			page 12


 355              	.L30:
 356              		.align	2
 357              	.L29:
 358 0014 61000F40 		.word	1074724961
 359 0018 41000F40 		.word	1074724929
 360 001c 51000F40 		.word	1074724945
 361              		.cfi_endproc
 362              	.LFE8:
 363              		.size	GraphicLCDIntf_Write8_A0, .-GraphicLCDIntf_Write8_A0
 364              		.section	.text.GraphicLCDIntf_Write8_A1,"ax",%progbits
 365              		.align	2
 366              		.global	GraphicLCDIntf_Write8_A1
 367              		.code	16
 368              		.thumb_func
 369              		.type	GraphicLCDIntf_Write8_A1, %function
 370              	GraphicLCDIntf_Write8_A1:
 371              	.LFB9:
 270:Generated_Source\PSoC4/GraphicLCDIntf.c **** 
 271:Generated_Source\PSoC4/GraphicLCDIntf.c **** 
 272:Generated_Source\PSoC4/GraphicLCDIntf.c **** /*******************************************************************************
 273:Generated_Source\PSoC4/GraphicLCDIntf.c **** * Function Name: GraphicLCDIntf_Write8_A1
 274:Generated_Source\PSoC4/GraphicLCDIntf.c **** ********************************************************************************
 275:Generated_Source\PSoC4/GraphicLCDIntf.c **** *
 276:Generated_Source\PSoC4/GraphicLCDIntf.c **** * Summary:
 277:Generated_Source\PSoC4/GraphicLCDIntf.c **** *  Initiates a write transaction on the 8-bit 
 278:Generated_Source\PSoC4/GraphicLCDIntf.c **** *  parallel interface with the d_c pin set to 1. The write is a posted write, 
 279:Generated_Source\PSoC4/GraphicLCDIntf.c **** *  so this function will return before the write has actually completed on the 
 280:Generated_Source\PSoC4/GraphicLCDIntf.c **** *  interface. If the command queue is full, this function will not return until
 281:Generated_Source\PSoC4/GraphicLCDIntf.c **** *  space is availale to queue this write request.
 282:Generated_Source\PSoC4/GraphicLCDIntf.c **** *
 283:Generated_Source\PSoC4/GraphicLCDIntf.c **** * Parameters:
 284:Generated_Source\PSoC4/GraphicLCDIntf.c **** *  wrData: Data sent on the do_msb[7:0] (most significant byte) 
 285:Generated_Source\PSoC4/GraphicLCDIntf.c **** *          and do_lsb[7:0] (least significant byte) pins. do_msb[7:0]
 286:Generated_Source\PSoC4/GraphicLCDIntf.c **** *          presents only for 16-bit interface.
 287:Generated_Source\PSoC4/GraphicLCDIntf.c **** *
 288:Generated_Source\PSoC4/GraphicLCDIntf.c **** *******************************************************************************/
 289:Generated_Source\PSoC4/GraphicLCDIntf.c **** void GraphicLCDIntf_Write8_A1(uint8 wrData) 
 290:Generated_Source\PSoC4/GraphicLCDIntf.c **** {
 372              		.loc 1 290 0
 373              		.cfi_startproc
 374              		@ args = 0, pretend = 0, frame = 0
 375              		@ frame_needed = 0, uses_anonymous_args = 0
 376              		@ link register save eliminated.
 377              	.LVL17:
 378              	.L32:
 291:Generated_Source\PSoC4/GraphicLCDIntf.c ****     while((GraphicLCDIntf_STATUS_REG & GraphicLCDIntf_CMD_QUEUE_FULL) != 0u)
 379              		.loc 1 291 0 discriminator 1
 380 0000 044B     		ldr	r3, .L33
 381 0002 1B78     		ldrb	r3, [r3]
 382 0004 DB07     		lsls	r3, r3, #31
 383 0006 FBD4     		bmi	.L32
 292:Generated_Source\PSoC4/GraphicLCDIntf.c ****     {
 293:Generated_Source\PSoC4/GraphicLCDIntf.c ****         /* Command queue is full */
 294:Generated_Source\PSoC4/GraphicLCDIntf.c ****     }   
 295:Generated_Source\PSoC4/GraphicLCDIntf.c ****     GraphicLCDIntf_CMD_FIFO_REG = 1u;
 384              		.loc 1 295 0
 385 0008 0122     		movs	r2, #1
ARM GAS  C:\Users\leoja\AppData\Local\Temp\ccmDCAAc.s 			page 13


 386 000a 034B     		ldr	r3, .L33+4
 387 000c 1A70     		strb	r2, [r3]
 296:Generated_Source\PSoC4/GraphicLCDIntf.c ****     #if (GraphicLCDIntf_BUS_WIDTH == 16u)
 297:Generated_Source\PSoC4/GraphicLCDIntf.c ****         CY_SET_REG16(GraphicLCDIntf_DATA_FIFO_PTR, wrData);
 298:Generated_Source\PSoC4/GraphicLCDIntf.c ****     #else /* 8-bit interface */
 299:Generated_Source\PSoC4/GraphicLCDIntf.c ****         GraphicLCDIntf_DATA_FIFO_REG = wrData;
 388              		.loc 1 299 0
 389 000e 034B     		ldr	r3, .L33+8
 390 0010 1870     		strb	r0, [r3]
 300:Generated_Source\PSoC4/GraphicLCDIntf.c ****     #endif /* GraphicLCDIntf_BUS_WIDTH == 16u */
 301:Generated_Source\PSoC4/GraphicLCDIntf.c **** }
 391              		.loc 1 301 0
 392              		@ sp needed
 393 0012 7047     		bx	lr
 394              	.L34:
 395              		.align	2
 396              	.L33:
 397 0014 61000F40 		.word	1074724961
 398 0018 41000F40 		.word	1074724929
 399 001c 51000F40 		.word	1074724945
 400              		.cfi_endproc
 401              	.LFE9:
 402              		.size	GraphicLCDIntf_Write8_A1, .-GraphicLCDIntf_Write8_A1
 403              		.section	.text.GraphicLCDIntf_WriteM8_A0,"ax",%progbits
 404              		.align	2
 405              		.global	GraphicLCDIntf_WriteM8_A0
 406              		.code	16
 407              		.thumb_func
 408              		.type	GraphicLCDIntf_WriteM8_A0, %function
 409              	GraphicLCDIntf_WriteM8_A0:
 410              	.LFB10:
 302:Generated_Source\PSoC4/GraphicLCDIntf.c **** 
 303:Generated_Source\PSoC4/GraphicLCDIntf.c **** 
 304:Generated_Source\PSoC4/GraphicLCDIntf.c **** /*******************************************************************************
 305:Generated_Source\PSoC4/GraphicLCDIntf.c **** * Function Name: GraphicLCDIntf_WriteM8_A0
 306:Generated_Source\PSoC4/GraphicLCDIntf.c **** ********************************************************************************
 307:Generated_Source\PSoC4/GraphicLCDIntf.c **** *
 308:Generated_Source\PSoC4/GraphicLCDIntf.c **** * Summary:
 309:Generated_Source\PSoC4/GraphicLCDIntf.c **** *  Initiates multiple write transactions on the 8-bit 
 310:Generated_Source\PSoC4/GraphicLCDIntf.c **** *  parallel interface with the d_c pin set to 0. The write is a posted write, 
 311:Generated_Source\PSoC4/GraphicLCDIntf.c **** *  so this function will return before the write has actually completed on the 
 312:Generated_Source\PSoC4/GraphicLCDIntf.c **** *  interface. If the command queue is full, this function will not return until
 313:Generated_Source\PSoC4/GraphicLCDIntf.c **** *  space is availale to queue this write request.
 314:Generated_Source\PSoC4/GraphicLCDIntf.c **** *
 315:Generated_Source\PSoC4/GraphicLCDIntf.c **** * Parameters:
 316:Generated_Source\PSoC4/GraphicLCDIntf.c **** *  wrData: Pointer to the the first element of a data buffer sent on the 
 317:Generated_Source\PSoC4/GraphicLCDIntf.c **** *          do_msb[7:0] (most significant byte) and do_lsb[7:0] (least significant
 318:Generated_Source\PSoC4/GraphicLCDIntf.c **** *          byte) pins. do_msb[7:0] presents only for 16-bit interface.
 319:Generated_Source\PSoC4/GraphicLCDIntf.c **** *
 320:Generated_Source\PSoC4/GraphicLCDIntf.c **** *  num:  Number of words/bytes to write.
 321:Generated_Source\PSoC4/GraphicLCDIntf.c **** *
 322:Generated_Source\PSoC4/GraphicLCDIntf.c **** *******************************************************************************/
 323:Generated_Source\PSoC4/GraphicLCDIntf.c **** void GraphicLCDIntf_WriteM8_A0(uint8 wrData[], int num) 
 324:Generated_Source\PSoC4/GraphicLCDIntf.c **** {
 411              		.loc 1 324 0
 412              		.cfi_startproc
 413              		@ args = 0, pretend = 0, frame = 0
ARM GAS  C:\Users\leoja\AppData\Local\Temp\ccmDCAAc.s 			page 14


 414              		@ frame_needed = 0, uses_anonymous_args = 0
 415              	.LVL18:
 416 0000 10B5     		push	{r4, lr}
 417              		.cfi_def_cfa_offset 8
 418              		.cfi_offset 4, -8
 419              		.cfi_offset 14, -4
 325:Generated_Source\PSoC4/GraphicLCDIntf.c ****     GraphicLCDIntf_WriteM8(0u, wrData, (uint16)num);
 420              		.loc 1 325 0
 421 0002 8AB2     		uxth	r2, r1
 422 0004 0100     		movs	r1, r0
 423              	.LVL19:
 424 0006 0020     		movs	r0, #0
 425              	.LVL20:
 426 0008 FFF7FEFF 		bl	GraphicLCDIntf_WriteM8
 427              	.LVL21:
 326:Generated_Source\PSoC4/GraphicLCDIntf.c **** }
 428              		.loc 1 326 0
 429              		@ sp needed
 430 000c 10BD     		pop	{r4, pc}
 431              		.cfi_endproc
 432              	.LFE10:
 433              		.size	GraphicLCDIntf_WriteM8_A0, .-GraphicLCDIntf_WriteM8_A0
 434 000e C046     		.section	.text.GraphicLCDIntf_WriteM8_A1,"ax",%progbits
 435              		.align	2
 436              		.global	GraphicLCDIntf_WriteM8_A1
 437              		.code	16
 438              		.thumb_func
 439              		.type	GraphicLCDIntf_WriteM8_A1, %function
 440              	GraphicLCDIntf_WriteM8_A1:
 441              	.LFB11:
 327:Generated_Source\PSoC4/GraphicLCDIntf.c **** 
 328:Generated_Source\PSoC4/GraphicLCDIntf.c **** 
 329:Generated_Source\PSoC4/GraphicLCDIntf.c **** /*******************************************************************************
 330:Generated_Source\PSoC4/GraphicLCDIntf.c **** * Function Name: GraphicLCDIntf_WriteM8_A1
 331:Generated_Source\PSoC4/GraphicLCDIntf.c **** ********************************************************************************
 332:Generated_Source\PSoC4/GraphicLCDIntf.c **** *
 333:Generated_Source\PSoC4/GraphicLCDIntf.c **** * Summary:
 334:Generated_Source\PSoC4/GraphicLCDIntf.c **** *  Initiates multiple data write transactions on the 8-bit 
 335:Generated_Source\PSoC4/GraphicLCDIntf.c **** *  parallel interface with the d_c pin set to 1. The write is a posted write, 
 336:Generated_Source\PSoC4/GraphicLCDIntf.c **** *  so this function will return before the write has actually completed on the 
 337:Generated_Source\PSoC4/GraphicLCDIntf.c **** *  interface. If the command queue is full, this function will not return until
 338:Generated_Source\PSoC4/GraphicLCDIntf.c **** *  space is availale to queue this write request.
 339:Generated_Source\PSoC4/GraphicLCDIntf.c **** *
 340:Generated_Source\PSoC4/GraphicLCDIntf.c **** * Parameters:
 341:Generated_Source\PSoC4/GraphicLCDIntf.c **** *  wrData: Pointer to the the first element of a data buffer sent on the 
 342:Generated_Source\PSoC4/GraphicLCDIntf.c **** *          do_msb[7:0] (most significant byte) and do_lsb[7:0] (least significant
 343:Generated_Source\PSoC4/GraphicLCDIntf.c **** *          byte) pins. do_msb[7:0] presents only for 16-bit interface.
 344:Generated_Source\PSoC4/GraphicLCDIntf.c **** *
 345:Generated_Source\PSoC4/GraphicLCDIntf.c **** *  num:  Number of words/bytes to write.
 346:Generated_Source\PSoC4/GraphicLCDIntf.c **** *
 347:Generated_Source\PSoC4/GraphicLCDIntf.c **** *******************************************************************************/
 348:Generated_Source\PSoC4/GraphicLCDIntf.c **** void GraphicLCDIntf_WriteM8_A1(uint8 wrData[], int num) 
 349:Generated_Source\PSoC4/GraphicLCDIntf.c **** {
 442              		.loc 1 349 0
 443              		.cfi_startproc
 444              		@ args = 0, pretend = 0, frame = 0
 445              		@ frame_needed = 0, uses_anonymous_args = 0
ARM GAS  C:\Users\leoja\AppData\Local\Temp\ccmDCAAc.s 			page 15


 446              	.LVL22:
 447 0000 10B5     		push	{r4, lr}
 448              		.cfi_def_cfa_offset 8
 449              		.cfi_offset 4, -8
 450              		.cfi_offset 14, -4
 350:Generated_Source\PSoC4/GraphicLCDIntf.c ****     GraphicLCDIntf_WriteM8(1u, wrData, (uint16)num);
 451              		.loc 1 350 0
 452 0002 8AB2     		uxth	r2, r1
 453 0004 0100     		movs	r1, r0
 454              	.LVL23:
 455 0006 0120     		movs	r0, #1
 456              	.LVL24:
 457 0008 FFF7FEFF 		bl	GraphicLCDIntf_WriteM8
 458              	.LVL25:
 351:Generated_Source\PSoC4/GraphicLCDIntf.c **** }
 459              		.loc 1 351 0
 460              		@ sp needed
 461 000c 10BD     		pop	{r4, pc}
 462              		.cfi_endproc
 463              	.LFE11:
 464              		.size	GraphicLCDIntf_WriteM8_A1, .-GraphicLCDIntf_WriteM8_A1
 465 000e C046     		.section	.text.GraphicLCDIntf_Read8_A1,"ax",%progbits
 466              		.align	2
 467              		.global	GraphicLCDIntf_Read8_A1
 468              		.code	16
 469              		.thumb_func
 470              		.type	GraphicLCDIntf_Read8_A1, %function
 471              	GraphicLCDIntf_Read8_A1:
 472              	.LFB12:
 352:Generated_Source\PSoC4/GraphicLCDIntf.c **** 
 353:Generated_Source\PSoC4/GraphicLCDIntf.c **** 
 354:Generated_Source\PSoC4/GraphicLCDIntf.c **** /*******************************************************************************
 355:Generated_Source\PSoC4/GraphicLCDIntf.c **** * Function Name: GraphicLCDIntf_Read8_A1
 356:Generated_Source\PSoC4/GraphicLCDIntf.c **** ********************************************************************************
 357:Generated_Source\PSoC4/GraphicLCDIntf.c **** *
 358:Generated_Source\PSoC4/GraphicLCDIntf.c **** * Summary:
 359:Generated_Source\PSoC4/GraphicLCDIntf.c **** *  Initiates data read transaction on the 8-bit 
 360:Generated_Source\PSoC4/GraphicLCDIntf.c **** *  parallel interface with the d_c pin set to 1. The read will execute after 
 361:Generated_Source\PSoC4/GraphicLCDIntf.c **** *  all currently posted writes have completed. This function will wait until 
 362:Generated_Source\PSoC4/GraphicLCDIntf.c **** *  the read completes and then returns the read value.
 363:Generated_Source\PSoC4/GraphicLCDIntf.c **** *
 364:Generated_Source\PSoC4/GraphicLCDIntf.c **** * Return:
 365:Generated_Source\PSoC4/GraphicLCDIntf.c **** *  The 16-bit read value from the di_msb[7:0] (most significant byte) and 
 366:Generated_Source\PSoC4/GraphicLCDIntf.c **** *  di_lsb[7:0] (least significant byte) pins for the 16-bit interface or the 
 367:Generated_Source\PSoC4/GraphicLCDIntf.c **** *  8-bit read value from the di_lsb[7:0] for 8-bit interface.
 368:Generated_Source\PSoC4/GraphicLCDIntf.c **** *
 369:Generated_Source\PSoC4/GraphicLCDIntf.c **** *******************************************************************************/
 370:Generated_Source\PSoC4/GraphicLCDIntf.c **** uint8 GraphicLCDIntf_Read8_A1(void) 
 371:Generated_Source\PSoC4/GraphicLCDIntf.c **** {
 473              		.loc 1 371 0
 474              		.cfi_startproc
 475              		@ args = 0, pretend = 0, frame = 0
 476              		@ frame_needed = 0, uses_anonymous_args = 0
 477 0000 10B5     		push	{r4, lr}
 478              		.cfi_def_cfa_offset 8
 479              		.cfi_offset 4, -8
 480              		.cfi_offset 14, -4
ARM GAS  C:\Users\leoja\AppData\Local\Temp\ccmDCAAc.s 			page 16


 372:Generated_Source\PSoC4/GraphicLCDIntf.c ****     return GraphicLCDIntf_Read8(1u);
 481              		.loc 1 372 0
 482 0002 0120     		movs	r0, #1
 483 0004 FFF7FEFF 		bl	GraphicLCDIntf_Read8
 484              	.LVL26:
 373:Generated_Source\PSoC4/GraphicLCDIntf.c **** }
 485              		.loc 1 373 0
 486              		@ sp needed
 487 0008 10BD     		pop	{r4, pc}
 488              		.cfi_endproc
 489              	.LFE12:
 490              		.size	GraphicLCDIntf_Read8_A1, .-GraphicLCDIntf_Read8_A1
 491 000a C046     		.section	.text.GraphicLCDIntf_ReadM8_A1,"ax",%progbits
 492              		.align	2
 493              		.global	GraphicLCDIntf_ReadM8_A1
 494              		.code	16
 495              		.thumb_func
 496              		.type	GraphicLCDIntf_ReadM8_A1, %function
 497              	GraphicLCDIntf_ReadM8_A1:
 498              	.LFB13:
 374:Generated_Source\PSoC4/GraphicLCDIntf.c **** 
 375:Generated_Source\PSoC4/GraphicLCDIntf.c **** 
 376:Generated_Source\PSoC4/GraphicLCDIntf.c **** /*******************************************************************************
 377:Generated_Source\PSoC4/GraphicLCDIntf.c **** * Function Name: GraphicLCDIntf_ReadM8_A1
 378:Generated_Source\PSoC4/GraphicLCDIntf.c **** ********************************************************************************
 379:Generated_Source\PSoC4/GraphicLCDIntf.c **** *
 380:Generated_Source\PSoC4/GraphicLCDIntf.c **** * Summary:
 381:Generated_Source\PSoC4/GraphicLCDIntf.c **** *  Initiates multiple data read transactions on the 8-bit 
 382:Generated_Source\PSoC4/GraphicLCDIntf.c **** *  parallel interface with the d_c pin set to 1. The read will execute after all 
 383:Generated_Source\PSoC4/GraphicLCDIntf.c **** *  currently posted writes have completed. This function will wait until the 
 384:Generated_Source\PSoC4/GraphicLCDIntf.c **** *  read completes and then returns the read value.
 385:Generated_Source\PSoC4/GraphicLCDIntf.c **** *
 386:Generated_Source\PSoC4/GraphicLCDIntf.c **** * Parameters:
 387:Generated_Source\PSoC4/GraphicLCDIntf.c **** *  rdData: Pointer to the the first element of a data buffer read from the do_msb[7:0]
 388:Generated_Source\PSoC4/GraphicLCDIntf.c **** *        (most significant byte) and do_lsb[7:0] (least significant byte) pins. 
 389:Generated_Source\PSoC4/GraphicLCDIntf.c **** *        do_msb[7:0] presents only for 16-bit interface.
 390:Generated_Source\PSoC4/GraphicLCDIntf.c **** *
 391:Generated_Source\PSoC4/GraphicLCDIntf.c **** *  num:  Number of words/bytes to read.
 392:Generated_Source\PSoC4/GraphicLCDIntf.c **** *
 393:Generated_Source\PSoC4/GraphicLCDIntf.c **** *******************************************************************************/
 394:Generated_Source\PSoC4/GraphicLCDIntf.c **** void GraphicLCDIntf_ReadM8_A1(uint8 rdData[], int num) 
 395:Generated_Source\PSoC4/GraphicLCDIntf.c **** {
 499              		.loc 1 395 0
 500              		.cfi_startproc
 501              		@ args = 0, pretend = 0, frame = 0
 502              		@ frame_needed = 0, uses_anonymous_args = 0
 503              	.LVL27:
 504 0000 10B5     		push	{r4, lr}
 505              		.cfi_def_cfa_offset 8
 506              		.cfi_offset 4, -8
 507              		.cfi_offset 14, -4
 396:Generated_Source\PSoC4/GraphicLCDIntf.c ****     GraphicLCDIntf_ReadM8(1u, rdData, (uint16)num);
 508              		.loc 1 396 0
 509 0002 8AB2     		uxth	r2, r1
 510 0004 0100     		movs	r1, r0
 511              	.LVL28:
 512 0006 0120     		movs	r0, #1
ARM GAS  C:\Users\leoja\AppData\Local\Temp\ccmDCAAc.s 			page 17


 513              	.LVL29:
 514 0008 FFF7FEFF 		bl	GraphicLCDIntf_ReadM8
 515              	.LVL30:
 397:Generated_Source\PSoC4/GraphicLCDIntf.c **** }
 516              		.loc 1 397 0
 517              		@ sp needed
 518 000c 10BD     		pop	{r4, pc}
 519              		.cfi_endproc
 520              	.LFE13:
 521              		.size	GraphicLCDIntf_ReadM8_A1, .-GraphicLCDIntf_ReadM8_A1
 522              		.global	GraphicLCDIntf_initVar
 523 000e C046     		.bss
 524              		.set	.LANCHOR0,. + 0
 525              		.type	GraphicLCDIntf_initVar, %object
 526              		.size	GraphicLCDIntf_initVar, 1
 527              	GraphicLCDIntf_initVar:
 528 0000 00       		.space	1
 529              		.text
 530              	.Letext0:
 531              		.file 2 "Generated_Source\\PSoC4\\cytypes.h"